
build/debug/galaxy-mai.elf:     file format elf32-littlearm

Sections:
Idx Name          Size      VMA       LMA       File off  Algn
  0 .isr_vector   000000c0  08000000  08000000  00001000  2**0
                  CONTENTS, ALLOC, LOAD, READONLY, DATA
  1 .text         00003c44  080000c0  080000c0  000010c0  2**2
                  CONTENTS, ALLOC, LOAD, READONLY, CODE
  2 .rodata       000000c0  08003d04  08003d04  00004d04  2**2
                  CONTENTS, ALLOC, LOAD, READONLY, DATA
  3 .ARM.extab    00000000  08003dc4  08003dc4  00005148  2**0
                  CONTENTS, READONLY
  4 .ARM          00000000  08003dc4  08003dc4  00005148  2**0
                  CONTENTS, READONLY
  5 .preinit_array 00000000  08003dc4  08003dc4  00005148  2**0
                  CONTENTS, ALLOC, LOAD, DATA
  6 .init_array   00000004  08003dc4  08003dc4  00004dc4  2**2
                  CONTENTS, ALLOC, LOAD, READONLY, DATA
  7 .fini_array   00000004  08003dc8  08003dc8  00004dc8  2**2
                  CONTENTS, ALLOC, LOAD, READONLY, DATA
  8 .data         00000148  20000000  08003dcc  00005000  2**2
                  CONTENTS, ALLOC, LOAD, DATA
  9 .tdata        00000000  20000148  20000148  00005148  2**2
                  CONTENTS, ALLOC, LOAD, DATA, THREAD_LOCAL
 10 .tbss         00000000  20000148  20000148  00000000  2**2
                  ALLOC, THREAD_LOCAL
 11 .bss          000007e8  20000148  08003f14  00005148  2**2
                  ALLOC
 12 ._user_heap_stack 00000600  20000930  08003f14  00005930  2**0
                  ALLOC
 13 .ARM.attributes 00000028  00000000  00000000  00005148  2**0
                  CONTENTS, READONLY
 14 .comment      0000001e  00000000  00000000  00005170  2**0
                  CONTENTS, READONLY
 15 .debug_info   0000d806  00000000  00000000  0000518e  2**0
                  CONTENTS, READONLY, DEBUGGING, OCTETS
 16 .debug_abbrev 00002e15  00000000  00000000  00012994  2**0
                  CONTENTS, READONLY, DEBUGGING, OCTETS
 17 .debug_aranges 00000a30  00000000  00000000  000157b0  2**3
                  CONTENTS, READONLY, DEBUGGING, OCTETS
 18 .debug_rnglists 00000914  00000000  00000000  000161e0  2**0
                  CONTENTS, READONLY, DEBUGGING, OCTETS
 19 .debug_line   00008841  00000000  00000000  00016af4  2**0
                  CONTENTS, READONLY, DEBUGGING, OCTETS
 20 .debug_str    00002d37  00000000  00000000  0001f335  2**0
                  CONTENTS, READONLY, DEBUGGING, OCTETS
 21 .debug_frame  0000162c  00000000  00000000  0002206c  2**2
                  CONTENTS, READONLY, DEBUGGING, OCTETS
 22 .debug_loclists 00005e12  00000000  00000000  00023698  2**0
                  CONTENTS, READONLY, DEBUGGING, OCTETS
 23 .debug_line_str 000000db  00000000  00000000  000294aa  2**0
                  CONTENTS, READONLY, DEBUGGING, OCTETS

Disassembly of section .text:

080000c0 <__udivsi3>:
 80000c0:	2900      	cmp	r1, #0
 80000c2:	d034      	beq.n	800012e <.udivsi3_skip_div0_test+0x6a>

080000c4 <.udivsi3_skip_div0_test>:
 80000c4:	2301      	movs	r3, #1
 80000c6:	2200      	movs	r2, #0
 80000c8:	b410      	push	{r4}
 80000ca:	4288      	cmp	r0, r1
 80000cc:	d32c      	bcc.n	8000128 <.udivsi3_skip_div0_test+0x64>
 80000ce:	2401      	movs	r4, #1
 80000d0:	0724      	lsls	r4, r4, #28
 80000d2:	42a1      	cmp	r1, r4
 80000d4:	d204      	bcs.n	80000e0 <.udivsi3_skip_div0_test+0x1c>
 80000d6:	4281      	cmp	r1, r0
 80000d8:	d202      	bcs.n	80000e0 <.udivsi3_skip_div0_test+0x1c>
 80000da:	0109      	lsls	r1, r1, #4
 80000dc:	011b      	lsls	r3, r3, #4
 80000de:	e7f8      	b.n	80000d2 <.udivsi3_skip_div0_test+0xe>
 80000e0:	00e4      	lsls	r4, r4, #3
 80000e2:	42a1      	cmp	r1, r4
 80000e4:	d204      	bcs.n	80000f0 <.udivsi3_skip_div0_test+0x2c>
 80000e6:	4281      	cmp	r1, r0
 80000e8:	d202      	bcs.n	80000f0 <.udivsi3_skip_div0_test+0x2c>
 80000ea:	0049      	lsls	r1, r1, #1
 80000ec:	005b      	lsls	r3, r3, #1
 80000ee:	e7f8      	b.n	80000e2 <.udivsi3_skip_div0_test+0x1e>
 80000f0:	4288      	cmp	r0, r1
 80000f2:	d301      	bcc.n	80000f8 <.udivsi3_skip_div0_test+0x34>
 80000f4:	1a40      	subs	r0, r0, r1
 80000f6:	431a      	orrs	r2, r3
 80000f8:	084c      	lsrs	r4, r1, #1
 80000fa:	42a0      	cmp	r0, r4
 80000fc:	d302      	bcc.n	8000104 <.udivsi3_skip_div0_test+0x40>
 80000fe:	1b00      	subs	r0, r0, r4
 8000100:	085c      	lsrs	r4, r3, #1
 8000102:	4322      	orrs	r2, r4
 8000104:	088c      	lsrs	r4, r1, #2
 8000106:	42a0      	cmp	r0, r4
 8000108:	d302      	bcc.n	8000110 <.udivsi3_skip_div0_test+0x4c>
 800010a:	1b00      	subs	r0, r0, r4
 800010c:	089c      	lsrs	r4, r3, #2
 800010e:	4322      	orrs	r2, r4
 8000110:	08cc      	lsrs	r4, r1, #3
 8000112:	42a0      	cmp	r0, r4
 8000114:	d302      	bcc.n	800011c <.udivsi3_skip_div0_test+0x58>
 8000116:	1b00      	subs	r0, r0, r4
 8000118:	08dc      	lsrs	r4, r3, #3
 800011a:	4322      	orrs	r2, r4
 800011c:	2800      	cmp	r0, #0
 800011e:	d003      	beq.n	8000128 <.udivsi3_skip_div0_test+0x64>
 8000120:	091b      	lsrs	r3, r3, #4
 8000122:	d001      	beq.n	8000128 <.udivsi3_skip_div0_test+0x64>
 8000124:	0909      	lsrs	r1, r1, #4
 8000126:	e7e3      	b.n	80000f0 <.udivsi3_skip_div0_test+0x2c>
 8000128:	0010      	movs	r0, r2
 800012a:	bc10      	pop	{r4}
 800012c:	4770      	bx	lr
 800012e:	b501      	push	{r0, lr}
 8000130:	2000      	movs	r0, #0
 8000132:	f000 f80b 	bl	800014c <__aeabi_idiv0>
 8000136:	bd02      	pop	{r1, pc}

08000138 <__aeabi_uidivmod>:
 8000138:	2900      	cmp	r1, #0
 800013a:	d0f8      	beq.n	800012e <.udivsi3_skip_div0_test+0x6a>
 800013c:	b503      	push	{r0, r1, lr}
 800013e:	f7ff ffc1 	bl	80000c4 <.udivsi3_skip_div0_test>
 8000142:	bc0e      	pop	{r1, r2, r3}
 8000144:	4342      	muls	r2, r0
 8000146:	1a89      	subs	r1, r1, r2
 8000148:	4718      	bx	r3
 800014a:	46c0      	nop			@ (mov r8, r8)

0800014c <__aeabi_idiv0>:
 800014c:	4770      	bx	lr
 800014e:	46c0      	nop			@ (mov r8, r8)

08000150 <__do_global_dtors_aux>:
 8000150:	b510      	push	{r4, lr}
 8000152:	4c06      	ldr	r4, [pc, #24]	@ (800016c <__do_global_dtors_aux+0x1c>)
 8000154:	7823      	ldrb	r3, [r4, #0]
 8000156:	2b00      	cmp	r3, #0
 8000158:	d107      	bne.n	800016a <__do_global_dtors_aux+0x1a>
 800015a:	4b05      	ldr	r3, [pc, #20]	@ (8000170 <__do_global_dtors_aux+0x20>)
 800015c:	2b00      	cmp	r3, #0
 800015e:	d002      	beq.n	8000166 <__do_global_dtors_aux+0x16>
 8000160:	4804      	ldr	r0, [pc, #16]	@ (8000174 <__do_global_dtors_aux+0x24>)
 8000162:	e000      	b.n	8000166 <__do_global_dtors_aux+0x16>
 8000164:	bf00      	nop
 8000166:	2301      	movs	r3, #1
 8000168:	7023      	strb	r3, [r4, #0]
 800016a:	bd10      	pop	{r4, pc}
 800016c:	20000148 	.word	0x20000148
 8000170:	00000000 	.word	0x00000000
 8000174:	08003cec 	.word	0x08003cec

08000178 <frame_dummy>:
 8000178:	4b04      	ldr	r3, [pc, #16]	@ (800018c <frame_dummy+0x14>)
 800017a:	b510      	push	{r4, lr}
 800017c:	2b00      	cmp	r3, #0
 800017e:	d003      	beq.n	8000188 <frame_dummy+0x10>
 8000180:	4903      	ldr	r1, [pc, #12]	@ (8000190 <frame_dummy+0x18>)
 8000182:	4804      	ldr	r0, [pc, #16]	@ (8000194 <frame_dummy+0x1c>)
 8000184:	e000      	b.n	8000188 <frame_dummy+0x10>
 8000186:	bf00      	nop
 8000188:	bd10      	pop	{r4, pc}
 800018a:	46c0      	nop			@ (mov r8, r8)
 800018c:	00000000 	.word	0x00000000
 8000190:	2000014c 	.word	0x2000014c
 8000194:	08003cec 	.word	0x08003cec

08000198 <MX_GPIO_Init>:
        * Output
        * EVENT_OUT
        * EXTI
*/
void MX_GPIO_Init(void)
{
 8000198:	b510      	push	{r4, lr}
 800019a:	b086      	sub	sp, #24

  GPIO_InitTypeDef GPIO_InitStruct = {0};
 800019c:	ac01      	add	r4, sp, #4
 800019e:	2214      	movs	r2, #20
 80001a0:	2100      	movs	r1, #0
 80001a2:	0020      	movs	r0, r4
 80001a4:	f003 fd75 	bl	8003c92 <memset>

  /* GPIO Ports Clock Enable */
  __HAL_RCC_GPIOA_CLK_ENABLE();
 80001a8:	4b0a      	ldr	r3, [pc, #40]	@ (80001d4 <MX_GPIO_Init+0x3c>)
 80001aa:	695a      	ldr	r2, [r3, #20]
 80001ac:	2180      	movs	r1, #128	@ 0x80
 80001ae:	0289      	lsls	r1, r1, #10
 80001b0:	430a      	orrs	r2, r1
 80001b2:	615a      	str	r2, [r3, #20]
 80001b4:	695b      	ldr	r3, [r3, #20]
 80001b6:	400b      	ands	r3, r1
 80001b8:	9300      	str	r3, [sp, #0]
 80001ba:	9b00      	ldr	r3, [sp, #0]

  /*Configure GPIO pins : BTN1_Pin BTN2_Pin BTN3_Pin BTN4_Pin
                           BTN5_Pin BTN6_Pin BTN7_Pin BTN8_Pin */
  GPIO_InitStruct.Pin = BTN1_Pin|BTN2_Pin|BTN3_Pin|BTN4_Pin
 80001bc:	23ff      	movs	r3, #255	@ 0xff
 80001be:	9301      	str	r3, [sp, #4]
                          |BTN5_Pin|BTN6_Pin|BTN7_Pin|BTN8_Pin;
  GPIO_InitStruct.Mode = GPIO_MODE_INPUT;
  GPIO_InitStruct.Pull = GPIO_PULLDOWN;
 80001c0:	3bfd      	subs	r3, #253	@ 0xfd
 80001c2:	9303      	str	r3, [sp, #12]
  HAL_GPIO_Init(GPIOA, &GPIO_InitStruct);
 80001c4:	2090      	movs	r0, #144	@ 0x90
 80001c6:	0021      	movs	r1, r4
 80001c8:	05c0      	lsls	r0, r0, #23
 80001ca:	f000 f93b 	bl	8000444 <HAL_GPIO_Init>

}
 80001ce:	b006      	add	sp, #24
 80001d0:	bd10      	pop	{r4, pc}
 80001d2:	46c0      	nop			@ (mov r8, r8)
 80001d4:	40021000 	.word	0x40021000

080001d8 <addUSBReport>:
}

/* USER CODE BEGIN 4 */
void addUSBReport(uint8_t usageID){
    // Modifier keys (0xE0–0xE7)
    if (usageID >= 0xE0 && usageID <= 0xE7) {
 80001d8:	0003      	movs	r3, r0
 80001da:	3320      	adds	r3, #32
 80001dc:	b2db      	uxtb	r3, r3
 80001de:	2b07      	cmp	r3, #7
 80001e0:	d913      	bls.n	800020a <addUSBReport+0x32>
        REPORT.KEYPRESS[0] |= (1 << (usageID - 0xE0));
        return;
    }

    // Normal keys (0x04–0x63)
    if (usageID < 0x04 || usageID > 0x63) return;
 80001e2:	1f02      	subs	r2, r0, #4
 80001e4:	b2d2      	uxtb	r2, r2
 80001e6:	2a5f      	cmp	r2, #95	@ 0x5f
 80001e8:	d80e      	bhi.n	8000208 <addUSBReport+0x30>
    uint16_t bit_index = usageID - 0x04;
 80001ea:	3804      	subs	r0, #4
 80001ec:	b283      	uxth	r3, r0
    uint8_t byte_index = 2 + (bit_index / 8); // start at REPORT.KEYPRESS[2]
 80001ee:	08db      	lsrs	r3, r3, #3
 80001f0:	b2db      	uxtb	r3, r3
 80001f2:	3302      	adds	r3, #2
 80001f4:	b2db      	uxtb	r3, r3
    uint8_t bit_offset = bit_index % 8;
 80001f6:	2007      	movs	r0, #7
 80001f8:	4010      	ands	r0, r2
    REPORT.KEYPRESS[byte_index] |= (1 << bit_offset);
 80001fa:	4a08      	ldr	r2, [pc, #32]	@ (800021c <addUSBReport+0x44>)
 80001fc:	18d3      	adds	r3, r2, r3
 80001fe:	789a      	ldrb	r2, [r3, #2]
 8000200:	2101      	movs	r1, #1
 8000202:	4081      	lsls	r1, r0
 8000204:	430a      	orrs	r2, r1
 8000206:	709a      	strb	r2, [r3, #2]
}
 8000208:	4770      	bx	lr
        REPORT.KEYPRESS[0] |= (1 << (usageID - 0xE0));
 800020a:	4904      	ldr	r1, [pc, #16]	@ (800021c <addUSBReport+0x44>)
 800020c:	788b      	ldrb	r3, [r1, #2]
 800020e:	38e0      	subs	r0, #224	@ 0xe0
 8000210:	2201      	movs	r2, #1
 8000212:	4082      	lsls	r2, r0
 8000214:	4313      	orrs	r3, r2
 8000216:	708b      	strb	r3, [r1, #2]
        return;
 8000218:	e7f6      	b.n	8000208 <addUSBReport+0x30>
 800021a:	46c0      	nop			@ (mov r8, r8)
 800021c:	20000164 	.word	0x20000164

08000220 <Error_Handler>:
  \details Disables IRQ interrupts by setting the I-bit in the CPSR.
           Can only be executed in Privileged modes.
 */
__STATIC_FORCEINLINE void __disable_irq(void)
{
  __ASM volatile ("cpsid i" : : : "memory");
 8000220:	b672      	cpsid	i
void Error_Handler(void)
{
  /* USER CODE BEGIN Error_Handler_Debug */
  /* User can add his own implementation to report the HAL error return state */
  __disable_irq();
  while (1)
 8000222:	e7fe      	b.n	8000222 <Error_Handler+0x2>

08000224 <SystemClock_Config>:
{
 8000224:	b510      	push	{r4, lr}
 8000226:	b098      	sub	sp, #96	@ 0x60
  RCC_OscInitTypeDef RCC_OscInitStruct = {0};
 8000228:	ac0b      	add	r4, sp, #44	@ 0x2c
 800022a:	2234      	movs	r2, #52	@ 0x34
 800022c:	2100      	movs	r1, #0
 800022e:	0020      	movs	r0, r4
 8000230:	f003 fd2f 	bl	8003c92 <memset>
  RCC_ClkInitTypeDef RCC_ClkInitStruct = {0};
 8000234:	2210      	movs	r2, #16
 8000236:	2100      	movs	r1, #0
 8000238:	a807      	add	r0, sp, #28
 800023a:	f003 fd2a 	bl	8003c92 <memset>
  RCC_PeriphCLKInitTypeDef PeriphClkInit = {0};
 800023e:	2218      	movs	r2, #24
 8000240:	2100      	movs	r1, #0
 8000242:	a801      	add	r0, sp, #4
 8000244:	f003 fd25 	bl	8003c92 <memset>
  RCC_OscInitStruct.OscillatorType = RCC_OSCILLATORTYPE_HSI48;
 8000248:	2320      	movs	r3, #32
 800024a:	930b      	str	r3, [sp, #44]	@ 0x2c
  RCC_OscInitStruct.HSI48State = RCC_HSI48_ON;
 800024c:	3b1f      	subs	r3, #31
 800024e:	9313      	str	r3, [sp, #76]	@ 0x4c
  if (HAL_RCC_OscConfig(&RCC_OscInitStruct) != HAL_OK)
 8000250:	0020      	movs	r0, r4
 8000252:	f001 f9b9 	bl	80015c8 <HAL_RCC_OscConfig>
 8000256:	2800      	cmp	r0, #0
 8000258:	d118      	bne.n	800028c <SystemClock_Config+0x68>
  RCC_ClkInitStruct.ClockType = RCC_CLOCKTYPE_HCLK|RCC_CLOCKTYPE_SYSCLK
 800025a:	a807      	add	r0, sp, #28
 800025c:	2307      	movs	r3, #7
 800025e:	9307      	str	r3, [sp, #28]
  RCC_ClkInitStruct.SYSCLKSource = RCC_SYSCLKSOURCE_HSI48;
 8000260:	3b04      	subs	r3, #4
 8000262:	6043      	str	r3, [r0, #4]
  RCC_ClkInitStruct.AHBCLKDivider = RCC_SYSCLK_DIV1;
 8000264:	2300      	movs	r3, #0
 8000266:	6083      	str	r3, [r0, #8]
  RCC_ClkInitStruct.APB1CLKDivider = RCC_HCLK_DIV1;
 8000268:	60c3      	str	r3, [r0, #12]
  if (HAL_RCC_ClockConfig(&RCC_ClkInitStruct, FLASH_LATENCY_1) != HAL_OK)
 800026a:	2101      	movs	r1, #1
 800026c:	f001 fc8a 	bl	8001b84 <HAL_RCC_ClockConfig>
 8000270:	2800      	cmp	r0, #0
 8000272:	d10d      	bne.n	8000290 <SystemClock_Config+0x6c>
  PeriphClkInit.PeriphClockSelection = RCC_PERIPHCLK_USB;
 8000274:	a801      	add	r0, sp, #4
 8000276:	2380      	movs	r3, #128	@ 0x80
 8000278:	029b      	lsls	r3, r3, #10
 800027a:	9301      	str	r3, [sp, #4]
  PeriphClkInit.UsbClockSelection = RCC_USBCLKSOURCE_HSI48;
 800027c:	2300      	movs	r3, #0
 800027e:	6143      	str	r3, [r0, #20]
  if (HAL_RCCEx_PeriphCLKConfig(&PeriphClkInit) != HAL_OK)
 8000280:	f001 fd22 	bl	8001cc8 <HAL_RCCEx_PeriphCLKConfig>
 8000284:	2800      	cmp	r0, #0
 8000286:	d105      	bne.n	8000294 <SystemClock_Config+0x70>
}
 8000288:	b018      	add	sp, #96	@ 0x60
 800028a:	bd10      	pop	{r4, pc}
    Error_Handler();
 800028c:	f7ff ffc8 	bl	8000220 <Error_Handler>
    Error_Handler();
 8000290:	f7ff ffc6 	bl	8000220 <Error_Handler>
    Error_Handler();
 8000294:	f7ff ffc4 	bl	8000220 <Error_Handler>

08000298 <main>:
{
 8000298:	b510      	push	{r4, lr}
  HAL_Init();
 800029a:	f000 f83f 	bl	800031c <HAL_Init>
  SystemClock_Config();
 800029e:	f7ff ffc1 	bl	8000224 <SystemClock_Config>
  MX_GPIO_Init();
 80002a2:	f7ff ff79 	bl	8000198 <MX_GPIO_Init>
  MX_USB_DEVICE_Init();
 80002a6:	f002 fc81 	bl	8002bac <MX_USB_DEVICE_Init>
    addUSBReport(0x1A);
 80002aa:	201a      	movs	r0, #26
 80002ac:	f7ff ff94 	bl	80001d8 <addUSBReport>
    USBD_HID_SendReport(&hUsbDeviceFS, (uint8_t*)&REPORT, sizeof(REPORT));
 80002b0:	4904      	ldr	r1, [pc, #16]	@ (80002c4 <main+0x2c>)
 80002b2:	4805      	ldr	r0, [pc, #20]	@ (80002c8 <main+0x30>)
 80002b4:	220e      	movs	r2, #14
 80002b6:	f003 fc60 	bl	8003b7a <USBD_HID_SendReport>
    HAL_Delay(10); 
 80002ba:	200a      	movs	r0, #10
 80002bc:	f000 f850 	bl	8000360 <HAL_Delay>
  while (1)
 80002c0:	e7f3      	b.n	80002aa <main+0x12>
 80002c2:	46c0      	nop			@ (mov r8, r8)
 80002c4:	20000164 	.word	0x20000164
 80002c8:	20000178 	.word	0x20000178

080002cc <HAL_InitTick>:
  *       implementation  in user file.
  * @param TickPriority Tick interrupt priority.
  * @retval HAL status
  */
__weak HAL_StatusTypeDef HAL_InitTick(uint32_t TickPriority)
{
 80002cc:	b510      	push	{r4, lr}
 80002ce:	0004      	movs	r4, r0
  /*Configure the SysTick to have interrupt in 1ms time basis*/
  if (HAL_SYSTICK_Config(SystemCoreClock / (1000U / uwTickFreq)) > 0U)
 80002d0:	4b0f      	ldr	r3, [pc, #60]	@ (8000310 <HAL_InitTick+0x44>)
 80002d2:	7819      	ldrb	r1, [r3, #0]
 80002d4:	20fa      	movs	r0, #250	@ 0xfa
 80002d6:	0080      	lsls	r0, r0, #2
 80002d8:	f7ff fef2 	bl	80000c0 <__udivsi3>
 80002dc:	0001      	movs	r1, r0
 80002de:	4b0d      	ldr	r3, [pc, #52]	@ (8000314 <HAL_InitTick+0x48>)
 80002e0:	6818      	ldr	r0, [r3, #0]
 80002e2:	f7ff feed 	bl	80000c0 <__udivsi3>
 80002e6:	f000 f8a9 	bl	800043c <HAL_SYSTICK_Config>
 80002ea:	2800      	cmp	r0, #0
 80002ec:	d10d      	bne.n	800030a <HAL_InitTick+0x3e>
  {
    return HAL_ERROR;
  }

  /* Configure the SysTick IRQ priority */
  if (TickPriority < (1UL << __NVIC_PRIO_BITS))
 80002ee:	2c03      	cmp	r4, #3
 80002f0:	d901      	bls.n	80002f6 <HAL_InitTick+0x2a>
    HAL_NVIC_SetPriority(SysTick_IRQn, TickPriority, 0U);
    uwTickPrio = TickPriority;
  }
  else
  {
    return HAL_ERROR;
 80002f2:	2001      	movs	r0, #1
 80002f4:	e00a      	b.n	800030c <HAL_InitTick+0x40>
    HAL_NVIC_SetPriority(SysTick_IRQn, TickPriority, 0U);
 80002f6:	3001      	adds	r0, #1
 80002f8:	2200      	movs	r2, #0
 80002fa:	0021      	movs	r1, r4
 80002fc:	4240      	negs	r0, r0
 80002fe:	f000 f88d 	bl	800041c <HAL_NVIC_SetPriority>
    uwTickPrio = TickPriority;
 8000302:	4b05      	ldr	r3, [pc, #20]	@ (8000318 <HAL_InitTick+0x4c>)
 8000304:	601c      	str	r4, [r3, #0]
  }

   /* Return function status */
  return HAL_OK;
 8000306:	2000      	movs	r0, #0
 8000308:	e000      	b.n	800030c <HAL_InitTick+0x40>
    return HAL_ERROR;
 800030a:	2001      	movs	r0, #1
}
 800030c:	bd10      	pop	{r4, pc}
 800030e:	46c0      	nop			@ (mov r8, r8)
 8000310:	20000000 	.word	0x20000000
 8000314:	20000008 	.word	0x20000008
 8000318:	20000004 	.word	0x20000004

0800031c <HAL_Init>:
{
 800031c:	b510      	push	{r4, lr}
  __HAL_FLASH_PREFETCH_BUFFER_ENABLE();
 800031e:	4a06      	ldr	r2, [pc, #24]	@ (8000338 <HAL_Init+0x1c>)
 8000320:	6813      	ldr	r3, [r2, #0]
 8000322:	2110      	movs	r1, #16
 8000324:	430b      	orrs	r3, r1
 8000326:	6013      	str	r3, [r2, #0]
  HAL_InitTick(TICK_INT_PRIORITY);
 8000328:	2003      	movs	r0, #3
 800032a:	f7ff ffcf 	bl	80002cc <HAL_InitTick>
  HAL_MspInit();
 800032e:	f000 f947 	bl	80005c0 <HAL_MspInit>
}
 8000332:	2000      	movs	r0, #0
 8000334:	bd10      	pop	{r4, pc}
 8000336:	46c0      	nop			@ (mov r8, r8)
 8000338:	40022000 	.word	0x40022000

0800033c <HAL_IncTick>:
  *       implementations in user file.
  * @retval None
  */
__weak void HAL_IncTick(void)
{
  uwTick += uwTickFreq;
 800033c:	4a03      	ldr	r2, [pc, #12]	@ (800034c <HAL_IncTick+0x10>)
 800033e:	6811      	ldr	r1, [r2, #0]
 8000340:	4b03      	ldr	r3, [pc, #12]	@ (8000350 <HAL_IncTick+0x14>)
 8000342:	781b      	ldrb	r3, [r3, #0]
 8000344:	185b      	adds	r3, r3, r1
 8000346:	6013      	str	r3, [r2, #0]
}
 8000348:	4770      	bx	lr
 800034a:	46c0      	nop			@ (mov r8, r8)
 800034c:	20000174 	.word	0x20000174
 8000350:	20000000 	.word	0x20000000

08000354 <HAL_GetTick>:
  *       implementations in user file.
  * @retval tick value
  */
__weak uint32_t HAL_GetTick(void)
{
  return uwTick;
 8000354:	4b01      	ldr	r3, [pc, #4]	@ (800035c <HAL_GetTick+0x8>)
 8000356:	6818      	ldr	r0, [r3, #0]
}
 8000358:	4770      	bx	lr
 800035a:	46c0      	nop			@ (mov r8, r8)
 800035c:	20000174 	.word	0x20000174

08000360 <HAL_Delay>:
  *       implementations in user file.
  * @param Delay specifies the delay time length, in milliseconds.
  * @retval None
  */
__weak void HAL_Delay(uint32_t Delay)
{
 8000360:	b570      	push	{r4, r5, r6, lr}
 8000362:	0004      	movs	r4, r0
  uint32_t tickstart = HAL_GetTick();
 8000364:	f7ff fff6 	bl	8000354 <HAL_GetTick>
 8000368:	0005      	movs	r5, r0
  uint32_t wait = Delay;
  
  /* Add a freq to guarantee minimum wait */
  if (wait < HAL_MAX_DELAY)
 800036a:	1c63      	adds	r3, r4, #1
 800036c:	d002      	beq.n	8000374 <HAL_Delay+0x14>
  {
    wait += (uint32_t)(uwTickFreq);
 800036e:	4b04      	ldr	r3, [pc, #16]	@ (8000380 <HAL_Delay+0x20>)
 8000370:	781b      	ldrb	r3, [r3, #0]
 8000372:	18e4      	adds	r4, r4, r3
  }
  
  while((HAL_GetTick() - tickstart) < wait)
 8000374:	f7ff ffee 	bl	8000354 <HAL_GetTick>
 8000378:	1b40      	subs	r0, r0, r5
 800037a:	42a0      	cmp	r0, r4
 800037c:	d3fa      	bcc.n	8000374 <HAL_Delay+0x14>
  {
  }
}
 800037e:	bd70      	pop	{r4, r5, r6, pc}
 8000380:	20000000 	.word	0x20000000

08000384 <__NVIC_SetPriority>:
  \param [in]      IRQn  Interrupt number.
  \param [in]  priority  Priority to set.
  \note    The priority cannot be set for every processor exception.
 */
__STATIC_INLINE void __NVIC_SetPriority(IRQn_Type IRQn, uint32_t priority)
{
 8000384:	b570      	push	{r4, r5, r6, lr}
  if ((int32_t)(IRQn) >= 0)
 8000386:	2800      	cmp	r0, #0
 8000388:	db11      	blt.n	80003ae <__NVIC_SetPriority+0x2a>
  {
    NVIC->IP[_IP_IDX(IRQn)]  = ((uint32_t)(NVIC->IP[_IP_IDX(IRQn)]  & ~(0xFFUL << _BIT_SHIFT(IRQn))) |
 800038a:	0883      	lsrs	r3, r0, #2
 800038c:	4d13      	ldr	r5, [pc, #76]	@ (80003dc <__NVIC_SetPriority+0x58>)
 800038e:	33c0      	adds	r3, #192	@ 0xc0
 8000390:	009b      	lsls	r3, r3, #2
 8000392:	595c      	ldr	r4, [r3, r5]
 8000394:	2203      	movs	r2, #3
 8000396:	4010      	ands	r0, r2
 8000398:	00c0      	lsls	r0, r0, #3
 800039a:	32fc      	adds	r2, #252	@ 0xfc
 800039c:	0016      	movs	r6, r2
 800039e:	4086      	lsls	r6, r0
 80003a0:	43b4      	bics	r4, r6
       (((priority << (8U - __NVIC_PRIO_BITS)) & (uint32_t)0xFFUL) << _BIT_SHIFT(IRQn)));
 80003a2:	0189      	lsls	r1, r1, #6
 80003a4:	400a      	ands	r2, r1
 80003a6:	4082      	lsls	r2, r0
    NVIC->IP[_IP_IDX(IRQn)]  = ((uint32_t)(NVIC->IP[_IP_IDX(IRQn)]  & ~(0xFFUL << _BIT_SHIFT(IRQn))) |
 80003a8:	4322      	orrs	r2, r4
 80003aa:	515a      	str	r2, [r3, r5]
  else
  {
    SCB->SHP[_SHP_IDX(IRQn)] = ((uint32_t)(SCB->SHP[_SHP_IDX(IRQn)] & ~(0xFFUL << _BIT_SHIFT(IRQn))) |
       (((priority << (8U - __NVIC_PRIO_BITS)) & (uint32_t)0xFFUL) << _BIT_SHIFT(IRQn)));
  }
}
 80003ac:	bd70      	pop	{r4, r5, r6, pc}
    SCB->SHP[_SHP_IDX(IRQn)] = ((uint32_t)(SCB->SHP[_SHP_IDX(IRQn)] & ~(0xFFUL << _BIT_SHIFT(IRQn))) |
 80003ae:	230f      	movs	r3, #15
 80003b0:	4003      	ands	r3, r0
 80003b2:	3b08      	subs	r3, #8
 80003b4:	089b      	lsrs	r3, r3, #2
 80003b6:	3306      	adds	r3, #6
 80003b8:	009b      	lsls	r3, r3, #2
 80003ba:	4a09      	ldr	r2, [pc, #36]	@ (80003e0 <__NVIC_SetPriority+0x5c>)
 80003bc:	4694      	mov	ip, r2
 80003be:	4463      	add	r3, ip
 80003c0:	685c      	ldr	r4, [r3, #4]
 80003c2:	2203      	movs	r2, #3
 80003c4:	4010      	ands	r0, r2
 80003c6:	00c0      	lsls	r0, r0, #3
 80003c8:	32fc      	adds	r2, #252	@ 0xfc
 80003ca:	0015      	movs	r5, r2
 80003cc:	4085      	lsls	r5, r0
 80003ce:	43ac      	bics	r4, r5
       (((priority << (8U - __NVIC_PRIO_BITS)) & (uint32_t)0xFFUL) << _BIT_SHIFT(IRQn)));
 80003d0:	0189      	lsls	r1, r1, #6
 80003d2:	400a      	ands	r2, r1
 80003d4:	4082      	lsls	r2, r0
    SCB->SHP[_SHP_IDX(IRQn)] = ((uint32_t)(SCB->SHP[_SHP_IDX(IRQn)] & ~(0xFFUL << _BIT_SHIFT(IRQn))) |
 80003d6:	4322      	orrs	r2, r4
 80003d8:	605a      	str	r2, [r3, #4]
}
 80003da:	e7e7      	b.n	80003ac <__NVIC_SetPriority+0x28>
 80003dc:	e000e100 	.word	0xe000e100
 80003e0:	e000ed00 	.word	0xe000ed00

080003e4 <SysTick_Config>:
           function <b>SysTick_Config</b> is not included. In this case, the file <b><i>device</i>.h</b>
           must contain a vendor-specific implementation of this function.
 */
__STATIC_INLINE uint32_t SysTick_Config(uint32_t ticks)
{
  if ((ticks - 1UL) > SysTick_LOAD_RELOAD_Msk)
 80003e4:	3801      	subs	r0, #1
 80003e6:	2380      	movs	r3, #128	@ 0x80
 80003e8:	045b      	lsls	r3, r3, #17
 80003ea:	4298      	cmp	r0, r3
 80003ec:	d20f      	bcs.n	800040e <SysTick_Config+0x2a>
  {
    return (1UL);                                                   /* Reload value impossible */
  }

  SysTick->LOAD  = (uint32_t)(ticks - 1UL);                         /* set reload register */
 80003ee:	4a09      	ldr	r2, [pc, #36]	@ (8000414 <SysTick_Config+0x30>)
 80003f0:	6050      	str	r0, [r2, #4]
    SCB->SHP[_SHP_IDX(IRQn)] = ((uint32_t)(SCB->SHP[_SHP_IDX(IRQn)] & ~(0xFFUL << _BIT_SHIFT(IRQn))) |
 80003f2:	4809      	ldr	r0, [pc, #36]	@ (8000418 <SysTick_Config+0x34>)
 80003f4:	6a03      	ldr	r3, [r0, #32]
 80003f6:	021b      	lsls	r3, r3, #8
 80003f8:	0a1b      	lsrs	r3, r3, #8
 80003fa:	21c0      	movs	r1, #192	@ 0xc0
 80003fc:	0609      	lsls	r1, r1, #24
 80003fe:	430b      	orrs	r3, r1
 8000400:	6203      	str	r3, [r0, #32]
  NVIC_SetPriority (SysTick_IRQn, (1UL << __NVIC_PRIO_BITS) - 1UL); /* set Priority for Systick Interrupt */
  SysTick->VAL   = 0UL;                                             /* Load the SysTick Counter Value */
 8000402:	2300      	movs	r3, #0
 8000404:	6093      	str	r3, [r2, #8]
  SysTick->CTRL  = SysTick_CTRL_CLKSOURCE_Msk |
 8000406:	3307      	adds	r3, #7
 8000408:	6013      	str	r3, [r2, #0]
                   SysTick_CTRL_TICKINT_Msk   |
                   SysTick_CTRL_ENABLE_Msk;                         /* Enable SysTick IRQ and SysTick Timer */
  return (0UL);                                                     /* Function successful */
 800040a:	2000      	movs	r0, #0
}
 800040c:	4770      	bx	lr
    return (1UL);                                                   /* Reload value impossible */
 800040e:	2001      	movs	r0, #1
 8000410:	e7fc      	b.n	800040c <SysTick_Config+0x28>
 8000412:	46c0      	nop			@ (mov r8, r8)
 8000414:	e000e010 	.word	0xe000e010
 8000418:	e000ed00 	.word	0xe000ed00

0800041c <HAL_NVIC_SetPriority>:
  *         with stm32f0xx devices, this parameter is a dummy value and it is ignored, because 
  *         no subpriority supported in Cortex M0 based products.   
  * @retval None
  */
void HAL_NVIC_SetPriority(IRQn_Type IRQn, uint32_t PreemptPriority, uint32_t SubPriority)
{
 800041c:	b510      	push	{r4, lr}
  /* Check the parameters */
  assert_param(IS_NVIC_PREEMPTION_PRIORITY(PreemptPriority));
  NVIC_SetPriority(IRQn,PreemptPriority);
 800041e:	f7ff ffb1 	bl	8000384 <__NVIC_SetPriority>

  /* Prevent unused argument(s) compilation warning */
  UNUSED(SubPriority);
}
 8000422:	bd10      	pop	{r4, pc}

08000424 <HAL_NVIC_EnableIRQ>:
  if ((int32_t)(IRQn) >= 0)
 8000424:	2800      	cmp	r0, #0
 8000426:	db05      	blt.n	8000434 <HAL_NVIC_EnableIRQ+0x10>
    NVIC->ISER[0U] = (uint32_t)(1UL << (((uint32_t)IRQn) & 0x1FUL));
 8000428:	221f      	movs	r2, #31
 800042a:	4002      	ands	r2, r0
 800042c:	2301      	movs	r3, #1
 800042e:	4093      	lsls	r3, r2
 8000430:	4a01      	ldr	r2, [pc, #4]	@ (8000438 <HAL_NVIC_EnableIRQ+0x14>)
 8000432:	6013      	str	r3, [r2, #0]
  /* Check the parameters */
  assert_param(IS_NVIC_DEVICE_IRQ(IRQn));
  
  /* Enable interrupt */
  NVIC_EnableIRQ(IRQn);
}
 8000434:	4770      	bx	lr
 8000436:	46c0      	nop			@ (mov r8, r8)
 8000438:	e000e100 	.word	0xe000e100

0800043c <HAL_SYSTICK_Config>:
  * @param  TicksNumb Specifies the ticks Number of ticks between two interrupts.
  * @retval status:  - 0  Function succeeded.
  *                  - 1  Function failed.
  */
uint32_t HAL_SYSTICK_Config(uint32_t TicksNumb)
{
 800043c:	b510      	push	{r4, lr}
   return SysTick_Config(TicksNumb);
 800043e:	f7ff ffd1 	bl	80003e4 <SysTick_Config>
}
 8000442:	bd10      	pop	{r4, pc}

08000444 <HAL_GPIO_Init>:
  * @param  GPIO_Init pointer to a GPIO_InitTypeDef structure that contains
  *         the configuration information for the specified GPIO peripheral.
  * @retval None
  */
void HAL_GPIO_Init(GPIO_TypeDef  *GPIOx, GPIO_InitTypeDef *GPIO_Init)
{
 8000444:	b5f0      	push	{r4, r5, r6, r7, lr}
 8000446:	b083      	sub	sp, #12
  uint32_t position = 0x00u;
 8000448:	2300      	movs	r3, #0
  assert_param(IS_GPIO_ALL_INSTANCE(GPIOx));
  assert_param(IS_GPIO_PIN(GPIO_Init->Pin));
  assert_param(IS_GPIO_MODE(GPIO_Init->Mode));

  /* Configure the port pins */
  while (((GPIO_Init->Pin) >> position) != 0x00u)
 800044a:	e056      	b.n	80004fa <HAL_GPIO_Init+0xb6>
         ((GPIO_Init->Mode & GPIO_MODE) == MODE_AF))
      {
        /* Check the Speed parameter */
        assert_param(IS_GPIO_SPEED(GPIO_Init->Speed));
        /* Configure the IO Speed */
        temp = GPIOx->OSPEEDR;
 800044c:	6886      	ldr	r6, [r0, #8]
        temp &= ~(GPIO_OSPEEDER_OSPEEDR0 << (position * 2u));
 800044e:	005f      	lsls	r7, r3, #1
 8000450:	2403      	movs	r4, #3
 8000452:	40bc      	lsls	r4, r7
 8000454:	43a6      	bics	r6, r4
        temp |= (GPIO_Init->Speed << (position * 2u));
 8000456:	68cc      	ldr	r4, [r1, #12]
 8000458:	40bc      	lsls	r4, r7
 800045a:	4334      	orrs	r4, r6
        GPIOx->OSPEEDR = temp;
 800045c:	6084      	str	r4, [r0, #8]

        /* Configure the IO Output Type */
        temp = GPIOx->OTYPER;
 800045e:	6844      	ldr	r4, [r0, #4]
        temp &= ~(GPIO_OTYPER_OT_0 << position) ;
 8000460:	4394      	bics	r4, r2
        temp |= (((GPIO_Init->Mode & OUTPUT_TYPE) >> OUTPUT_TYPE_Pos) << position);
 8000462:	684e      	ldr	r6, [r1, #4]
 8000464:	0936      	lsrs	r6, r6, #4
 8000466:	2201      	movs	r2, #1
 8000468:	4032      	ands	r2, r6
 800046a:	409a      	lsls	r2, r3
 800046c:	4322      	orrs	r2, r4
        GPIOx->OTYPER = temp;
 800046e:	6042      	str	r2, [r0, #4]
 8000470:	e053      	b.n	800051a <HAL_GPIO_Init+0xd6>
        /* Check the Alternate function parameters */
        assert_param(IS_GPIO_AF_INSTANCE(GPIOx));
        assert_param(IS_GPIO_AF(GPIO_Init->Alternate));

        /* Configure Alternate function mapped with the current IO */
        temp = GPIOx->AFR[position >> 3u];
 8000472:	08de      	lsrs	r6, r3, #3
 8000474:	3608      	adds	r6, #8
 8000476:	00b6      	lsls	r6, r6, #2
 8000478:	5837      	ldr	r7, [r6, r0]
        temp &= ~(0xFu << ((position & 0x07u) * 4u));
 800047a:	3205      	adds	r2, #5
 800047c:	401a      	ands	r2, r3
 800047e:	0092      	lsls	r2, r2, #2
 8000480:	240f      	movs	r4, #15
 8000482:	4094      	lsls	r4, r2
 8000484:	43a7      	bics	r7, r4
        temp |= ((GPIO_Init->Alternate) << ((position & 0x07u) * 4u));
 8000486:	690c      	ldr	r4, [r1, #16]
 8000488:	4094      	lsls	r4, r2
 800048a:	0022      	movs	r2, r4
 800048c:	433a      	orrs	r2, r7
        GPIOx->AFR[position >> 3u] = temp;
 800048e:	5032      	str	r2, [r6, r0]
 8000490:	e056      	b.n	8000540 <HAL_GPIO_Init+0xfc>
        /* Enable SYSCFG Clock */
        __HAL_RCC_SYSCFG_CLK_ENABLE();

        temp = SYSCFG->EXTICR[position >> 2u];
        temp &= ~(0x0FuL << (4u * (position & 0x03u)));
        temp |= (GPIO_GET_INDEX(GPIOx) << (4u * (position & 0x03u)));
 8000492:	2602      	movs	r6, #2
 8000494:	e000      	b.n	8000498 <HAL_GPIO_Init+0x54>
 8000496:	2600      	movs	r6, #0
 8000498:	40a6      	lsls	r6, r4
 800049a:	0034      	movs	r4, r6
 800049c:	433c      	orrs	r4, r7
        SYSCFG->EXTICR[position >> 2u] = temp;
 800049e:	3202      	adds	r2, #2
 80004a0:	0092      	lsls	r2, r2, #2
 80004a2:	4e42      	ldr	r6, [pc, #264]	@ (80005ac <HAL_GPIO_Init+0x168>)
 80004a4:	5194      	str	r4, [r2, r6]

        /* Clear Rising Falling edge configuration */
        temp = EXTI->RTSR;
 80004a6:	4a42      	ldr	r2, [pc, #264]	@ (80005b0 <HAL_GPIO_Init+0x16c>)
 80004a8:	6897      	ldr	r7, [r2, #8]
        temp &= ~(iocurrent);
 80004aa:	43ea      	mvns	r2, r5
 80004ac:	003e      	movs	r6, r7
 80004ae:	43ae      	bics	r6, r5
        if((GPIO_Init->Mode & TRIGGER_RISING) != 0x00u)
 80004b0:	684c      	ldr	r4, [r1, #4]
 80004b2:	02e4      	lsls	r4, r4, #11
 80004b4:	d501      	bpl.n	80004ba <HAL_GPIO_Init+0x76>
        {
          temp |= iocurrent;
 80004b6:	003e      	movs	r6, r7
 80004b8:	432e      	orrs	r6, r5
        }
        EXTI->RTSR = temp;
 80004ba:	4c3d      	ldr	r4, [pc, #244]	@ (80005b0 <HAL_GPIO_Init+0x16c>)
 80004bc:	60a6      	str	r6, [r4, #8]

        temp = EXTI->FTSR;
 80004be:	68e7      	ldr	r7, [r4, #12]
        temp &= ~(iocurrent);
 80004c0:	003e      	movs	r6, r7
 80004c2:	4016      	ands	r6, r2
        if((GPIO_Init->Mode & TRIGGER_FALLING) != 0x00u)
 80004c4:	684c      	ldr	r4, [r1, #4]
 80004c6:	02a4      	lsls	r4, r4, #10
 80004c8:	d501      	bpl.n	80004ce <HAL_GPIO_Init+0x8a>
        {
          temp |= iocurrent;
 80004ca:	003e      	movs	r6, r7
 80004cc:	432e      	orrs	r6, r5
        }
        EXTI->FTSR = temp;
 80004ce:	4c38      	ldr	r4, [pc, #224]	@ (80005b0 <HAL_GPIO_Init+0x16c>)
 80004d0:	60e6      	str	r6, [r4, #12]

        /* Clear EXTI line configuration */
        temp = EXTI->EMR;
 80004d2:	6867      	ldr	r7, [r4, #4]
        temp &= ~(iocurrent);
 80004d4:	003e      	movs	r6, r7
 80004d6:	4016      	ands	r6, r2
        if((GPIO_Init->Mode & EXTI_EVT) != 0x00u)
 80004d8:	684c      	ldr	r4, [r1, #4]
 80004da:	03a4      	lsls	r4, r4, #14
 80004dc:	d501      	bpl.n	80004e2 <HAL_GPIO_Init+0x9e>
        {
          temp |= iocurrent;
 80004de:	003e      	movs	r6, r7
 80004e0:	432e      	orrs	r6, r5
        }
        EXTI->EMR = temp;
 80004e2:	4c33      	ldr	r4, [pc, #204]	@ (80005b0 <HAL_GPIO_Init+0x16c>)
 80004e4:	6066      	str	r6, [r4, #4]

        temp = EXTI->IMR;
 80004e6:	6826      	ldr	r6, [r4, #0]
        temp &= ~(iocurrent);
 80004e8:	4032      	ands	r2, r6
        if((GPIO_Init->Mode & EXTI_IT) != 0x00u)
 80004ea:	684c      	ldr	r4, [r1, #4]
 80004ec:	03e4      	lsls	r4, r4, #15
 80004ee:	d501      	bpl.n	80004f4 <HAL_GPIO_Init+0xb0>
        {
          temp |= iocurrent;
 80004f0:	002a      	movs	r2, r5
 80004f2:	4332      	orrs	r2, r6
        }
        EXTI->IMR = temp;
 80004f4:	4c2e      	ldr	r4, [pc, #184]	@ (80005b0 <HAL_GPIO_Init+0x16c>)
 80004f6:	6022      	str	r2, [r4, #0]
      }
    }

    position++;
 80004f8:	3301      	adds	r3, #1
  while (((GPIO_Init->Pin) >> position) != 0x00u)
 80004fa:	680c      	ldr	r4, [r1, #0]
 80004fc:	0022      	movs	r2, r4
 80004fe:	40da      	lsrs	r2, r3
 8000500:	d051      	beq.n	80005a6 <HAL_GPIO_Init+0x162>
    iocurrent = (GPIO_Init->Pin) & (1uL << position);
 8000502:	2201      	movs	r2, #1
 8000504:	409a      	lsls	r2, r3
 8000506:	0025      	movs	r5, r4
 8000508:	4015      	ands	r5, r2
    if (iocurrent != 0x00u)
 800050a:	4214      	tst	r4, r2
 800050c:	d0f4      	beq.n	80004f8 <HAL_GPIO_Init+0xb4>
      if(((GPIO_Init->Mode & GPIO_MODE) == MODE_OUTPUT) ||
 800050e:	684e      	ldr	r6, [r1, #4]
 8000510:	2403      	movs	r4, #3
 8000512:	4034      	ands	r4, r6
 8000514:	3c01      	subs	r4, #1
 8000516:	2c01      	cmp	r4, #1
 8000518:	d998      	bls.n	800044c <HAL_GPIO_Init+0x8>
      if((GPIO_Init->Mode & GPIO_MODE) != MODE_ANALOG)
 800051a:	684c      	ldr	r4, [r1, #4]
 800051c:	2203      	movs	r2, #3
 800051e:	4022      	ands	r2, r4
 8000520:	2a03      	cmp	r2, #3
 8000522:	d008      	beq.n	8000536 <HAL_GPIO_Init+0xf2>
        temp = GPIOx->PUPDR;
 8000524:	68c4      	ldr	r4, [r0, #12]
        temp &= ~(GPIO_PUPDR_PUPDR0 << (position * 2u));
 8000526:	005e      	lsls	r6, r3, #1
 8000528:	2203      	movs	r2, #3
 800052a:	40b2      	lsls	r2, r6
 800052c:	4394      	bics	r4, r2
        temp |= ((GPIO_Init->Pull) << (position * 2u));
 800052e:	688a      	ldr	r2, [r1, #8]
 8000530:	40b2      	lsls	r2, r6
 8000532:	4322      	orrs	r2, r4
        GPIOx->PUPDR = temp;
 8000534:	60c2      	str	r2, [r0, #12]
      if((GPIO_Init->Mode & GPIO_MODE) == MODE_AF)
 8000536:	684c      	ldr	r4, [r1, #4]
 8000538:	2203      	movs	r2, #3
 800053a:	4022      	ands	r2, r4
 800053c:	2a02      	cmp	r2, #2
 800053e:	d098      	beq.n	8000472 <HAL_GPIO_Init+0x2e>
      temp = GPIOx->MODER;
 8000540:	6804      	ldr	r4, [r0, #0]
      temp &= ~(GPIO_MODER_MODER0 << (position * 2u));
 8000542:	005e      	lsls	r6, r3, #1
 8000544:	2203      	movs	r2, #3
 8000546:	0017      	movs	r7, r2
 8000548:	40b7      	lsls	r7, r6
 800054a:	43bc      	bics	r4, r7
      temp |= ((GPIO_Init->Mode & GPIO_MODE) << (position * 2u));
 800054c:	684f      	ldr	r7, [r1, #4]
 800054e:	403a      	ands	r2, r7
 8000550:	40b2      	lsls	r2, r6
 8000552:	4322      	orrs	r2, r4
      GPIOx->MODER = temp;
 8000554:	6002      	str	r2, [r0, #0]
      if((GPIO_Init->Mode & EXTI_MODE) != 0x00u)
 8000556:	684c      	ldr	r4, [r1, #4]
 8000558:	22c0      	movs	r2, #192	@ 0xc0
 800055a:	0292      	lsls	r2, r2, #10
 800055c:	4214      	tst	r4, r2
 800055e:	d0cb      	beq.n	80004f8 <HAL_GPIO_Init+0xb4>
        __HAL_RCC_SYSCFG_CLK_ENABLE();
 8000560:	4c14      	ldr	r4, [pc, #80]	@ (80005b4 <HAL_GPIO_Init+0x170>)
 8000562:	69a6      	ldr	r6, [r4, #24]
 8000564:	2201      	movs	r2, #1
 8000566:	4316      	orrs	r6, r2
 8000568:	61a6      	str	r6, [r4, #24]
 800056a:	69a4      	ldr	r4, [r4, #24]
 800056c:	4022      	ands	r2, r4
 800056e:	9201      	str	r2, [sp, #4]
 8000570:	9a01      	ldr	r2, [sp, #4]
        temp = SYSCFG->EXTICR[position >> 2u];
 8000572:	089a      	lsrs	r2, r3, #2
 8000574:	1c94      	adds	r4, r2, #2
 8000576:	00a4      	lsls	r4, r4, #2
 8000578:	4e0c      	ldr	r6, [pc, #48]	@ (80005ac <HAL_GPIO_Init+0x168>)
 800057a:	59a7      	ldr	r7, [r4, r6]
        temp &= ~(0x0FuL << (4u * (position & 0x03u)));
 800057c:	2403      	movs	r4, #3
 800057e:	401c      	ands	r4, r3
 8000580:	00a4      	lsls	r4, r4, #2
 8000582:	260f      	movs	r6, #15
 8000584:	40a6      	lsls	r6, r4
 8000586:	43b7      	bics	r7, r6
        temp |= (GPIO_GET_INDEX(GPIOx) << (4u * (position & 0x03u)));
 8000588:	2690      	movs	r6, #144	@ 0x90
 800058a:	05f6      	lsls	r6, r6, #23
 800058c:	42b0      	cmp	r0, r6
 800058e:	d082      	beq.n	8000496 <HAL_GPIO_Init+0x52>
 8000590:	4e09      	ldr	r6, [pc, #36]	@ (80005b8 <HAL_GPIO_Init+0x174>)
 8000592:	42b0      	cmp	r0, r6
 8000594:	d005      	beq.n	80005a2 <HAL_GPIO_Init+0x15e>
 8000596:	4e09      	ldr	r6, [pc, #36]	@ (80005bc <HAL_GPIO_Init+0x178>)
 8000598:	42b0      	cmp	r0, r6
 800059a:	d100      	bne.n	800059e <HAL_GPIO_Init+0x15a>
 800059c:	e779      	b.n	8000492 <HAL_GPIO_Init+0x4e>
 800059e:	2605      	movs	r6, #5
 80005a0:	e77a      	b.n	8000498 <HAL_GPIO_Init+0x54>
 80005a2:	2601      	movs	r6, #1
 80005a4:	e778      	b.n	8000498 <HAL_GPIO_Init+0x54>
  } 
}
 80005a6:	b003      	add	sp, #12
 80005a8:	bdf0      	pop	{r4, r5, r6, r7, pc}
 80005aa:	46c0      	nop			@ (mov r8, r8)
 80005ac:	40010000 	.word	0x40010000
 80005b0:	40010400 	.word	0x40010400
 80005b4:	40021000 	.word	0x40021000
 80005b8:	48000400 	.word	0x48000400
 80005bc:	48000800 	.word	0x48000800

080005c0 <HAL_MspInit>:
/* USER CODE END 0 */
/**
  * Initializes the Global MSP.
  */
void HAL_MspInit(void)
{
 80005c0:	b082      	sub	sp, #8

  /* USER CODE BEGIN MspInit 0 */

  /* USER CODE END MspInit 0 */

  __HAL_RCC_SYSCFG_CLK_ENABLE();
 80005c2:	4b0a      	ldr	r3, [pc, #40]	@ (80005ec <HAL_MspInit+0x2c>)
 80005c4:	6999      	ldr	r1, [r3, #24]
 80005c6:	2201      	movs	r2, #1
 80005c8:	4311      	orrs	r1, r2
 80005ca:	6199      	str	r1, [r3, #24]
 80005cc:	6999      	ldr	r1, [r3, #24]
 80005ce:	400a      	ands	r2, r1
 80005d0:	9200      	str	r2, [sp, #0]
 80005d2:	9a00      	ldr	r2, [sp, #0]
  __HAL_RCC_PWR_CLK_ENABLE();
 80005d4:	69da      	ldr	r2, [r3, #28]
 80005d6:	2180      	movs	r1, #128	@ 0x80
 80005d8:	0549      	lsls	r1, r1, #21
 80005da:	430a      	orrs	r2, r1
 80005dc:	61da      	str	r2, [r3, #28]
 80005de:	69db      	ldr	r3, [r3, #28]
 80005e0:	400b      	ands	r3, r1
 80005e2:	9301      	str	r3, [sp, #4]
 80005e4:	9b01      	ldr	r3, [sp, #4]
  /* System interrupt init*/

  /* USER CODE BEGIN MspInit 1 */

  /* USER CODE END MspInit 1 */
}
 80005e6:	b002      	add	sp, #8
 80005e8:	4770      	bx	lr
 80005ea:	46c0      	nop			@ (mov r8, r8)
 80005ec:	40021000 	.word	0x40021000

080005f0 <HAL_PCD_EP_DB_Receive>:
  * @param  wEPVal Last snapshot of EPRx register value taken in ISR
  * @retval HAL status
  */
static uint16_t HAL_PCD_EP_DB_Receive(PCD_HandleTypeDef *hpcd,
                                      PCD_EPTypeDef *ep, uint16_t wEPVal)
{
 80005f0:	b570      	push	{r4, r5, r6, lr}
  uint16_t count;

  /* Manage Buffer0 OUT */
  if ((wEPVal & USB_EP_DTOG_RX) != 0U)
 80005f2:	0453      	lsls	r3, r2, #17
 80005f4:	d53c      	bpl.n	8000670 <HAL_PCD_EP_DB_Receive+0x80>
  {
    /* Get count of received Data on buffer0 */
    count = (uint16_t)PCD_GET_EP_DBUF0_CNT(hpcd->Instance, ep->num);
 80005f6:	6804      	ldr	r4, [r0, #0]
 80005f8:	2350      	movs	r3, #80	@ 0x50
 80005fa:	5ae3      	ldrh	r3, [r4, r3]
 80005fc:	780d      	ldrb	r5, [r1, #0]
 80005fe:	00ee      	lsls	r6, r5, #3
 8000600:	199b      	adds	r3, r3, r6
 8000602:	191b      	adds	r3, r3, r4
 8000604:	4c38      	ldr	r4, [pc, #224]	@ (80006e8 <HAL_PCD_EP_DB_Receive+0xf8>)
 8000606:	46a4      	mov	ip, r4
 8000608:	4463      	add	r3, ip
 800060a:	881c      	ldrh	r4, [r3, #0]
 800060c:	05a4      	lsls	r4, r4, #22
 800060e:	0da4      	lsrs	r4, r4, #22

    if (ep->xfer_len >= count)
 8000610:	698b      	ldr	r3, [r1, #24]
 8000612:	42a3      	cmp	r3, r4
 8000614:	d322      	bcc.n	800065c <HAL_PCD_EP_DB_Receive+0x6c>
    {
      ep->xfer_len -= count;
 8000616:	1b1b      	subs	r3, r3, r4
 8000618:	618b      	str	r3, [r1, #24]
    else
    {
      ep->xfer_len = 0U;
    }

    if (ep->xfer_len == 0U)
 800061a:	698b      	ldr	r3, [r1, #24]
 800061c:	2b00      	cmp	r3, #0
 800061e:	d10c      	bne.n	800063a <HAL_PCD_EP_DB_Receive+0x4a>
    {
      /* set NAK to OUT endpoint since double buffer is enabled */
      PCD_SET_EP_RX_STATUS(hpcd->Instance, ep->num, USB_EP_RX_NAK);
 8000620:	6803      	ldr	r3, [r0, #0]
 8000622:	00ad      	lsls	r5, r5, #2
 8000624:	195d      	adds	r5, r3, r5
 8000626:	882b      	ldrh	r3, [r5, #0]
 8000628:	4e30      	ldr	r6, [pc, #192]	@ (80006ec <HAL_PCD_EP_DB_Receive+0xfc>)
 800062a:	4033      	ands	r3, r6
 800062c:	2680      	movs	r6, #128	@ 0x80
 800062e:	01b6      	lsls	r6, r6, #6
 8000630:	405e      	eors	r6, r3
 8000632:	4b2f      	ldr	r3, [pc, #188]	@ (80006f0 <HAL_PCD_EP_DB_Receive+0x100>)
 8000634:	4333      	orrs	r3, r6
 8000636:	b29b      	uxth	r3, r3
 8000638:	802b      	strh	r3, [r5, #0]
    }

    /* Check if Buffer1 is in blocked state which requires to toggle */
    if ((wEPVal & USB_EP_DTOG_TX) != 0U)
 800063a:	0652      	lsls	r2, r2, #25
 800063c:	d50a      	bpl.n	8000654 <HAL_PCD_EP_DB_Receive+0x64>
    {
      PCD_FREE_USER_BUFFER(hpcd->Instance, ep->num, 0U);
 800063e:	6802      	ldr	r2, [r0, #0]
 8000640:	780b      	ldrb	r3, [r1, #0]
 8000642:	009b      	lsls	r3, r3, #2
 8000644:	18d2      	adds	r2, r2, r3
 8000646:	8815      	ldrh	r5, [r2, #0]
 8000648:	4b2a      	ldr	r3, [pc, #168]	@ (80006f4 <HAL_PCD_EP_DB_Receive+0x104>)
 800064a:	401d      	ands	r5, r3
 800064c:	4b2a      	ldr	r3, [pc, #168]	@ (80006f8 <HAL_PCD_EP_DB_Receive+0x108>)
 800064e:	432b      	orrs	r3, r5
 8000650:	b29b      	uxth	r3, r3
 8000652:	8013      	strh	r3, [r2, #0]
    }

    if (count != 0U)
 8000654:	2c00      	cmp	r4, #0
 8000656:	d104      	bne.n	8000662 <HAL_PCD_EP_DB_Receive+0x72>
      USB_ReadPMA(hpcd->Instance, ep->xfer_buff, ep->pmaaddr1, count);
    }
  }

  return count;
}
 8000658:	0020      	movs	r0, r4
 800065a:	bd70      	pop	{r4, r5, r6, pc}
      ep->xfer_len = 0U;
 800065c:	2300      	movs	r3, #0
 800065e:	618b      	str	r3, [r1, #24]
 8000660:	e7db      	b.n	800061a <HAL_PCD_EP_DB_Receive+0x2a>
      USB_ReadPMA(hpcd->Instance, ep->xfer_buff, ep->pmaaddr0, count);
 8000662:	6800      	ldr	r0, [r0, #0]
 8000664:	890a      	ldrh	r2, [r1, #8]
 8000666:	6949      	ldr	r1, [r1, #20]
 8000668:	0023      	movs	r3, r4
 800066a:	f002 fa87 	bl	8002b7c <USB_ReadPMA>
 800066e:	e7f3      	b.n	8000658 <HAL_PCD_EP_DB_Receive+0x68>
    count = (uint16_t)PCD_GET_EP_DBUF1_CNT(hpcd->Instance, ep->num);
 8000670:	6804      	ldr	r4, [r0, #0]
 8000672:	2350      	movs	r3, #80	@ 0x50
 8000674:	5ae3      	ldrh	r3, [r4, r3]
 8000676:	780d      	ldrb	r5, [r1, #0]
 8000678:	00ee      	lsls	r6, r5, #3
 800067a:	199b      	adds	r3, r3, r6
 800067c:	191b      	adds	r3, r3, r4
 800067e:	4c1f      	ldr	r4, [pc, #124]	@ (80006fc <HAL_PCD_EP_DB_Receive+0x10c>)
 8000680:	46a4      	mov	ip, r4
 8000682:	4463      	add	r3, ip
 8000684:	881c      	ldrh	r4, [r3, #0]
 8000686:	05a4      	lsls	r4, r4, #22
 8000688:	0da4      	lsrs	r4, r4, #22
    if (ep->xfer_len >= count)
 800068a:	698b      	ldr	r3, [r1, #24]
 800068c:	42a3      	cmp	r3, r4
 800068e:	d327      	bcc.n	80006e0 <HAL_PCD_EP_DB_Receive+0xf0>
      ep->xfer_len -= count;
 8000690:	1b1b      	subs	r3, r3, r4
 8000692:	618b      	str	r3, [r1, #24]
    if (ep->xfer_len == 0U)
 8000694:	698b      	ldr	r3, [r1, #24]
 8000696:	2b00      	cmp	r3, #0
 8000698:	d10c      	bne.n	80006b4 <HAL_PCD_EP_DB_Receive+0xc4>
      PCD_SET_EP_RX_STATUS(hpcd->Instance, ep->num, USB_EP_RX_NAK);
 800069a:	6803      	ldr	r3, [r0, #0]
 800069c:	00ad      	lsls	r5, r5, #2
 800069e:	195d      	adds	r5, r3, r5
 80006a0:	882b      	ldrh	r3, [r5, #0]
 80006a2:	4e12      	ldr	r6, [pc, #72]	@ (80006ec <HAL_PCD_EP_DB_Receive+0xfc>)
 80006a4:	4033      	ands	r3, r6
 80006a6:	2680      	movs	r6, #128	@ 0x80
 80006a8:	01b6      	lsls	r6, r6, #6
 80006aa:	405e      	eors	r6, r3
 80006ac:	4b10      	ldr	r3, [pc, #64]	@ (80006f0 <HAL_PCD_EP_DB_Receive+0x100>)
 80006ae:	4333      	orrs	r3, r6
 80006b0:	b29b      	uxth	r3, r3
 80006b2:	802b      	strh	r3, [r5, #0]
    if ((wEPVal & USB_EP_DTOG_TX) == 0U)
 80006b4:	0652      	lsls	r2, r2, #25
 80006b6:	d40a      	bmi.n	80006ce <HAL_PCD_EP_DB_Receive+0xde>
      PCD_FREE_USER_BUFFER(hpcd->Instance, ep->num, 0U);
 80006b8:	6802      	ldr	r2, [r0, #0]
 80006ba:	780b      	ldrb	r3, [r1, #0]
 80006bc:	009b      	lsls	r3, r3, #2
 80006be:	18d2      	adds	r2, r2, r3
 80006c0:	8815      	ldrh	r5, [r2, #0]
 80006c2:	4b0c      	ldr	r3, [pc, #48]	@ (80006f4 <HAL_PCD_EP_DB_Receive+0x104>)
 80006c4:	401d      	ands	r5, r3
 80006c6:	4b0c      	ldr	r3, [pc, #48]	@ (80006f8 <HAL_PCD_EP_DB_Receive+0x108>)
 80006c8:	432b      	orrs	r3, r5
 80006ca:	b29b      	uxth	r3, r3
 80006cc:	8013      	strh	r3, [r2, #0]
    if (count != 0U)
 80006ce:	2c00      	cmp	r4, #0
 80006d0:	d0c2      	beq.n	8000658 <HAL_PCD_EP_DB_Receive+0x68>
      USB_ReadPMA(hpcd->Instance, ep->xfer_buff, ep->pmaaddr1, count);
 80006d2:	6800      	ldr	r0, [r0, #0]
 80006d4:	894a      	ldrh	r2, [r1, #10]
 80006d6:	6949      	ldr	r1, [r1, #20]
 80006d8:	0023      	movs	r3, r4
 80006da:	f002 fa4f 	bl	8002b7c <USB_ReadPMA>
 80006de:	e7bb      	b.n	8000658 <HAL_PCD_EP_DB_Receive+0x68>
      ep->xfer_len = 0U;
 80006e0:	2300      	movs	r3, #0
 80006e2:	618b      	str	r3, [r1, #24]
 80006e4:	e7d6      	b.n	8000694 <HAL_PCD_EP_DB_Receive+0xa4>
 80006e6:	46c0      	nop			@ (mov r8, r8)
 80006e8:	00000402 	.word	0x00000402
 80006ec:	ffffbf8f 	.word	0xffffbf8f
 80006f0:	ffff8080 	.word	0xffff8080
 80006f4:	ffff8f8f 	.word	0xffff8f8f
 80006f8:	ffff80c0 	.word	0xffff80c0
 80006fc:	00000406 	.word	0x00000406

08000700 <HAL_PCD_Init>:
{
 8000700:	b570      	push	{r4, r5, r6, lr}
 8000702:	1e04      	subs	r4, r0, #0
  if (hpcd == NULL)
 8000704:	d058      	beq.n	80007b8 <HAL_PCD_Init+0xb8>
  if (hpcd->State == HAL_PCD_STATE_RESET)
 8000706:	4b2d      	ldr	r3, [pc, #180]	@ (80007bc <HAL_PCD_Init+0xbc>)
 8000708:	5cc3      	ldrb	r3, [r0, r3]
 800070a:	2b00      	cmp	r3, #0
 800070c:	d007      	beq.n	800071e <HAL_PCD_Init+0x1e>
  hpcd->State = HAL_PCD_STATE_BUSY;
 800070e:	4b2b      	ldr	r3, [pc, #172]	@ (80007bc <HAL_PCD_Init+0xbc>)
 8000710:	2203      	movs	r2, #3
 8000712:	54e2      	strb	r2, [r4, r3]
  __HAL_PCD_DISABLE(hpcd);
 8000714:	6820      	ldr	r0, [r4, #0]
 8000716:	f001 fb95 	bl	8001e44 <USB_DisableGlobalInt>
  for (i = 0U; i < hpcd->Init.dev_endpoints; i++)
 800071a:	2200      	movs	r2, #0
 800071c:	e017      	b.n	800074e <HAL_PCD_Init+0x4e>
    hpcd->Lock = HAL_UNLOCKED;
 800071e:	23a4      	movs	r3, #164	@ 0xa4
 8000720:	009b      	lsls	r3, r3, #2
 8000722:	2200      	movs	r2, #0
 8000724:	54c2      	strb	r2, [r0, r3]
    HAL_PCD_MspInit(hpcd);
 8000726:	f002 fa75 	bl	8002c14 <HAL_PCD_MspInit>
 800072a:	e7f0      	b.n	800070e <HAL_PCD_Init+0xe>
    hpcd->IN_ep[i].is_in = 1U;
 800072c:	0093      	lsls	r3, r2, #2
 800072e:	189b      	adds	r3, r3, r2
 8000730:	00db      	lsls	r3, r3, #3
 8000732:	18e3      	adds	r3, r4, r3
 8000734:	2101      	movs	r1, #1
 8000736:	7459      	strb	r1, [r3, #17]
    hpcd->IN_ep[i].num = i;
 8000738:	741a      	strb	r2, [r3, #16]
    hpcd->IN_ep[i].type = EP_TYPE_CTRL;
 800073a:	2100      	movs	r1, #0
 800073c:	74d9      	strb	r1, [r3, #19]
    hpcd->IN_ep[i].maxpacket = 0U;
 800073e:	6219      	str	r1, [r3, #32]
    hpcd->IN_ep[i].xfer_buff = 0U;
 8000740:	6259      	str	r1, [r3, #36]	@ 0x24
    hpcd->IN_ep[i].xfer_len = 0U;
 8000742:	3201      	adds	r2, #1
 8000744:	0093      	lsls	r3, r2, #2
 8000746:	189b      	adds	r3, r3, r2
 8000748:	00db      	lsls	r3, r3, #3
 800074a:	5119      	str	r1, [r3, r4]
  for (i = 0U; i < hpcd->Init.dev_endpoints; i++)
 800074c:	b2d2      	uxtb	r2, r2
 800074e:	7920      	ldrb	r0, [r4, #4]
 8000750:	4290      	cmp	r0, r2
 8000752:	d8eb      	bhi.n	800072c <HAL_PCD_Init+0x2c>
  for (i = 0U; i < hpcd->Init.dev_endpoints; i++)
 8000754:	2100      	movs	r1, #0
 8000756:	e019      	b.n	800078c <HAL_PCD_Init+0x8c>
    hpcd->OUT_ep[i].is_in = 0U;
 8000758:	008a      	lsls	r2, r1, #2
 800075a:	1853      	adds	r3, r2, r1
 800075c:	00db      	lsls	r3, r3, #3
 800075e:	18e3      	adds	r3, r4, r3
 8000760:	001e      	movs	r6, r3
 8000762:	3652      	adds	r6, #82	@ 0x52
 8000764:	36ff      	adds	r6, #255	@ 0xff
 8000766:	2500      	movs	r5, #0
 8000768:	7035      	strb	r5, [r6, #0]
    hpcd->OUT_ep[i].num = i;
 800076a:	3e01      	subs	r6, #1
 800076c:	7031      	strb	r1, [r6, #0]
    hpcd->OUT_ep[i].type = EP_TYPE_CTRL;
 800076e:	3603      	adds	r6, #3
 8000770:	7035      	strb	r5, [r6, #0]
    hpcd->OUT_ep[i].maxpacket = 0U;
 8000772:	360d      	adds	r6, #13
 8000774:	6035      	str	r5, [r6, #0]
    hpcd->OUT_ep[i].xfer_buff = 0U;
 8000776:	3365      	adds	r3, #101	@ 0x65
 8000778:	33ff      	adds	r3, #255	@ 0xff
 800077a:	601d      	str	r5, [r3, #0]
    hpcd->OUT_ep[i].xfer_len = 0U;
 800077c:	1852      	adds	r2, r2, r1
 800077e:	00d2      	lsls	r2, r2, #3
 8000780:	18a2      	adds	r2, r4, r2
 8000782:	3269      	adds	r2, #105	@ 0x69
 8000784:	32ff      	adds	r2, #255	@ 0xff
 8000786:	6015      	str	r5, [r2, #0]
  for (i = 0U; i < hpcd->Init.dev_endpoints; i++)
 8000788:	3101      	adds	r1, #1
 800078a:	b2c9      	uxtb	r1, r1
 800078c:	4288      	cmp	r0, r1
 800078e:	d8e3      	bhi.n	8000758 <HAL_PCD_Init+0x58>
  (void)USB_DevInit(hpcd->Instance, hpcd->Init);
 8000790:	6820      	ldr	r0, [r4, #0]
 8000792:	6861      	ldr	r1, [r4, #4]
 8000794:	68a2      	ldr	r2, [r4, #8]
 8000796:	f001 fb5f 	bl	8001e58 <USB_DevInit>
  hpcd->USB_Address = 0U;
 800079a:	2300      	movs	r3, #0
 800079c:	7323      	strb	r3, [r4, #12]
  hpcd->State = HAL_PCD_STATE_READY;
 800079e:	4b07      	ldr	r3, [pc, #28]	@ (80007bc <HAL_PCD_Init+0xbc>)
 80007a0:	2201      	movs	r2, #1
 80007a2:	54e2      	strb	r2, [r4, r3]
  if (hpcd->Init.lpm_enable == 1U)
 80007a4:	7aa3      	ldrb	r3, [r4, #10]
 80007a6:	2b01      	cmp	r3, #1
 80007a8:	d001      	beq.n	80007ae <HAL_PCD_Init+0xae>
  return HAL_OK;
 80007aa:	2000      	movs	r0, #0
}
 80007ac:	bd70      	pop	{r4, r5, r6, pc}
    (void)HAL_PCDEx_ActivateLPM(hpcd);
 80007ae:	0020      	movs	r0, r4
 80007b0:	f000 fef4 	bl	800159c <HAL_PCDEx_ActivateLPM>
  return HAL_OK;
 80007b4:	2000      	movs	r0, #0
 80007b6:	e7f9      	b.n	80007ac <HAL_PCD_Init+0xac>
    return HAL_ERROR;
 80007b8:	2001      	movs	r0, #1
 80007ba:	e7f7      	b.n	80007ac <HAL_PCD_Init+0xac>
 80007bc:	00000291 	.word	0x00000291

080007c0 <HAL_PCD_Start>:
{
 80007c0:	b570      	push	{r4, r5, r6, lr}
 80007c2:	0004      	movs	r4, r0
  __HAL_LOCK(hpcd);
 80007c4:	23a4      	movs	r3, #164	@ 0xa4
 80007c6:	009b      	lsls	r3, r3, #2
 80007c8:	5cc3      	ldrb	r3, [r0, r3]
 80007ca:	2b01      	cmp	r3, #1
 80007cc:	d00d      	beq.n	80007ea <HAL_PCD_Start+0x2a>
 80007ce:	25a4      	movs	r5, #164	@ 0xa4
 80007d0:	00ad      	lsls	r5, r5, #2
 80007d2:	2301      	movs	r3, #1
 80007d4:	5543      	strb	r3, [r0, r5]
  __HAL_PCD_ENABLE(hpcd);
 80007d6:	6800      	ldr	r0, [r0, #0]
 80007d8:	f001 fb2a 	bl	8001e30 <USB_EnableGlobalInt>
  (void)USB_DevConnect(hpcd->Instance);
 80007dc:	6820      	ldr	r0, [r4, #0]
 80007de:	f001 fe11 	bl	8002404 <USB_DevConnect>
  __HAL_UNLOCK(hpcd);
 80007e2:	2300      	movs	r3, #0
 80007e4:	5563      	strb	r3, [r4, r5]
  return HAL_OK;
 80007e6:	2000      	movs	r0, #0
}
 80007e8:	bd70      	pop	{r4, r5, r6, pc}
  __HAL_LOCK(hpcd);
 80007ea:	2002      	movs	r0, #2
 80007ec:	e7fc      	b.n	80007e8 <HAL_PCD_Start+0x28>
	...

080007f0 <HAL_PCD_EP_DB_Transmit>:
  * @param  wEPVal Last snapshot of EPRx register value taken in ISR
  * @retval HAL status
  */
static HAL_StatusTypeDef HAL_PCD_EP_DB_Transmit(PCD_HandleTypeDef *hpcd,
                                                PCD_EPTypeDef *ep, uint16_t wEPVal)
{
 80007f0:	b570      	push	{r4, r5, r6, lr}
 80007f2:	0005      	movs	r5, r0
 80007f4:	000c      	movs	r4, r1
 80007f6:	0016      	movs	r6, r2
  uint32_t len;
  uint16_t TxPctSize;

  /* Data Buffer0 ACK received */
  if ((wEPVal & USB_EP_DTOG_TX) != 0U)
 80007f8:	0653      	lsls	r3, r2, #25
 80007fa:	d400      	bmi.n	80007fe <HAL_PCD_EP_DB_Transmit+0xe>
 80007fc:	e0ee      	b.n	80009dc <HAL_PCD_EP_DB_Transmit+0x1ec>
  {
    /* multi-packet on the NON control IN endpoint */
    TxPctSize = (uint16_t)PCD_GET_EP_DBUF0_CNT(hpcd->Instance, ep->num);
 80007fe:	6802      	ldr	r2, [r0, #0]
 8000800:	2350      	movs	r3, #80	@ 0x50
 8000802:	5ad3      	ldrh	r3, [r2, r3]
 8000804:	7809      	ldrb	r1, [r1, #0]
 8000806:	00c8      	lsls	r0, r1, #3
 8000808:	181b      	adds	r3, r3, r0
 800080a:	189b      	adds	r3, r3, r2
 800080c:	4aab      	ldr	r2, [pc, #684]	@ (8000abc <HAL_PCD_EP_DB_Transmit+0x2cc>)
 800080e:	4694      	mov	ip, r2
 8000810:	4463      	add	r3, ip
 8000812:	881a      	ldrh	r2, [r3, #0]
 8000814:	0592      	lsls	r2, r2, #22
 8000816:	0d92      	lsrs	r2, r2, #22

    if (ep->xfer_len > TxPctSize)
 8000818:	69a3      	ldr	r3, [r4, #24]
 800081a:	4293      	cmp	r3, r2
 800081c:	d940      	bls.n	80008a0 <HAL_PCD_EP_DB_Transmit+0xb0>
    {
      ep->xfer_len -= TxPctSize;
 800081e:	1a9b      	subs	r3, r3, r2
 8000820:	61a3      	str	r3, [r4, #24]
    {
      ep->xfer_len = 0U;
    }

    /* Transfer is completed */
    if (ep->xfer_len == 0U)
 8000822:	69a3      	ldr	r3, [r4, #24]
 8000824:	2b00      	cmp	r3, #0
 8000826:	d159      	bne.n	80008dc <HAL_PCD_EP_DB_Transmit+0xec>
    {
      PCD_SET_EP_DBUF0_CNT(hpcd->Instance, ep->num, ep->is_in, 0U);
 8000828:	7863      	ldrb	r3, [r4, #1]
 800082a:	2b00      	cmp	r3, #0
 800082c:	d13b      	bne.n	80008a6 <HAL_PCD_EP_DB_Transmit+0xb6>
 800082e:	682b      	ldr	r3, [r5, #0]
 8000830:	2250      	movs	r2, #80	@ 0x50
 8000832:	5a9a      	ldrh	r2, [r3, r2]
 8000834:	189b      	adds	r3, r3, r2
 8000836:	18c3      	adds	r3, r0, r3
 8000838:	4aa0      	ldr	r2, [pc, #640]	@ (8000abc <HAL_PCD_EP_DB_Transmit+0x2cc>)
 800083a:	4694      	mov	ip, r2
 800083c:	4463      	add	r3, ip
 800083e:	881a      	ldrh	r2, [r3, #0]
 8000840:	0592      	lsls	r2, r2, #22
 8000842:	0d92      	lsrs	r2, r2, #22
 8000844:	801a      	strh	r2, [r3, #0]
 8000846:	881a      	ldrh	r2, [r3, #0]
 8000848:	499d      	ldr	r1, [pc, #628]	@ (8000ac0 <HAL_PCD_EP_DB_Transmit+0x2d0>)
 800084a:	430a      	orrs	r2, r1
 800084c:	b292      	uxth	r2, r2
 800084e:	801a      	strh	r2, [r3, #0]
      PCD_SET_EP_DBUF1_CNT(hpcd->Instance, ep->num, ep->is_in, 0U);
 8000850:	682b      	ldr	r3, [r5, #0]
 8000852:	7862      	ldrb	r2, [r4, #1]
 8000854:	2a00      	cmp	r2, #0
 8000856:	d133      	bne.n	80008c0 <HAL_PCD_EP_DB_Transmit+0xd0>
 8000858:	3250      	adds	r2, #80	@ 0x50
 800085a:	5a9a      	ldrh	r2, [r3, r2]
 800085c:	189a      	adds	r2, r3, r2
 800085e:	7823      	ldrb	r3, [r4, #0]
 8000860:	00db      	lsls	r3, r3, #3
 8000862:	189b      	adds	r3, r3, r2
 8000864:	4a97      	ldr	r2, [pc, #604]	@ (8000ac4 <HAL_PCD_EP_DB_Transmit+0x2d4>)
 8000866:	4694      	mov	ip, r2
 8000868:	4463      	add	r3, ip
 800086a:	881a      	ldrh	r2, [r3, #0]
 800086c:	0592      	lsls	r2, r2, #22
 800086e:	0d92      	lsrs	r2, r2, #22
 8000870:	801a      	strh	r2, [r3, #0]
 8000872:	881a      	ldrh	r2, [r3, #0]
 8000874:	4992      	ldr	r1, [pc, #584]	@ (8000ac0 <HAL_PCD_EP_DB_Transmit+0x2d0>)
 8000876:	430a      	orrs	r2, r1
 8000878:	b292      	uxth	r2, r2
 800087a:	801a      	strh	r2, [r3, #0]

      /* TX COMPLETE */
#if (USE_HAL_PCD_REGISTER_CALLBACKS == 1U)
      hpcd->DataInStageCallback(hpcd, ep->num);
#else
      HAL_PCD_DataInStageCallback(hpcd, ep->num);
 800087c:	7821      	ldrb	r1, [r4, #0]
 800087e:	0028      	movs	r0, r5
 8000880:	f002 fa02 	bl	8002c88 <HAL_PCD_DataInStageCallback>
#endif /* USE_HAL_PCD_REGISTER_CALLBACKS */

      if ((wEPVal & USB_EP_DTOG_RX) != 0U)
 8000884:	0476      	lsls	r6, r6, #17
 8000886:	d539      	bpl.n	80008fc <HAL_PCD_EP_DB_Transmit+0x10c>
      {
        PCD_FREE_USER_BUFFER(hpcd->Instance, ep->num, 1U);
 8000888:	682a      	ldr	r2, [r5, #0]
 800088a:	7823      	ldrb	r3, [r4, #0]
 800088c:	009b      	lsls	r3, r3, #2
 800088e:	18d2      	adds	r2, r2, r3
 8000890:	8811      	ldrh	r1, [r2, #0]
 8000892:	4b8d      	ldr	r3, [pc, #564]	@ (8000ac8 <HAL_PCD_EP_DB_Transmit+0x2d8>)
 8000894:	4019      	ands	r1, r3
 8000896:	4b8d      	ldr	r3, [pc, #564]	@ (8000acc <HAL_PCD_EP_DB_Transmit+0x2dc>)
 8000898:	430b      	orrs	r3, r1
 800089a:	b29b      	uxth	r3, r3
 800089c:	8013      	strh	r3, [r2, #0]
 800089e:	e02d      	b.n	80008fc <HAL_PCD_EP_DB_Transmit+0x10c>
      ep->xfer_len = 0U;
 80008a0:	2300      	movs	r3, #0
 80008a2:	61a3      	str	r3, [r4, #24]
 80008a4:	e7bd      	b.n	8000822 <HAL_PCD_EP_DB_Transmit+0x32>
      PCD_SET_EP_DBUF0_CNT(hpcd->Instance, ep->num, ep->is_in, 0U);
 80008a6:	2b01      	cmp	r3, #1
 80008a8:	d1d2      	bne.n	8000850 <HAL_PCD_EP_DB_Transmit+0x60>
 80008aa:	682b      	ldr	r3, [r5, #0]
 80008ac:	2250      	movs	r2, #80	@ 0x50
 80008ae:	5a9a      	ldrh	r2, [r3, r2]
 80008b0:	189b      	adds	r3, r3, r2
 80008b2:	18c0      	adds	r0, r0, r3
 80008b4:	4b81      	ldr	r3, [pc, #516]	@ (8000abc <HAL_PCD_EP_DB_Transmit+0x2cc>)
 80008b6:	469c      	mov	ip, r3
 80008b8:	4460      	add	r0, ip
 80008ba:	2300      	movs	r3, #0
 80008bc:	8003      	strh	r3, [r0, #0]
 80008be:	e7c7      	b.n	8000850 <HAL_PCD_EP_DB_Transmit+0x60>
      PCD_SET_EP_DBUF1_CNT(hpcd->Instance, ep->num, ep->is_in, 0U);
 80008c0:	2a01      	cmp	r2, #1
 80008c2:	d1db      	bne.n	800087c <HAL_PCD_EP_DB_Transmit+0x8c>
 80008c4:	324f      	adds	r2, #79	@ 0x4f
 80008c6:	5a9a      	ldrh	r2, [r3, r2]
 80008c8:	189b      	adds	r3, r3, r2
 80008ca:	7822      	ldrb	r2, [r4, #0]
 80008cc:	00d2      	lsls	r2, r2, #3
 80008ce:	18d3      	adds	r3, r2, r3
 80008d0:	4a7c      	ldr	r2, [pc, #496]	@ (8000ac4 <HAL_PCD_EP_DB_Transmit+0x2d4>)
 80008d2:	4694      	mov	ip, r2
 80008d4:	4463      	add	r3, ip
 80008d6:	2200      	movs	r2, #0
 80008d8:	801a      	strh	r2, [r3, #0]
 80008da:	e7cf      	b.n	800087c <HAL_PCD_EP_DB_Transmit+0x8c>
      }
    }
    else /* Transfer is not yet Done */
    {
      /* need to Free USB Buff */
      if ((wEPVal & USB_EP_DTOG_RX) != 0U)
 80008dc:	0476      	lsls	r6, r6, #17
 80008de:	d509      	bpl.n	80008f4 <HAL_PCD_EP_DB_Transmit+0x104>
      {
        PCD_FREE_USER_BUFFER(hpcd->Instance, ep->num, 1U);
 80008e0:	682b      	ldr	r3, [r5, #0]
 80008e2:	0089      	lsls	r1, r1, #2
 80008e4:	1859      	adds	r1, r3, r1
 80008e6:	8808      	ldrh	r0, [r1, #0]
 80008e8:	4b77      	ldr	r3, [pc, #476]	@ (8000ac8 <HAL_PCD_EP_DB_Transmit+0x2d8>)
 80008ea:	4018      	ands	r0, r3
 80008ec:	4b77      	ldr	r3, [pc, #476]	@ (8000acc <HAL_PCD_EP_DB_Transmit+0x2dc>)
 80008ee:	4303      	orrs	r3, r0
 80008f0:	b29b      	uxth	r3, r3
 80008f2:	800b      	strh	r3, [r1, #0]
      }

      /* Still there is data to Fill in the next Buffer */
      if (ep->xfer_fill_db == 1U)
 80008f4:	2324      	movs	r3, #36	@ 0x24
 80008f6:	5ce3      	ldrb	r3, [r4, r3]
 80008f8:	2b01      	cmp	r3, #1
 80008fa:	d00f      	beq.n	800091c <HAL_PCD_EP_DB_Transmit+0x12c>
      }
    }
  }

  /*enable endpoint IN*/
  PCD_SET_EP_TX_STATUS(hpcd->Instance, ep->num, USB_EP_TX_VALID);
 80008fc:	6829      	ldr	r1, [r5, #0]
 80008fe:	7823      	ldrb	r3, [r4, #0]
 8000900:	009b      	lsls	r3, r3, #2
 8000902:	18c9      	adds	r1, r1, r3
 8000904:	880b      	ldrh	r3, [r1, #0]
 8000906:	4a72      	ldr	r2, [pc, #456]	@ (8000ad0 <HAL_PCD_EP_DB_Transmit+0x2e0>)
 8000908:	4013      	ands	r3, r2
 800090a:	2230      	movs	r2, #48	@ 0x30
 800090c:	4053      	eors	r3, r2
 800090e:	b29b      	uxth	r3, r3
 8000910:	4a70      	ldr	r2, [pc, #448]	@ (8000ad4 <HAL_PCD_EP_DB_Transmit+0x2e4>)
 8000912:	4313      	orrs	r3, r2
 8000914:	b29b      	uxth	r3, r3
 8000916:	800b      	strh	r3, [r1, #0]

  return HAL_OK;
}
 8000918:	2000      	movs	r0, #0
 800091a:	bd70      	pop	{r4, r5, r6, pc}
        ep->xfer_buff += TxPctSize;
 800091c:	6963      	ldr	r3, [r4, #20]
 800091e:	189b      	adds	r3, r3, r2
 8000920:	6163      	str	r3, [r4, #20]
        ep->xfer_count += TxPctSize;
 8000922:	69e3      	ldr	r3, [r4, #28]
 8000924:	18d3      	adds	r3, r2, r3
 8000926:	61e3      	str	r3, [r4, #28]
        if (ep->xfer_len_db >= ep->maxpacket)
 8000928:	6a21      	ldr	r1, [r4, #32]
 800092a:	6923      	ldr	r3, [r4, #16]
 800092c:	4299      	cmp	r1, r3
 800092e:	d31a      	bcc.n	8000966 <HAL_PCD_EP_DB_Transmit+0x176>
          ep->xfer_len_db -= len;
 8000930:	1ac9      	subs	r1, r1, r3
 8000932:	6221      	str	r1, [r4, #32]
        PCD_SET_EP_DBUF0_CNT(hpcd->Instance, ep->num, ep->is_in, len);
 8000934:	7862      	ldrb	r2, [r4, #1]
 8000936:	2a00      	cmp	r2, #0
 8000938:	d13a      	bne.n	80009b0 <HAL_PCD_EP_DB_Transmit+0x1c0>
 800093a:	682a      	ldr	r2, [r5, #0]
 800093c:	2150      	movs	r1, #80	@ 0x50
 800093e:	5a51      	ldrh	r1, [r2, r1]
 8000940:	1851      	adds	r1, r2, r1
 8000942:	7822      	ldrb	r2, [r4, #0]
 8000944:	00d2      	lsls	r2, r2, #3
 8000946:	1852      	adds	r2, r2, r1
 8000948:	495c      	ldr	r1, [pc, #368]	@ (8000abc <HAL_PCD_EP_DB_Transmit+0x2cc>)
 800094a:	468c      	mov	ip, r1
 800094c:	4462      	add	r2, ip
 800094e:	8811      	ldrh	r1, [r2, #0]
 8000950:	0589      	lsls	r1, r1, #22
 8000952:	0d89      	lsrs	r1, r1, #22
 8000954:	8011      	strh	r1, [r2, #0]
 8000956:	2b00      	cmp	r3, #0
 8000958:	d111      	bne.n	800097e <HAL_PCD_EP_DB_Transmit+0x18e>
 800095a:	8811      	ldrh	r1, [r2, #0]
 800095c:	4858      	ldr	r0, [pc, #352]	@ (8000ac0 <HAL_PCD_EP_DB_Transmit+0x2d0>)
 800095e:	4301      	orrs	r1, r0
 8000960:	b289      	uxth	r1, r1
 8000962:	8011      	strh	r1, [r2, #0]
 8000964:	e026      	b.n	80009b4 <HAL_PCD_EP_DB_Transmit+0x1c4>
        else if (ep->xfer_len_db == 0U)
 8000966:	2900      	cmp	r1, #0
 8000968:	d103      	bne.n	8000972 <HAL_PCD_EP_DB_Transmit+0x182>
          ep->xfer_fill_db = 0U;
 800096a:	2324      	movs	r3, #36	@ 0x24
 800096c:	54e1      	strb	r1, [r4, r3]
          len = TxPctSize;
 800096e:	0013      	movs	r3, r2
 8000970:	e7e0      	b.n	8000934 <HAL_PCD_EP_DB_Transmit+0x144>
          ep->xfer_fill_db = 0U;
 8000972:	2300      	movs	r3, #0
 8000974:	2224      	movs	r2, #36	@ 0x24
 8000976:	54a3      	strb	r3, [r4, r2]
          ep->xfer_len_db = 0U;
 8000978:	6223      	str	r3, [r4, #32]
          len = ep->xfer_len_db;
 800097a:	000b      	movs	r3, r1
 800097c:	e7da      	b.n	8000934 <HAL_PCD_EP_DB_Transmit+0x144>
        PCD_SET_EP_DBUF0_CNT(hpcd->Instance, ep->num, ep->is_in, len);
 800097e:	2b3e      	cmp	r3, #62	@ 0x3e
 8000980:	d809      	bhi.n	8000996 <HAL_PCD_EP_DB_Transmit+0x1a6>
 8000982:	0859      	lsrs	r1, r3, #1
 8000984:	07d8      	lsls	r0, r3, #31
 8000986:	d500      	bpl.n	800098a <HAL_PCD_EP_DB_Transmit+0x19a>
 8000988:	3101      	adds	r1, #1
 800098a:	8810      	ldrh	r0, [r2, #0]
 800098c:	0289      	lsls	r1, r1, #10
 800098e:	b289      	uxth	r1, r1
 8000990:	4301      	orrs	r1, r0
 8000992:	8011      	strh	r1, [r2, #0]
 8000994:	e00e      	b.n	80009b4 <HAL_PCD_EP_DB_Transmit+0x1c4>
 8000996:	0959      	lsrs	r1, r3, #5
 8000998:	06d8      	lsls	r0, r3, #27
 800099a:	d100      	bne.n	800099e <HAL_PCD_EP_DB_Transmit+0x1ae>
 800099c:	3901      	subs	r1, #1
 800099e:	8810      	ldrh	r0, [r2, #0]
 80009a0:	0289      	lsls	r1, r1, #10
 80009a2:	b289      	uxth	r1, r1
 80009a4:	4308      	orrs	r0, r1
 80009a6:	4946      	ldr	r1, [pc, #280]	@ (8000ac0 <HAL_PCD_EP_DB_Transmit+0x2d0>)
 80009a8:	4301      	orrs	r1, r0
 80009aa:	b289      	uxth	r1, r1
 80009ac:	8011      	strh	r1, [r2, #0]
 80009ae:	e001      	b.n	80009b4 <HAL_PCD_EP_DB_Transmit+0x1c4>
 80009b0:	2a01      	cmp	r2, #1
 80009b2:	d006      	beq.n	80009c2 <HAL_PCD_EP_DB_Transmit+0x1d2>
        USB_WritePMA(hpcd->Instance, ep->xfer_buff,  ep->pmaaddr0, (uint16_t)len);
 80009b4:	6828      	ldr	r0, [r5, #0]
 80009b6:	b29b      	uxth	r3, r3
 80009b8:	8922      	ldrh	r2, [r4, #8]
 80009ba:	6961      	ldr	r1, [r4, #20]
 80009bc:	f001 fd30 	bl	8002420 <USB_WritePMA>
 80009c0:	e79c      	b.n	80008fc <HAL_PCD_EP_DB_Transmit+0x10c>
        PCD_SET_EP_DBUF0_CNT(hpcd->Instance, ep->num, ep->is_in, len);
 80009c2:	682a      	ldr	r2, [r5, #0]
 80009c4:	2150      	movs	r1, #80	@ 0x50
 80009c6:	5a51      	ldrh	r1, [r2, r1]
 80009c8:	1851      	adds	r1, r2, r1
 80009ca:	7822      	ldrb	r2, [r4, #0]
 80009cc:	00d2      	lsls	r2, r2, #3
 80009ce:	1852      	adds	r2, r2, r1
 80009d0:	493a      	ldr	r1, [pc, #232]	@ (8000abc <HAL_PCD_EP_DB_Transmit+0x2cc>)
 80009d2:	468c      	mov	ip, r1
 80009d4:	4462      	add	r2, ip
 80009d6:	b299      	uxth	r1, r3
 80009d8:	8011      	strh	r1, [r2, #0]
 80009da:	e7eb      	b.n	80009b4 <HAL_PCD_EP_DB_Transmit+0x1c4>
    TxPctSize = (uint16_t)PCD_GET_EP_DBUF1_CNT(hpcd->Instance, ep->num);
 80009dc:	6802      	ldr	r2, [r0, #0]
 80009de:	2350      	movs	r3, #80	@ 0x50
 80009e0:	5ad3      	ldrh	r3, [r2, r3]
 80009e2:	7809      	ldrb	r1, [r1, #0]
 80009e4:	00c8      	lsls	r0, r1, #3
 80009e6:	181b      	adds	r3, r3, r0
 80009e8:	189b      	adds	r3, r3, r2
 80009ea:	4a36      	ldr	r2, [pc, #216]	@ (8000ac4 <HAL_PCD_EP_DB_Transmit+0x2d4>)
 80009ec:	4694      	mov	ip, r2
 80009ee:	4463      	add	r3, ip
 80009f0:	881a      	ldrh	r2, [r3, #0]
 80009f2:	0592      	lsls	r2, r2, #22
 80009f4:	0d92      	lsrs	r2, r2, #22
    if (ep->xfer_len >= TxPctSize)
 80009f6:	69a3      	ldr	r3, [r4, #24]
 80009f8:	4293      	cmp	r3, r2
 80009fa:	d341      	bcc.n	8000a80 <HAL_PCD_EP_DB_Transmit+0x290>
      ep->xfer_len -= TxPctSize;
 80009fc:	1a9b      	subs	r3, r3, r2
 80009fe:	61a3      	str	r3, [r4, #24]
    if (ep->xfer_len == 0U)
 8000a00:	69a3      	ldr	r3, [r4, #24]
 8000a02:	2b00      	cmp	r3, #0
 8000a04:	d168      	bne.n	8000ad8 <HAL_PCD_EP_DB_Transmit+0x2e8>
      PCD_SET_EP_DBUF0_CNT(hpcd->Instance, ep->num, ep->is_in, 0U);
 8000a06:	7863      	ldrb	r3, [r4, #1]
 8000a08:	2b00      	cmp	r3, #0
 8000a0a:	d13c      	bne.n	8000a86 <HAL_PCD_EP_DB_Transmit+0x296>
 8000a0c:	682b      	ldr	r3, [r5, #0]
 8000a0e:	2250      	movs	r2, #80	@ 0x50
 8000a10:	5a9a      	ldrh	r2, [r3, r2]
 8000a12:	189b      	adds	r3, r3, r2
 8000a14:	181b      	adds	r3, r3, r0
 8000a16:	4a29      	ldr	r2, [pc, #164]	@ (8000abc <HAL_PCD_EP_DB_Transmit+0x2cc>)
 8000a18:	4694      	mov	ip, r2
 8000a1a:	4463      	add	r3, ip
 8000a1c:	881a      	ldrh	r2, [r3, #0]
 8000a1e:	0592      	lsls	r2, r2, #22
 8000a20:	0d92      	lsrs	r2, r2, #22
 8000a22:	801a      	strh	r2, [r3, #0]
 8000a24:	881a      	ldrh	r2, [r3, #0]
 8000a26:	4926      	ldr	r1, [pc, #152]	@ (8000ac0 <HAL_PCD_EP_DB_Transmit+0x2d0>)
 8000a28:	430a      	orrs	r2, r1
 8000a2a:	b292      	uxth	r2, r2
 8000a2c:	801a      	strh	r2, [r3, #0]
      PCD_SET_EP_DBUF1_CNT(hpcd->Instance, ep->num, ep->is_in, 0U);
 8000a2e:	682b      	ldr	r3, [r5, #0]
 8000a30:	7862      	ldrb	r2, [r4, #1]
 8000a32:	2a00      	cmp	r2, #0
 8000a34:	d134      	bne.n	8000aa0 <HAL_PCD_EP_DB_Transmit+0x2b0>
 8000a36:	3250      	adds	r2, #80	@ 0x50
 8000a38:	5a9a      	ldrh	r2, [r3, r2]
 8000a3a:	189b      	adds	r3, r3, r2
 8000a3c:	7822      	ldrb	r2, [r4, #0]
 8000a3e:	00d2      	lsls	r2, r2, #3
 8000a40:	189b      	adds	r3, r3, r2
 8000a42:	4a20      	ldr	r2, [pc, #128]	@ (8000ac4 <HAL_PCD_EP_DB_Transmit+0x2d4>)
 8000a44:	4694      	mov	ip, r2
 8000a46:	4463      	add	r3, ip
 8000a48:	881a      	ldrh	r2, [r3, #0]
 8000a4a:	0592      	lsls	r2, r2, #22
 8000a4c:	0d92      	lsrs	r2, r2, #22
 8000a4e:	801a      	strh	r2, [r3, #0]
 8000a50:	881a      	ldrh	r2, [r3, #0]
 8000a52:	491b      	ldr	r1, [pc, #108]	@ (8000ac0 <HAL_PCD_EP_DB_Transmit+0x2d0>)
 8000a54:	430a      	orrs	r2, r1
 8000a56:	b292      	uxth	r2, r2
 8000a58:	801a      	strh	r2, [r3, #0]
      HAL_PCD_DataInStageCallback(hpcd, ep->num);
 8000a5a:	7821      	ldrb	r1, [r4, #0]
 8000a5c:	0028      	movs	r0, r5
 8000a5e:	f002 f913 	bl	8002c88 <HAL_PCD_DataInStageCallback>
      if ((wEPVal & USB_EP_DTOG_RX) == 0U)
 8000a62:	0476      	lsls	r6, r6, #17
 8000a64:	d500      	bpl.n	8000a68 <HAL_PCD_EP_DB_Transmit+0x278>
 8000a66:	e749      	b.n	80008fc <HAL_PCD_EP_DB_Transmit+0x10c>
        PCD_FREE_USER_BUFFER(hpcd->Instance, ep->num, 1U);
 8000a68:	682a      	ldr	r2, [r5, #0]
 8000a6a:	7823      	ldrb	r3, [r4, #0]
 8000a6c:	009b      	lsls	r3, r3, #2
 8000a6e:	18d2      	adds	r2, r2, r3
 8000a70:	8811      	ldrh	r1, [r2, #0]
 8000a72:	4b15      	ldr	r3, [pc, #84]	@ (8000ac8 <HAL_PCD_EP_DB_Transmit+0x2d8>)
 8000a74:	4019      	ands	r1, r3
 8000a76:	4b15      	ldr	r3, [pc, #84]	@ (8000acc <HAL_PCD_EP_DB_Transmit+0x2dc>)
 8000a78:	430b      	orrs	r3, r1
 8000a7a:	b29b      	uxth	r3, r3
 8000a7c:	8013      	strh	r3, [r2, #0]
 8000a7e:	e73d      	b.n	80008fc <HAL_PCD_EP_DB_Transmit+0x10c>
      ep->xfer_len = 0U;
 8000a80:	2300      	movs	r3, #0
 8000a82:	61a3      	str	r3, [r4, #24]
 8000a84:	e7bc      	b.n	8000a00 <HAL_PCD_EP_DB_Transmit+0x210>
      PCD_SET_EP_DBUF0_CNT(hpcd->Instance, ep->num, ep->is_in, 0U);
 8000a86:	2b01      	cmp	r3, #1
 8000a88:	d1d1      	bne.n	8000a2e <HAL_PCD_EP_DB_Transmit+0x23e>
 8000a8a:	682b      	ldr	r3, [r5, #0]
 8000a8c:	2250      	movs	r2, #80	@ 0x50
 8000a8e:	5a9a      	ldrh	r2, [r3, r2]
 8000a90:	189b      	adds	r3, r3, r2
 8000a92:	181b      	adds	r3, r3, r0
 8000a94:	4a09      	ldr	r2, [pc, #36]	@ (8000abc <HAL_PCD_EP_DB_Transmit+0x2cc>)
 8000a96:	4694      	mov	ip, r2
 8000a98:	4463      	add	r3, ip
 8000a9a:	2200      	movs	r2, #0
 8000a9c:	801a      	strh	r2, [r3, #0]
 8000a9e:	e7c6      	b.n	8000a2e <HAL_PCD_EP_DB_Transmit+0x23e>
      PCD_SET_EP_DBUF1_CNT(hpcd->Instance, ep->num, ep->is_in, 0U);
 8000aa0:	2a01      	cmp	r2, #1
 8000aa2:	d1da      	bne.n	8000a5a <HAL_PCD_EP_DB_Transmit+0x26a>
 8000aa4:	324f      	adds	r2, #79	@ 0x4f
 8000aa6:	5a9a      	ldrh	r2, [r3, r2]
 8000aa8:	189b      	adds	r3, r3, r2
 8000aaa:	7822      	ldrb	r2, [r4, #0]
 8000aac:	00d2      	lsls	r2, r2, #3
 8000aae:	189b      	adds	r3, r3, r2
 8000ab0:	4a04      	ldr	r2, [pc, #16]	@ (8000ac4 <HAL_PCD_EP_DB_Transmit+0x2d4>)
 8000ab2:	4694      	mov	ip, r2
 8000ab4:	4463      	add	r3, ip
 8000ab6:	2200      	movs	r2, #0
 8000ab8:	801a      	strh	r2, [r3, #0]
 8000aba:	e7ce      	b.n	8000a5a <HAL_PCD_EP_DB_Transmit+0x26a>
 8000abc:	00000402 	.word	0x00000402
 8000ac0:	ffff8000 	.word	0xffff8000
 8000ac4:	00000406 	.word	0x00000406
 8000ac8:	ffff8f8f 	.word	0xffff8f8f
 8000acc:	ffffc080 	.word	0xffffc080
 8000ad0:	ffff8fbf 	.word	0xffff8fbf
 8000ad4:	ffff8080 	.word	0xffff8080
      if ((wEPVal & USB_EP_DTOG_RX) == 0U)
 8000ad8:	0476      	lsls	r6, r6, #17
 8000ada:	d409      	bmi.n	8000af0 <HAL_PCD_EP_DB_Transmit+0x300>
        PCD_FREE_USER_BUFFER(hpcd->Instance, ep->num, 1U);
 8000adc:	682b      	ldr	r3, [r5, #0]
 8000ade:	0089      	lsls	r1, r1, #2
 8000ae0:	1859      	adds	r1, r3, r1
 8000ae2:	8808      	ldrh	r0, [r1, #0]
 8000ae4:	4b34      	ldr	r3, [pc, #208]	@ (8000bb8 <HAL_PCD_EP_DB_Transmit+0x3c8>)
 8000ae6:	4018      	ands	r0, r3
 8000ae8:	4b34      	ldr	r3, [pc, #208]	@ (8000bbc <HAL_PCD_EP_DB_Transmit+0x3cc>)
 8000aea:	4303      	orrs	r3, r0
 8000aec:	b29b      	uxth	r3, r3
 8000aee:	800b      	strh	r3, [r1, #0]
      if (ep->xfer_fill_db == 1U)
 8000af0:	2324      	movs	r3, #36	@ 0x24
 8000af2:	5ce3      	ldrb	r3, [r4, r3]
 8000af4:	2b01      	cmp	r3, #1
 8000af6:	d000      	beq.n	8000afa <HAL_PCD_EP_DB_Transmit+0x30a>
 8000af8:	e700      	b.n	80008fc <HAL_PCD_EP_DB_Transmit+0x10c>
        ep->xfer_buff += TxPctSize;
 8000afa:	6963      	ldr	r3, [r4, #20]
 8000afc:	189b      	adds	r3, r3, r2
 8000afe:	6163      	str	r3, [r4, #20]
        ep->xfer_count += TxPctSize;
 8000b00:	69e3      	ldr	r3, [r4, #28]
 8000b02:	18d3      	adds	r3, r2, r3
 8000b04:	61e3      	str	r3, [r4, #28]
        if (ep->xfer_len_db >= ep->maxpacket)
 8000b06:	6a21      	ldr	r1, [r4, #32]
 8000b08:	6923      	ldr	r3, [r4, #16]
 8000b0a:	4299      	cmp	r1, r3
 8000b0c:	d31a      	bcc.n	8000b44 <HAL_PCD_EP_DB_Transmit+0x354>
          ep->xfer_len_db -= len;
 8000b0e:	1ac9      	subs	r1, r1, r3
 8000b10:	6221      	str	r1, [r4, #32]
        PCD_SET_EP_DBUF1_CNT(hpcd->Instance, ep->num, ep->is_in, len);
 8000b12:	682a      	ldr	r2, [r5, #0]
 8000b14:	7861      	ldrb	r1, [r4, #1]
 8000b16:	2900      	cmp	r1, #0
 8000b18:	d139      	bne.n	8000b8e <HAL_PCD_EP_DB_Transmit+0x39e>
 8000b1a:	3150      	adds	r1, #80	@ 0x50
 8000b1c:	5a51      	ldrh	r1, [r2, r1]
 8000b1e:	1852      	adds	r2, r2, r1
 8000b20:	7821      	ldrb	r1, [r4, #0]
 8000b22:	00c9      	lsls	r1, r1, #3
 8000b24:	1852      	adds	r2, r2, r1
 8000b26:	4926      	ldr	r1, [pc, #152]	@ (8000bc0 <HAL_PCD_EP_DB_Transmit+0x3d0>)
 8000b28:	468c      	mov	ip, r1
 8000b2a:	4462      	add	r2, ip
 8000b2c:	8811      	ldrh	r1, [r2, #0]
 8000b2e:	0589      	lsls	r1, r1, #22
 8000b30:	0d89      	lsrs	r1, r1, #22
 8000b32:	8011      	strh	r1, [r2, #0]
 8000b34:	2b00      	cmp	r3, #0
 8000b36:	d111      	bne.n	8000b5c <HAL_PCD_EP_DB_Transmit+0x36c>
 8000b38:	8811      	ldrh	r1, [r2, #0]
 8000b3a:	4822      	ldr	r0, [pc, #136]	@ (8000bc4 <HAL_PCD_EP_DB_Transmit+0x3d4>)
 8000b3c:	4301      	orrs	r1, r0
 8000b3e:	b289      	uxth	r1, r1
 8000b40:	8011      	strh	r1, [r2, #0]
 8000b42:	e026      	b.n	8000b92 <HAL_PCD_EP_DB_Transmit+0x3a2>
        else if (ep->xfer_len_db == 0U)
 8000b44:	2900      	cmp	r1, #0
 8000b46:	d103      	bne.n	8000b50 <HAL_PCD_EP_DB_Transmit+0x360>
          ep->xfer_fill_db = 0U;
 8000b48:	2324      	movs	r3, #36	@ 0x24
 8000b4a:	54e1      	strb	r1, [r4, r3]
          len = TxPctSize;
 8000b4c:	0013      	movs	r3, r2
 8000b4e:	e7e0      	b.n	8000b12 <HAL_PCD_EP_DB_Transmit+0x322>
          ep->xfer_len_db = 0U;
 8000b50:	2300      	movs	r3, #0
 8000b52:	6223      	str	r3, [r4, #32]
          ep->xfer_fill_db = 0;
 8000b54:	2224      	movs	r2, #36	@ 0x24
 8000b56:	54a3      	strb	r3, [r4, r2]
          len = ep->xfer_len_db;
 8000b58:	000b      	movs	r3, r1
 8000b5a:	e7da      	b.n	8000b12 <HAL_PCD_EP_DB_Transmit+0x322>
        PCD_SET_EP_DBUF1_CNT(hpcd->Instance, ep->num, ep->is_in, len);
 8000b5c:	2b3e      	cmp	r3, #62	@ 0x3e
 8000b5e:	d809      	bhi.n	8000b74 <HAL_PCD_EP_DB_Transmit+0x384>
 8000b60:	0859      	lsrs	r1, r3, #1
 8000b62:	07d8      	lsls	r0, r3, #31
 8000b64:	d500      	bpl.n	8000b68 <HAL_PCD_EP_DB_Transmit+0x378>
 8000b66:	3101      	adds	r1, #1
 8000b68:	8810      	ldrh	r0, [r2, #0]
 8000b6a:	0289      	lsls	r1, r1, #10
 8000b6c:	b289      	uxth	r1, r1
 8000b6e:	4301      	orrs	r1, r0
 8000b70:	8011      	strh	r1, [r2, #0]
 8000b72:	e00e      	b.n	8000b92 <HAL_PCD_EP_DB_Transmit+0x3a2>
 8000b74:	0959      	lsrs	r1, r3, #5
 8000b76:	06d8      	lsls	r0, r3, #27
 8000b78:	d100      	bne.n	8000b7c <HAL_PCD_EP_DB_Transmit+0x38c>
 8000b7a:	3901      	subs	r1, #1
 8000b7c:	8810      	ldrh	r0, [r2, #0]
 8000b7e:	0289      	lsls	r1, r1, #10
 8000b80:	b289      	uxth	r1, r1
 8000b82:	4308      	orrs	r0, r1
 8000b84:	490f      	ldr	r1, [pc, #60]	@ (8000bc4 <HAL_PCD_EP_DB_Transmit+0x3d4>)
 8000b86:	4301      	orrs	r1, r0
 8000b88:	b289      	uxth	r1, r1
 8000b8a:	8011      	strh	r1, [r2, #0]
 8000b8c:	e001      	b.n	8000b92 <HAL_PCD_EP_DB_Transmit+0x3a2>
 8000b8e:	2901      	cmp	r1, #1
 8000b90:	d006      	beq.n	8000ba0 <HAL_PCD_EP_DB_Transmit+0x3b0>
        USB_WritePMA(hpcd->Instance, ep->xfer_buff,  ep->pmaaddr1, (uint16_t)len);
 8000b92:	6828      	ldr	r0, [r5, #0]
 8000b94:	b29b      	uxth	r3, r3
 8000b96:	8962      	ldrh	r2, [r4, #10]
 8000b98:	6961      	ldr	r1, [r4, #20]
 8000b9a:	f001 fc41 	bl	8002420 <USB_WritePMA>
 8000b9e:	e6ad      	b.n	80008fc <HAL_PCD_EP_DB_Transmit+0x10c>
        PCD_SET_EP_DBUF1_CNT(hpcd->Instance, ep->num, ep->is_in, len);
 8000ba0:	314f      	adds	r1, #79	@ 0x4f
 8000ba2:	5a51      	ldrh	r1, [r2, r1]
 8000ba4:	1852      	adds	r2, r2, r1
 8000ba6:	7821      	ldrb	r1, [r4, #0]
 8000ba8:	00c9      	lsls	r1, r1, #3
 8000baa:	1852      	adds	r2, r2, r1
 8000bac:	4904      	ldr	r1, [pc, #16]	@ (8000bc0 <HAL_PCD_EP_DB_Transmit+0x3d0>)
 8000bae:	468c      	mov	ip, r1
 8000bb0:	4462      	add	r2, ip
 8000bb2:	b299      	uxth	r1, r3
 8000bb4:	8011      	strh	r1, [r2, #0]
 8000bb6:	e7ec      	b.n	8000b92 <HAL_PCD_EP_DB_Transmit+0x3a2>
 8000bb8:	ffff8f8f 	.word	0xffff8f8f
 8000bbc:	ffffc080 	.word	0xffffc080
 8000bc0:	00000406 	.word	0x00000406
 8000bc4:	ffff8000 	.word	0xffff8000

08000bc8 <PCD_EP_ISR_Handler>:
{
 8000bc8:	b5f8      	push	{r3, r4, r5, r6, r7, lr}
 8000bca:	46ce      	mov	lr, r9
 8000bcc:	4647      	mov	r7, r8
 8000bce:	b580      	push	{r7, lr}
 8000bd0:	0004      	movs	r4, r0
  while ((hpcd->Instance->ISTR & USB_ISTR_CTR) != 0U)
 8000bd2:	6820      	ldr	r0, [r4, #0]
 8000bd4:	2344      	movs	r3, #68	@ 0x44
 8000bd6:	5ac3      	ldrh	r3, [r0, r3]
 8000bd8:	b21b      	sxth	r3, r3
 8000bda:	2b00      	cmp	r3, #0
 8000bdc:	db00      	blt.n	8000be0 <PCD_EP_ISR_Handler+0x18>
 8000bde:	e298      	b.n	8001112 <PCD_EP_ISR_Handler+0x54a>
    wIstr = hpcd->Instance->ISTR;
 8000be0:	2344      	movs	r3, #68	@ 0x44
 8000be2:	5ac3      	ldrh	r3, [r0, r3]
 8000be4:	b299      	uxth	r1, r3
    epindex = (uint8_t)(wIstr & USB_ISTR_EP_ID);
 8000be6:	220f      	movs	r2, #15
 8000be8:	001d      	movs	r5, r3
 8000bea:	4015      	ands	r5, r2
    if (epindex == 0U)
 8000bec:	4213      	tst	r3, r2
 8000bee:	d000      	beq.n	8000bf2 <PCD_EP_ISR_Handler+0x2a>
 8000bf0:	e0cb      	b.n	8000d8a <PCD_EP_ISR_Handler+0x1c2>
      if ((wIstr & USB_ISTR_DIR) == 0U)
 8000bf2:	06c9      	lsls	r1, r1, #27
 8000bf4:	d55d      	bpl.n	8000cb2 <PCD_EP_ISR_Handler+0xea>
        wEPVal = PCD_GET_ENDPOINT(hpcd->Instance, PCD_ENDP0);
 8000bf6:	8803      	ldrh	r3, [r0, #0]
 8000bf8:	b29a      	uxth	r2, r3
        if ((wEPVal & USB_EP_SETUP) != 0U)
 8000bfa:	051b      	lsls	r3, r3, #20
 8000bfc:	d500      	bpl.n	8000c00 <PCD_EP_ISR_Handler+0x38>
 8000bfe:	e087      	b.n	8000d10 <PCD_EP_ISR_Handler+0x148>
        else if ((wEPVal & USB_EP_CTR_RX) != 0U)
 8000c00:	b212      	sxth	r2, r2
 8000c02:	2a00      	cmp	r2, #0
 8000c04:	dae5      	bge.n	8000bd2 <PCD_EP_ISR_Handler+0xa>
          PCD_CLEAR_RX_EP_CTR(hpcd->Instance, PCD_ENDP0);
 8000c06:	8803      	ldrh	r3, [r0, #0]
 8000c08:	4ad6      	ldr	r2, [pc, #856]	@ (8000f64 <PCD_EP_ISR_Handler+0x39c>)
 8000c0a:	4013      	ands	r3, r2
 8000c0c:	2280      	movs	r2, #128	@ 0x80
 8000c0e:	4313      	orrs	r3, r2
 8000c10:	b29b      	uxth	r3, r3
 8000c12:	8003      	strh	r3, [r0, #0]
          ep->xfer_count = PCD_GET_EP_RX_CNT(hpcd->Instance, ep->num);
 8000c14:	6820      	ldr	r0, [r4, #0]
 8000c16:	2350      	movs	r3, #80	@ 0x50
 8000c18:	5ac3      	ldrh	r3, [r0, r3]
 8000c1a:	22a8      	movs	r2, #168	@ 0xa8
 8000c1c:	0052      	lsls	r2, r2, #1
 8000c1e:	5ca2      	ldrb	r2, [r4, r2]
 8000c20:	00d2      	lsls	r2, r2, #3
 8000c22:	189b      	adds	r3, r3, r2
 8000c24:	181b      	adds	r3, r3, r0
 8000c26:	4ad0      	ldr	r2, [pc, #832]	@ (8000f68 <PCD_EP_ISR_Handler+0x3a0>)
 8000c28:	4694      	mov	ip, r2
 8000c2a:	4463      	add	r3, ip
 8000c2c:	881b      	ldrh	r3, [r3, #0]
 8000c2e:	059b      	lsls	r3, r3, #22
 8000c30:	0d9b      	lsrs	r3, r3, #22
 8000c32:	0022      	movs	r2, r4
 8000c34:	3251      	adds	r2, #81	@ 0x51
 8000c36:	32ff      	adds	r2, #255	@ 0xff
 8000c38:	61d3      	str	r3, [r2, #28]
          if ((ep->xfer_count != 0U) && (ep->xfer_buff != 0U))
 8000c3a:	2b00      	cmp	r3, #0
 8000c3c:	d00e      	beq.n	8000c5c <PCD_EP_ISR_Handler+0x94>
 8000c3e:	6951      	ldr	r1, [r2, #20]
 8000c40:	2900      	cmp	r1, #0
 8000c42:	d00b      	beq.n	8000c5c <PCD_EP_ISR_Handler+0x94>
            USB_ReadPMA(hpcd->Instance, ep->xfer_buff,
 8000c44:	0015      	movs	r5, r2
 8000c46:	88d2      	ldrh	r2, [r2, #6]
 8000c48:	f001 ff98 	bl	8002b7c <USB_ReadPMA>
            ep->xfer_buff += ep->xfer_count;
 8000c4c:	696b      	ldr	r3, [r5, #20]
 8000c4e:	69ea      	ldr	r2, [r5, #28]
 8000c50:	189b      	adds	r3, r3, r2
 8000c52:	616b      	str	r3, [r5, #20]
            HAL_PCD_DataOutStageCallback(hpcd, 0U);
 8000c54:	2100      	movs	r1, #0
 8000c56:	0020      	movs	r0, r4
 8000c58:	f002 f807 	bl	8002c6a <HAL_PCD_DataOutStageCallback>
          wEPVal = (uint16_t)PCD_GET_ENDPOINT(hpcd->Instance, PCD_ENDP0);
 8000c5c:	6822      	ldr	r2, [r4, #0]
 8000c5e:	8813      	ldrh	r3, [r2, #0]
 8000c60:	b299      	uxth	r1, r3
          if (((wEPVal & USB_EP_SETUP) == 0U) && ((wEPVal & USB_EP_RX_STRX) != USB_EP_RX_VALID))
 8000c62:	051b      	lsls	r3, r3, #20
 8000c64:	d4b5      	bmi.n	8000bd2 <PCD_EP_ISR_Handler+0xa>
 8000c66:	23c0      	movs	r3, #192	@ 0xc0
 8000c68:	019b      	lsls	r3, r3, #6
 8000c6a:	4019      	ands	r1, r3
 8000c6c:	4299      	cmp	r1, r3
 8000c6e:	d0b0      	beq.n	8000bd2 <PCD_EP_ISR_Handler+0xa>
            PCD_SET_EP_RX_CNT(hpcd->Instance, PCD_ENDP0, ep->maxpacket);
 8000c70:	2350      	movs	r3, #80	@ 0x50
 8000c72:	5ad3      	ldrh	r3, [r2, r3]
 8000c74:	18d2      	adds	r2, r2, r3
 8000c76:	4bbc      	ldr	r3, [pc, #752]	@ (8000f68 <PCD_EP_ISR_Handler+0x3a0>)
 8000c78:	469c      	mov	ip, r3
 8000c7a:	4462      	add	r2, ip
 8000c7c:	8813      	ldrh	r3, [r2, #0]
 8000c7e:	059b      	lsls	r3, r3, #22
 8000c80:	0d9b      	lsrs	r3, r3, #22
 8000c82:	8013      	strh	r3, [r2, #0]
 8000c84:	0023      	movs	r3, r4
 8000c86:	3351      	adds	r3, #81	@ 0x51
 8000c88:	33ff      	adds	r3, #255	@ 0xff
 8000c8a:	691b      	ldr	r3, [r3, #16]
 8000c8c:	2b00      	cmp	r3, #0
 8000c8e:	d163      	bne.n	8000d58 <PCD_EP_ISR_Handler+0x190>
 8000c90:	8813      	ldrh	r3, [r2, #0]
 8000c92:	49b6      	ldr	r1, [pc, #728]	@ (8000f6c <PCD_EP_ISR_Handler+0x3a4>)
 8000c94:	430b      	orrs	r3, r1
 8000c96:	b29b      	uxth	r3, r3
 8000c98:	8013      	strh	r3, [r2, #0]
            PCD_SET_EP_RX_STATUS(hpcd->Instance, PCD_ENDP0, USB_EP_RX_VALID);
 8000c9a:	6821      	ldr	r1, [r4, #0]
 8000c9c:	880b      	ldrh	r3, [r1, #0]
 8000c9e:	4ab4      	ldr	r2, [pc, #720]	@ (8000f70 <PCD_EP_ISR_Handler+0x3a8>)
 8000ca0:	4013      	ands	r3, r2
 8000ca2:	22c0      	movs	r2, #192	@ 0xc0
 8000ca4:	0192      	lsls	r2, r2, #6
 8000ca6:	405a      	eors	r2, r3
 8000ca8:	4bb2      	ldr	r3, [pc, #712]	@ (8000f74 <PCD_EP_ISR_Handler+0x3ac>)
 8000caa:	4313      	orrs	r3, r2
 8000cac:	b29b      	uxth	r3, r3
 8000cae:	800b      	strh	r3, [r1, #0]
 8000cb0:	e78f      	b.n	8000bd2 <PCD_EP_ISR_Handler+0xa>
        PCD_CLEAR_TX_EP_CTR(hpcd->Instance, PCD_ENDP0);
 8000cb2:	8802      	ldrh	r2, [r0, #0]
 8000cb4:	4bb0      	ldr	r3, [pc, #704]	@ (8000f78 <PCD_EP_ISR_Handler+0x3b0>)
 8000cb6:	401a      	ands	r2, r3
 8000cb8:	4bac      	ldr	r3, [pc, #688]	@ (8000f6c <PCD_EP_ISR_Handler+0x3a4>)
 8000cba:	4313      	orrs	r3, r2
 8000cbc:	b29b      	uxth	r3, r3
 8000cbe:	8003      	strh	r3, [r0, #0]
        ep->xfer_count = PCD_GET_EP_TX_CNT(hpcd->Instance, ep->num);
 8000cc0:	6821      	ldr	r1, [r4, #0]
 8000cc2:	2350      	movs	r3, #80	@ 0x50
 8000cc4:	5acb      	ldrh	r3, [r1, r3]
 8000cc6:	7c22      	ldrb	r2, [r4, #16]
 8000cc8:	00d2      	lsls	r2, r2, #3
 8000cca:	189b      	adds	r3, r3, r2
 8000ccc:	185b      	adds	r3, r3, r1
 8000cce:	4aab      	ldr	r2, [pc, #684]	@ (8000f7c <PCD_EP_ISR_Handler+0x3b4>)
 8000cd0:	4694      	mov	ip, r2
 8000cd2:	4463      	add	r3, ip
 8000cd4:	881b      	ldrh	r3, [r3, #0]
 8000cd6:	059b      	lsls	r3, r3, #22
 8000cd8:	0d9b      	lsrs	r3, r3, #22
 8000cda:	62e3      	str	r3, [r4, #44]	@ 0x2c
        ep->xfer_buff += ep->xfer_count;
 8000cdc:	6a62      	ldr	r2, [r4, #36]	@ 0x24
 8000cde:	18d3      	adds	r3, r2, r3
 8000ce0:	6263      	str	r3, [r4, #36]	@ 0x24
        HAL_PCD_DataInStageCallback(hpcd, 0U);
 8000ce2:	2100      	movs	r1, #0
 8000ce4:	0020      	movs	r0, r4
 8000ce6:	f001 ffcf 	bl	8002c88 <HAL_PCD_DataInStageCallback>
        if ((hpcd->USB_Address > 0U) && (ep->xfer_len == 0U))
 8000cea:	7b23      	ldrb	r3, [r4, #12]
 8000cec:	2b00      	cmp	r3, #0
 8000cee:	d100      	bne.n	8000cf2 <PCD_EP_ISR_Handler+0x12a>
 8000cf0:	e76f      	b.n	8000bd2 <PCD_EP_ISR_Handler+0xa>
 8000cf2:	6aa3      	ldr	r3, [r4, #40]	@ 0x28
 8000cf4:	2b00      	cmp	r3, #0
 8000cf6:	d000      	beq.n	8000cfa <PCD_EP_ISR_Handler+0x132>
 8000cf8:	e76b      	b.n	8000bd2 <PCD_EP_ISR_Handler+0xa>
          hpcd->Instance->DADDR = ((uint16_t)hpcd->USB_Address | USB_DADDR_EF);
 8000cfa:	7b23      	ldrb	r3, [r4, #12]
 8000cfc:	6821      	ldr	r1, [r4, #0]
 8000cfe:	2280      	movs	r2, #128	@ 0x80
 8000d00:	4252      	negs	r2, r2
 8000d02:	4313      	orrs	r3, r2
 8000d04:	b2db      	uxtb	r3, r3
 8000d06:	32cc      	adds	r2, #204	@ 0xcc
 8000d08:	528b      	strh	r3, [r1, r2]
          hpcd->USB_Address = 0U;
 8000d0a:	2300      	movs	r3, #0
 8000d0c:	7323      	strb	r3, [r4, #12]
 8000d0e:	e760      	b.n	8000bd2 <PCD_EP_ISR_Handler+0xa>
          ep->xfer_count = PCD_GET_EP_RX_CNT(hpcd->Instance, ep->num);
 8000d10:	2350      	movs	r3, #80	@ 0x50
 8000d12:	5ac3      	ldrh	r3, [r0, r3]
 8000d14:	22a8      	movs	r2, #168	@ 0xa8
 8000d16:	0052      	lsls	r2, r2, #1
 8000d18:	5ca2      	ldrb	r2, [r4, r2]
 8000d1a:	00d2      	lsls	r2, r2, #3
 8000d1c:	189b      	adds	r3, r3, r2
 8000d1e:	181b      	adds	r3, r3, r0
 8000d20:	4a91      	ldr	r2, [pc, #580]	@ (8000f68 <PCD_EP_ISR_Handler+0x3a0>)
 8000d22:	4694      	mov	ip, r2
 8000d24:	4463      	add	r3, ip
 8000d26:	881b      	ldrh	r3, [r3, #0]
 8000d28:	059b      	lsls	r3, r3, #22
 8000d2a:	0d9b      	lsrs	r3, r3, #22
 8000d2c:	0022      	movs	r2, r4
 8000d2e:	3251      	adds	r2, #81	@ 0x51
 8000d30:	32ff      	adds	r2, #255	@ 0xff
 8000d32:	61d3      	str	r3, [r2, #28]
          USB_ReadPMA(hpcd->Instance, (uint8_t *)hpcd->Setup,
 8000d34:	21a6      	movs	r1, #166	@ 0xa6
 8000d36:	0089      	lsls	r1, r1, #2
 8000d38:	1861      	adds	r1, r4, r1
 8000d3a:	88d2      	ldrh	r2, [r2, #6]
 8000d3c:	f001 ff1e 	bl	8002b7c <USB_ReadPMA>
          PCD_CLEAR_RX_EP_CTR(hpcd->Instance, PCD_ENDP0);
 8000d40:	6822      	ldr	r2, [r4, #0]
 8000d42:	8813      	ldrh	r3, [r2, #0]
 8000d44:	4987      	ldr	r1, [pc, #540]	@ (8000f64 <PCD_EP_ISR_Handler+0x39c>)
 8000d46:	400b      	ands	r3, r1
 8000d48:	2180      	movs	r1, #128	@ 0x80
 8000d4a:	430b      	orrs	r3, r1
 8000d4c:	b29b      	uxth	r3, r3
 8000d4e:	8013      	strh	r3, [r2, #0]
          HAL_PCD_SetupStageCallback(hpcd);
 8000d50:	0020      	movs	r0, r4
 8000d52:	f001 ff7f 	bl	8002c54 <HAL_PCD_SetupStageCallback>
 8000d56:	e73c      	b.n	8000bd2 <PCD_EP_ISR_Handler+0xa>
            PCD_SET_EP_RX_CNT(hpcd->Instance, PCD_ENDP0, ep->maxpacket);
 8000d58:	2b3e      	cmp	r3, #62	@ 0x3e
 8000d5a:	d809      	bhi.n	8000d70 <PCD_EP_ISR_Handler+0x1a8>
 8000d5c:	0859      	lsrs	r1, r3, #1
 8000d5e:	07db      	lsls	r3, r3, #31
 8000d60:	d500      	bpl.n	8000d64 <PCD_EP_ISR_Handler+0x19c>
 8000d62:	3101      	adds	r1, #1
 8000d64:	8813      	ldrh	r3, [r2, #0]
 8000d66:	0289      	lsls	r1, r1, #10
 8000d68:	b289      	uxth	r1, r1
 8000d6a:	430b      	orrs	r3, r1
 8000d6c:	8013      	strh	r3, [r2, #0]
 8000d6e:	e794      	b.n	8000c9a <PCD_EP_ISR_Handler+0xd2>
 8000d70:	0959      	lsrs	r1, r3, #5
 8000d72:	06db      	lsls	r3, r3, #27
 8000d74:	d100      	bne.n	8000d78 <PCD_EP_ISR_Handler+0x1b0>
 8000d76:	3901      	subs	r1, #1
 8000d78:	8813      	ldrh	r3, [r2, #0]
 8000d7a:	0289      	lsls	r1, r1, #10
 8000d7c:	b289      	uxth	r1, r1
 8000d7e:	4319      	orrs	r1, r3
 8000d80:	4b7a      	ldr	r3, [pc, #488]	@ (8000f6c <PCD_EP_ISR_Handler+0x3a4>)
 8000d82:	430b      	orrs	r3, r1
 8000d84:	b29b      	uxth	r3, r3
 8000d86:	8013      	strh	r3, [r2, #0]
 8000d88:	e787      	b.n	8000c9a <PCD_EP_ISR_Handler+0xd2>
      wEPVal = PCD_GET_ENDPOINT(hpcd->Instance, epindex);
 8000d8a:	00ae      	lsls	r6, r5, #2
 8000d8c:	1980      	adds	r0, r0, r6
 8000d8e:	8803      	ldrh	r3, [r0, #0]
 8000d90:	b29f      	uxth	r7, r3
      if ((wEPVal & USB_EP_CTR_RX) != 0U)
 8000d92:	b21b      	sxth	r3, r3
 8000d94:	2b00      	cmp	r3, #0
 8000d96:	db46      	blt.n	8000e26 <PCD_EP_ISR_Handler+0x25e>
      if ((wEPVal & USB_EP_CTR_TX) != 0U)
 8000d98:	063b      	lsls	r3, r7, #24
 8000d9a:	d400      	bmi.n	8000d9e <PCD_EP_ISR_Handler+0x1d6>
 8000d9c:	e719      	b.n	8000bd2 <PCD_EP_ISR_Handler+0xa>
        ep = &hpcd->IN_ep[epindex];
 8000d9e:	00ab      	lsls	r3, r5, #2
 8000da0:	1959      	adds	r1, r3, r5
 8000da2:	00c9      	lsls	r1, r1, #3
 8000da4:	3110      	adds	r1, #16
 8000da6:	1861      	adds	r1, r4, r1
        PCD_CLEAR_TX_EP_CTR(hpcd->Instance, epindex);
 8000da8:	6820      	ldr	r0, [r4, #0]
 8000daa:	1980      	adds	r0, r0, r6
 8000dac:	8806      	ldrh	r6, [r0, #0]
 8000dae:	4a72      	ldr	r2, [pc, #456]	@ (8000f78 <PCD_EP_ISR_Handler+0x3b0>)
 8000db0:	4016      	ands	r6, r2
 8000db2:	4a6e      	ldr	r2, [pc, #440]	@ (8000f6c <PCD_EP_ISR_Handler+0x3a4>)
 8000db4:	4332      	orrs	r2, r6
 8000db6:	b292      	uxth	r2, r2
 8000db8:	8002      	strh	r2, [r0, #0]
        if (ep->type == EP_TYPE_ISOC)
 8000dba:	195b      	adds	r3, r3, r5
 8000dbc:	00db      	lsls	r3, r3, #3
 8000dbe:	18e3      	adds	r3, r4, r3
 8000dc0:	7cdb      	ldrb	r3, [r3, #19]
 8000dc2:	2b01      	cmp	r3, #1
 8000dc4:	d100      	bne.n	8000dc8 <PCD_EP_ISR_Handler+0x200>
 8000dc6:	e109      	b.n	8000fdc <PCD_EP_ISR_Handler+0x414>
          if ((wEPVal & USB_EP_KIND) == 0U)
 8000dc8:	05fb      	lsls	r3, r7, #23
 8000dca:	d500      	bpl.n	8000dce <PCD_EP_ISR_Handler+0x206>
 8000dcc:	e19c      	b.n	8001108 <PCD_EP_ISR_Handler+0x540>
            TxPctSize = (uint16_t)PCD_GET_EP_TX_CNT(hpcd->Instance, ep->num);
 8000dce:	6820      	ldr	r0, [r4, #0]
 8000dd0:	2350      	movs	r3, #80	@ 0x50
 8000dd2:	5ac3      	ldrh	r3, [r0, r3]
 8000dd4:	00aa      	lsls	r2, r5, #2
 8000dd6:	1952      	adds	r2, r2, r5
 8000dd8:	00d2      	lsls	r2, r2, #3
 8000dda:	18a2      	adds	r2, r4, r2
 8000ddc:	7c16      	ldrb	r6, [r2, #16]
 8000dde:	00f2      	lsls	r2, r6, #3
 8000de0:	189b      	adds	r3, r3, r2
 8000de2:	181b      	adds	r3, r3, r0
 8000de4:	4a65      	ldr	r2, [pc, #404]	@ (8000f7c <PCD_EP_ISR_Handler+0x3b4>)
 8000de6:	4694      	mov	ip, r2
 8000de8:	4463      	add	r3, ip
 8000dea:	881b      	ldrh	r3, [r3, #0]
 8000dec:	059b      	lsls	r3, r3, #22
 8000dee:	0d9b      	lsrs	r3, r3, #22
            if (ep->xfer_len > TxPctSize)
 8000df0:	1c6f      	adds	r7, r5, #1
 8000df2:	00ba      	lsls	r2, r7, #2
 8000df4:	19d2      	adds	r2, r2, r7
 8000df6:	00d2      	lsls	r2, r2, #3
 8000df8:	5912      	ldr	r2, [r2, r4]
 8000dfa:	429a      	cmp	r2, r3
 8000dfc:	d800      	bhi.n	8000e00 <PCD_EP_ISR_Handler+0x238>
 8000dfe:	e167      	b.n	80010d0 <PCD_EP_ISR_Handler+0x508>
              ep->xfer_len -= TxPctSize;
 8000e00:	46bc      	mov	ip, r7
 8000e02:	00bf      	lsls	r7, r7, #2
 8000e04:	4467      	add	r7, ip
 8000e06:	00ff      	lsls	r7, r7, #3
 8000e08:	1ad2      	subs	r2, r2, r3
 8000e0a:	513a      	str	r2, [r7, r4]
            if (ep->xfer_len == 0U)
 8000e0c:	1c6f      	adds	r7, r5, #1
 8000e0e:	00ba      	lsls	r2, r7, #2
 8000e10:	19d2      	adds	r2, r2, r7
 8000e12:	00d2      	lsls	r2, r2, #3
 8000e14:	5912      	ldr	r2, [r2, r4]
 8000e16:	2a00      	cmp	r2, #0
 8000e18:	d000      	beq.n	8000e1c <PCD_EP_ISR_Handler+0x254>
 8000e1a:	e160      	b.n	80010de <PCD_EP_ISR_Handler+0x516>
              HAL_PCD_DataInStageCallback(hpcd, ep->num);
 8000e1c:	0031      	movs	r1, r6
 8000e1e:	0020      	movs	r0, r4
 8000e20:	f001 ff32 	bl	8002c88 <HAL_PCD_DataInStageCallback>
 8000e24:	e6d5      	b.n	8000bd2 <PCD_EP_ISR_Handler+0xa>
        PCD_CLEAR_RX_EP_CTR(hpcd->Instance, epindex);
 8000e26:	8803      	ldrh	r3, [r0, #0]
 8000e28:	4a4e      	ldr	r2, [pc, #312]	@ (8000f64 <PCD_EP_ISR_Handler+0x39c>)
 8000e2a:	4013      	ands	r3, r2
 8000e2c:	2280      	movs	r2, #128	@ 0x80
 8000e2e:	4313      	orrs	r3, r2
 8000e30:	b29b      	uxth	r3, r3
 8000e32:	8003      	strh	r3, [r0, #0]
        ep = &hpcd->OUT_ep[epindex];
 8000e34:	1972      	adds	r2, r6, r5
 8000e36:	00d2      	lsls	r2, r2, #3
 8000e38:	3251      	adds	r2, #81	@ 0x51
 8000e3a:	32ff      	adds	r2, #255	@ 0xff
 8000e3c:	4690      	mov	r8, r2
 8000e3e:	44a0      	add	r8, r4
        if (ep->doublebuffer == 0U)
 8000e40:	1973      	adds	r3, r6, r5
 8000e42:	00db      	lsls	r3, r3, #3
 8000e44:	18e3      	adds	r3, r4, r3
 8000e46:	335d      	adds	r3, #93	@ 0x5d
 8000e48:	33ff      	adds	r3, #255	@ 0xff
 8000e4a:	781b      	ldrb	r3, [r3, #0]
 8000e4c:	2b00      	cmp	r3, #0
 8000e4e:	d14b      	bne.n	8000ee8 <PCD_EP_ISR_Handler+0x320>
          count = (uint16_t)PCD_GET_EP_RX_CNT(hpcd->Instance, ep->num);
 8000e50:	6820      	ldr	r0, [r4, #0]
 8000e52:	3350      	adds	r3, #80	@ 0x50
 8000e54:	5ac2      	ldrh	r2, [r0, r3]
 8000e56:	1973      	adds	r3, r6, r5
 8000e58:	00db      	lsls	r3, r3, #3
 8000e5a:	18e3      	adds	r3, r4, r3
 8000e5c:	3351      	adds	r3, #81	@ 0x51
 8000e5e:	33ff      	adds	r3, #255	@ 0xff
 8000e60:	781b      	ldrb	r3, [r3, #0]
 8000e62:	00db      	lsls	r3, r3, #3
 8000e64:	18d3      	adds	r3, r2, r3
 8000e66:	181b      	adds	r3, r3, r0
 8000e68:	4a3f      	ldr	r2, [pc, #252]	@ (8000f68 <PCD_EP_ISR_Handler+0x3a0>)
 8000e6a:	4694      	mov	ip, r2
 8000e6c:	4463      	add	r3, ip
 8000e6e:	881b      	ldrh	r3, [r3, #0]
 8000e70:	059b      	lsls	r3, r3, #22
 8000e72:	0d9a      	lsrs	r2, r3, #22
 8000e74:	4691      	mov	r9, r2
          if (count != 0U)
 8000e76:	2b00      	cmp	r3, #0
 8000e78:	d128      	bne.n	8000ecc <PCD_EP_ISR_Handler+0x304>
        ep->xfer_count += count;
 8000e7a:	00aa      	lsls	r2, r5, #2
 8000e7c:	1952      	adds	r2, r2, r5
 8000e7e:	00d2      	lsls	r2, r2, #3
 8000e80:	18a2      	adds	r2, r4, r2
 8000e82:	0010      	movs	r0, r2
 8000e84:	306d      	adds	r0, #109	@ 0x6d
 8000e86:	30ff      	adds	r0, #255	@ 0xff
 8000e88:	6803      	ldr	r3, [r0, #0]
 8000e8a:	4649      	mov	r1, r9
 8000e8c:	444b      	add	r3, r9
 8000e8e:	6003      	str	r3, [r0, #0]
        ep->xfer_buff += count;
 8000e90:	3808      	subs	r0, #8
 8000e92:	6803      	ldr	r3, [r0, #0]
 8000e94:	444b      	add	r3, r9
 8000e96:	6003      	str	r3, [r0, #0]
        if ((ep->xfer_len == 0U) || (count < ep->maxpacket))
 8000e98:	3269      	adds	r2, #105	@ 0x69
 8000e9a:	32ff      	adds	r2, #255	@ 0xff
 8000e9c:	6813      	ldr	r3, [r2, #0]
 8000e9e:	2b00      	cmp	r3, #0
 8000ea0:	d009      	beq.n	8000eb6 <PCD_EP_ISR_Handler+0x2ee>
 8000ea2:	00ab      	lsls	r3, r5, #2
 8000ea4:	195b      	adds	r3, r3, r5
 8000ea6:	00db      	lsls	r3, r3, #3
 8000ea8:	18e3      	adds	r3, r4, r3
 8000eaa:	3361      	adds	r3, #97	@ 0x61
 8000eac:	33ff      	adds	r3, #255	@ 0xff
 8000eae:	681b      	ldr	r3, [r3, #0]
 8000eb0:	4299      	cmp	r1, r3
 8000eb2:	d300      	bcc.n	8000eb6 <PCD_EP_ISR_Handler+0x2ee>
 8000eb4:	e08d      	b.n	8000fd2 <PCD_EP_ISR_Handler+0x40a>
          HAL_PCD_DataOutStageCallback(hpcd, ep->num);
 8000eb6:	00ab      	lsls	r3, r5, #2
 8000eb8:	195b      	adds	r3, r3, r5
 8000eba:	00db      	lsls	r3, r3, #3
 8000ebc:	18e3      	adds	r3, r4, r3
 8000ebe:	3351      	adds	r3, #81	@ 0x51
 8000ec0:	33ff      	adds	r3, #255	@ 0xff
 8000ec2:	7819      	ldrb	r1, [r3, #0]
 8000ec4:	0020      	movs	r0, r4
 8000ec6:	f001 fed0 	bl	8002c6a <HAL_PCD_DataOutStageCallback>
 8000eca:	e765      	b.n	8000d98 <PCD_EP_ISR_Handler+0x1d0>
            USB_ReadPMA(hpcd->Instance, ep->xfer_buff, ep->pmaadress, count);
 8000ecc:	1973      	adds	r3, r6, r5
 8000ece:	00db      	lsls	r3, r3, #3
 8000ed0:	18e3      	adds	r3, r4, r3
 8000ed2:	001a      	movs	r2, r3
 8000ed4:	3257      	adds	r2, #87	@ 0x57
 8000ed6:	32ff      	adds	r2, #255	@ 0xff
 8000ed8:	8812      	ldrh	r2, [r2, #0]
 8000eda:	3365      	adds	r3, #101	@ 0x65
 8000edc:	33ff      	adds	r3, #255	@ 0xff
 8000ede:	6819      	ldr	r1, [r3, #0]
 8000ee0:	464b      	mov	r3, r9
 8000ee2:	f001 fe4b 	bl	8002b7c <USB_ReadPMA>
 8000ee6:	e7c8      	b.n	8000e7a <PCD_EP_ISR_Handler+0x2b2>
          if (ep->type == EP_TYPE_BULK)
 8000ee8:	00ab      	lsls	r3, r5, #2
 8000eea:	195b      	adds	r3, r3, r5
 8000eec:	00db      	lsls	r3, r3, #3
 8000eee:	18e3      	adds	r3, r4, r3
 8000ef0:	3354      	adds	r3, #84	@ 0x54
 8000ef2:	33ff      	adds	r3, #255	@ 0xff
 8000ef4:	781b      	ldrb	r3, [r3, #0]
 8000ef6:	2b02      	cmp	r3, #2
 8000ef8:	d046      	beq.n	8000f88 <PCD_EP_ISR_Handler+0x3c0>
            PCD_FREE_USER_BUFFER(hpcd->Instance, ep->num, 0U);
 8000efa:	6821      	ldr	r1, [r4, #0]
 8000efc:	00ab      	lsls	r3, r5, #2
 8000efe:	195b      	adds	r3, r3, r5
 8000f00:	00db      	lsls	r3, r3, #3
 8000f02:	18e3      	adds	r3, r4, r3
 8000f04:	3351      	adds	r3, #81	@ 0x51
 8000f06:	33ff      	adds	r3, #255	@ 0xff
 8000f08:	781a      	ldrb	r2, [r3, #0]
 8000f0a:	0092      	lsls	r2, r2, #2
 8000f0c:	1889      	adds	r1, r1, r2
 8000f0e:	8808      	ldrh	r0, [r1, #0]
 8000f10:	4a1b      	ldr	r2, [pc, #108]	@ (8000f80 <PCD_EP_ISR_Handler+0x3b8>)
 8000f12:	4010      	ands	r0, r2
 8000f14:	4a1b      	ldr	r2, [pc, #108]	@ (8000f84 <PCD_EP_ISR_Handler+0x3bc>)
 8000f16:	4302      	orrs	r2, r0
 8000f18:	b292      	uxth	r2, r2
 8000f1a:	800a      	strh	r2, [r1, #0]
            if ((PCD_GET_ENDPOINT(hpcd->Instance, ep->num) & USB_EP_DTOG_RX) != 0U)
 8000f1c:	6820      	ldr	r0, [r4, #0]
 8000f1e:	781a      	ldrb	r2, [r3, #0]
 8000f20:	0093      	lsls	r3, r2, #2
 8000f22:	18c3      	adds	r3, r0, r3
 8000f24:	881b      	ldrh	r3, [r3, #0]
 8000f26:	045b      	lsls	r3, r3, #17
 8000f28:	d535      	bpl.n	8000f96 <PCD_EP_ISR_Handler+0x3ce>
              count = (uint16_t)PCD_GET_EP_DBUF0_CNT(hpcd->Instance, ep->num);
 8000f2a:	2350      	movs	r3, #80	@ 0x50
 8000f2c:	5ac3      	ldrh	r3, [r0, r3]
 8000f2e:	00d2      	lsls	r2, r2, #3
 8000f30:	189b      	adds	r3, r3, r2
 8000f32:	181b      	adds	r3, r3, r0
 8000f34:	4a11      	ldr	r2, [pc, #68]	@ (8000f7c <PCD_EP_ISR_Handler+0x3b4>)
 8000f36:	4694      	mov	ip, r2
 8000f38:	4463      	add	r3, ip
 8000f3a:	881b      	ldrh	r3, [r3, #0]
 8000f3c:	059b      	lsls	r3, r3, #22
 8000f3e:	0d9a      	lsrs	r2, r3, #22
 8000f40:	4691      	mov	r9, r2
              if (count != 0U)
 8000f42:	2b00      	cmp	r3, #0
 8000f44:	d099      	beq.n	8000e7a <PCD_EP_ISR_Handler+0x2b2>
                USB_ReadPMA(hpcd->Instance, ep->xfer_buff, ep->pmaaddr0, count);
 8000f46:	00ab      	lsls	r3, r5, #2
 8000f48:	195b      	adds	r3, r3, r5
 8000f4a:	00db      	lsls	r3, r3, #3
 8000f4c:	18e3      	adds	r3, r4, r3
 8000f4e:	001a      	movs	r2, r3
 8000f50:	3259      	adds	r2, #89	@ 0x59
 8000f52:	32ff      	adds	r2, #255	@ 0xff
 8000f54:	8812      	ldrh	r2, [r2, #0]
 8000f56:	3365      	adds	r3, #101	@ 0x65
 8000f58:	33ff      	adds	r3, #255	@ 0xff
 8000f5a:	6819      	ldr	r1, [r3, #0]
 8000f5c:	464b      	mov	r3, r9
 8000f5e:	f001 fe0d 	bl	8002b7c <USB_ReadPMA>
 8000f62:	e78a      	b.n	8000e7a <PCD_EP_ISR_Handler+0x2b2>
 8000f64:	00000f8f 	.word	0x00000f8f
 8000f68:	00000406 	.word	0x00000406
 8000f6c:	ffff8000 	.word	0xffff8000
 8000f70:	ffffbf8f 	.word	0xffffbf8f
 8000f74:	ffff8080 	.word	0xffff8080
 8000f78:	ffff8f0f 	.word	0xffff8f0f
 8000f7c:	00000402 	.word	0x00000402
 8000f80:	ffff8f8f 	.word	0xffff8f8f
 8000f84:	ffff80c0 	.word	0xffff80c0
            count = HAL_PCD_EP_DB_Receive(hpcd, ep, wEPVal);
 8000f88:	003a      	movs	r2, r7
 8000f8a:	4641      	mov	r1, r8
 8000f8c:	0020      	movs	r0, r4
 8000f8e:	f7ff fb2f 	bl	80005f0 <HAL_PCD_EP_DB_Receive>
 8000f92:	4681      	mov	r9, r0
 8000f94:	e771      	b.n	8000e7a <PCD_EP_ISR_Handler+0x2b2>
              count = (uint16_t)PCD_GET_EP_DBUF1_CNT(hpcd->Instance, ep->num);
 8000f96:	2350      	movs	r3, #80	@ 0x50
 8000f98:	5ac3      	ldrh	r3, [r0, r3]
 8000f9a:	00d2      	lsls	r2, r2, #3
 8000f9c:	189b      	adds	r3, r3, r2
 8000f9e:	181b      	adds	r3, r3, r0
 8000fa0:	4a5e      	ldr	r2, [pc, #376]	@ (800111c <PCD_EP_ISR_Handler+0x554>)
 8000fa2:	4694      	mov	ip, r2
 8000fa4:	4463      	add	r3, ip
 8000fa6:	881b      	ldrh	r3, [r3, #0]
 8000fa8:	059b      	lsls	r3, r3, #22
 8000faa:	0d9a      	lsrs	r2, r3, #22
 8000fac:	4691      	mov	r9, r2
              if (count != 0U)
 8000fae:	2b00      	cmp	r3, #0
 8000fb0:	d100      	bne.n	8000fb4 <PCD_EP_ISR_Handler+0x3ec>
 8000fb2:	e762      	b.n	8000e7a <PCD_EP_ISR_Handler+0x2b2>
                USB_ReadPMA(hpcd->Instance, ep->xfer_buff, ep->pmaaddr1, count);
 8000fb4:	00ab      	lsls	r3, r5, #2
 8000fb6:	195b      	adds	r3, r3, r5
 8000fb8:	00db      	lsls	r3, r3, #3
 8000fba:	18e3      	adds	r3, r4, r3
 8000fbc:	001a      	movs	r2, r3
 8000fbe:	325b      	adds	r2, #91	@ 0x5b
 8000fc0:	32ff      	adds	r2, #255	@ 0xff
 8000fc2:	8812      	ldrh	r2, [r2, #0]
 8000fc4:	3365      	adds	r3, #101	@ 0x65
 8000fc6:	33ff      	adds	r3, #255	@ 0xff
 8000fc8:	6819      	ldr	r1, [r3, #0]
 8000fca:	464b      	mov	r3, r9
 8000fcc:	f001 fdd6 	bl	8002b7c <USB_ReadPMA>
 8000fd0:	e753      	b.n	8000e7a <PCD_EP_ISR_Handler+0x2b2>
          (void)USB_EPStartXfer(hpcd->Instance, ep);
 8000fd2:	6820      	ldr	r0, [r4, #0]
 8000fd4:	4641      	mov	r1, r8
 8000fd6:	f001 fa37 	bl	8002448 <USB_EPStartXfer>
 8000fda:	e6dd      	b.n	8000d98 <PCD_EP_ISR_Handler+0x1d0>
          ep->xfer_len = 0U;
 8000fdc:	1c6a      	adds	r2, r5, #1
 8000fde:	0093      	lsls	r3, r2, #2
 8000fe0:	189b      	adds	r3, r3, r2
 8000fe2:	00db      	lsls	r3, r3, #3
 8000fe4:	2200      	movs	r2, #0
 8000fe6:	511a      	str	r2, [r3, r4]
          if (ep->doublebuffer != 0U)
 8000fe8:	00ab      	lsls	r3, r5, #2
 8000fea:	195b      	adds	r3, r3, r5
 8000fec:	00db      	lsls	r3, r3, #3
 8000fee:	18e3      	adds	r3, r4, r3
 8000ff0:	7f1b      	ldrb	r3, [r3, #28]
 8000ff2:	2b00      	cmp	r3, #0
 8000ff4:	d01f      	beq.n	8001036 <PCD_EP_ISR_Handler+0x46e>
            if ((wEPVal & USB_EP_DTOG_TX) != 0U)
 8000ff6:	067f      	lsls	r7, r7, #25
 8000ff8:	d539      	bpl.n	800106e <PCD_EP_ISR_Handler+0x4a6>
              PCD_SET_EP_DBUF0_CNT(hpcd->Instance, ep->num, ep->is_in, 0U);
 8000ffa:	00ab      	lsls	r3, r5, #2
 8000ffc:	195b      	adds	r3, r3, r5
 8000ffe:	00db      	lsls	r3, r3, #3
 8001000:	18e3      	adds	r3, r4, r3
 8001002:	7c5b      	ldrb	r3, [r3, #17]
 8001004:	2b00      	cmp	r3, #0
 8001006:	d11f      	bne.n	8001048 <PCD_EP_ISR_Handler+0x480>
 8001008:	6823      	ldr	r3, [r4, #0]
 800100a:	3250      	adds	r2, #80	@ 0x50
 800100c:	5a9a      	ldrh	r2, [r3, r2]
 800100e:	189a      	adds	r2, r3, r2
 8001010:	00ab      	lsls	r3, r5, #2
 8001012:	195b      	adds	r3, r3, r5
 8001014:	00db      	lsls	r3, r3, #3
 8001016:	18e3      	adds	r3, r4, r3
 8001018:	7c1b      	ldrb	r3, [r3, #16]
 800101a:	00db      	lsls	r3, r3, #3
 800101c:	189b      	adds	r3, r3, r2
 800101e:	4a40      	ldr	r2, [pc, #256]	@ (8001120 <PCD_EP_ISR_Handler+0x558>)
 8001020:	4694      	mov	ip, r2
 8001022:	4463      	add	r3, ip
 8001024:	881a      	ldrh	r2, [r3, #0]
 8001026:	0592      	lsls	r2, r2, #22
 8001028:	0d92      	lsrs	r2, r2, #22
 800102a:	801a      	strh	r2, [r3, #0]
 800102c:	881a      	ldrh	r2, [r3, #0]
 800102e:	493d      	ldr	r1, [pc, #244]	@ (8001124 <PCD_EP_ISR_Handler+0x55c>)
 8001030:	430a      	orrs	r2, r1
 8001032:	b292      	uxth	r2, r2
 8001034:	801a      	strh	r2, [r3, #0]
          HAL_PCD_DataInStageCallback(hpcd, ep->num);
 8001036:	00ab      	lsls	r3, r5, #2
 8001038:	195b      	adds	r3, r3, r5
 800103a:	00db      	lsls	r3, r3, #3
 800103c:	18e3      	adds	r3, r4, r3
 800103e:	7c19      	ldrb	r1, [r3, #16]
 8001040:	0020      	movs	r0, r4
 8001042:	f001 fe21 	bl	8002c88 <HAL_PCD_DataInStageCallback>
 8001046:	e5c4      	b.n	8000bd2 <PCD_EP_ISR_Handler+0xa>
              PCD_SET_EP_DBUF0_CNT(hpcd->Instance, ep->num, ep->is_in, 0U);
 8001048:	2b01      	cmp	r3, #1
 800104a:	d1f4      	bne.n	8001036 <PCD_EP_ISR_Handler+0x46e>
 800104c:	6823      	ldr	r3, [r4, #0]
 800104e:	2250      	movs	r2, #80	@ 0x50
 8001050:	5a9a      	ldrh	r2, [r3, r2]
 8001052:	189a      	adds	r2, r3, r2
 8001054:	00ab      	lsls	r3, r5, #2
 8001056:	195b      	adds	r3, r3, r5
 8001058:	00db      	lsls	r3, r3, #3
 800105a:	18e3      	adds	r3, r4, r3
 800105c:	7c1b      	ldrb	r3, [r3, #16]
 800105e:	00db      	lsls	r3, r3, #3
 8001060:	189b      	adds	r3, r3, r2
 8001062:	4a2f      	ldr	r2, [pc, #188]	@ (8001120 <PCD_EP_ISR_Handler+0x558>)
 8001064:	4694      	mov	ip, r2
 8001066:	4463      	add	r3, ip
 8001068:	2200      	movs	r2, #0
 800106a:	801a      	strh	r2, [r3, #0]
 800106c:	e7e3      	b.n	8001036 <PCD_EP_ISR_Handler+0x46e>
              PCD_SET_EP_DBUF1_CNT(hpcd->Instance, ep->num, ep->is_in, 0U);
 800106e:	6822      	ldr	r2, [r4, #0]
 8001070:	00ab      	lsls	r3, r5, #2
 8001072:	195b      	adds	r3, r3, r5
 8001074:	00db      	lsls	r3, r3, #3
 8001076:	18e3      	adds	r3, r4, r3
 8001078:	7c5b      	ldrb	r3, [r3, #17]
 800107a:	2b00      	cmp	r3, #0
 800107c:	d116      	bne.n	80010ac <PCD_EP_ISR_Handler+0x4e4>
 800107e:	3350      	adds	r3, #80	@ 0x50
 8001080:	5ad3      	ldrh	r3, [r2, r3]
 8001082:	18d2      	adds	r2, r2, r3
 8001084:	00ab      	lsls	r3, r5, #2
 8001086:	195b      	adds	r3, r3, r5
 8001088:	00db      	lsls	r3, r3, #3
 800108a:	18e3      	adds	r3, r4, r3
 800108c:	7c1b      	ldrb	r3, [r3, #16]
 800108e:	00db      	lsls	r3, r3, #3
 8001090:	189b      	adds	r3, r3, r2
 8001092:	4a22      	ldr	r2, [pc, #136]	@ (800111c <PCD_EP_ISR_Handler+0x554>)
 8001094:	4694      	mov	ip, r2
 8001096:	4463      	add	r3, ip
 8001098:	881a      	ldrh	r2, [r3, #0]
 800109a:	0592      	lsls	r2, r2, #22
 800109c:	0d92      	lsrs	r2, r2, #22
 800109e:	801a      	strh	r2, [r3, #0]
 80010a0:	881a      	ldrh	r2, [r3, #0]
 80010a2:	4920      	ldr	r1, [pc, #128]	@ (8001124 <PCD_EP_ISR_Handler+0x55c>)
 80010a4:	430a      	orrs	r2, r1
 80010a6:	b292      	uxth	r2, r2
 80010a8:	801a      	strh	r2, [r3, #0]
 80010aa:	e7c4      	b.n	8001036 <PCD_EP_ISR_Handler+0x46e>
 80010ac:	2b01      	cmp	r3, #1
 80010ae:	d1c2      	bne.n	8001036 <PCD_EP_ISR_Handler+0x46e>
 80010b0:	334f      	adds	r3, #79	@ 0x4f
 80010b2:	5ad3      	ldrh	r3, [r2, r3]
 80010b4:	18d2      	adds	r2, r2, r3
 80010b6:	00ab      	lsls	r3, r5, #2
 80010b8:	195b      	adds	r3, r3, r5
 80010ba:	00db      	lsls	r3, r3, #3
 80010bc:	18e3      	adds	r3, r4, r3
 80010be:	7c1b      	ldrb	r3, [r3, #16]
 80010c0:	00db      	lsls	r3, r3, #3
 80010c2:	189b      	adds	r3, r3, r2
 80010c4:	4a15      	ldr	r2, [pc, #84]	@ (800111c <PCD_EP_ISR_Handler+0x554>)
 80010c6:	4694      	mov	ip, r2
 80010c8:	4463      	add	r3, ip
 80010ca:	2200      	movs	r2, #0
 80010cc:	801a      	strh	r2, [r3, #0]
 80010ce:	e7b2      	b.n	8001036 <PCD_EP_ISR_Handler+0x46e>
              ep->xfer_len = 0U;
 80010d0:	1c6f      	adds	r7, r5, #1
 80010d2:	00ba      	lsls	r2, r7, #2
 80010d4:	19d2      	adds	r2, r2, r7
 80010d6:	00d2      	lsls	r2, r2, #3
 80010d8:	2700      	movs	r7, #0
 80010da:	5117      	str	r7, [r2, r4]
 80010dc:	e696      	b.n	8000e0c <PCD_EP_ISR_Handler+0x244>
              ep->xfer_buff += TxPctSize;
 80010de:	00aa      	lsls	r2, r5, #2
 80010e0:	1952      	adds	r2, r2, r5
 80010e2:	00d2      	lsls	r2, r2, #3
 80010e4:	18a2      	adds	r2, r4, r2
 80010e6:	6a56      	ldr	r6, [r2, #36]	@ 0x24
 80010e8:	18f6      	adds	r6, r6, r3
 80010ea:	6256      	str	r6, [r2, #36]	@ 0x24
              ep->xfer_count += TxPctSize;
 80010ec:	3501      	adds	r5, #1
 80010ee:	00aa      	lsls	r2, r5, #2
 80010f0:	1956      	adds	r6, r2, r5
 80010f2:	00f6      	lsls	r6, r6, #3
 80010f4:	19a6      	adds	r6, r4, r6
 80010f6:	6876      	ldr	r6, [r6, #4]
 80010f8:	1952      	adds	r2, r2, r5
 80010fa:	00d2      	lsls	r2, r2, #3
 80010fc:	18a2      	adds	r2, r4, r2
 80010fe:	199b      	adds	r3, r3, r6
 8001100:	6053      	str	r3, [r2, #4]
              (void)USB_EPStartXfer(hpcd->Instance, ep);
 8001102:	f001 f9a1 	bl	8002448 <USB_EPStartXfer>
 8001106:	e564      	b.n	8000bd2 <PCD_EP_ISR_Handler+0xa>
            (void)HAL_PCD_EP_DB_Transmit(hpcd, ep, wEPVal);
 8001108:	003a      	movs	r2, r7
 800110a:	0020      	movs	r0, r4
 800110c:	f7ff fb70 	bl	80007f0 <HAL_PCD_EP_DB_Transmit>
 8001110:	e55f      	b.n	8000bd2 <PCD_EP_ISR_Handler+0xa>
}
 8001112:	2000      	movs	r0, #0
 8001114:	bcc0      	pop	{r6, r7}
 8001116:	46b9      	mov	r9, r7
 8001118:	46b0      	mov	r8, r6
 800111a:	bdf8      	pop	{r3, r4, r5, r6, r7, pc}
 800111c:	00000406 	.word	0x00000406
 8001120:	00000402 	.word	0x00000402
 8001124:	ffff8000 	.word	0xffff8000

08001128 <HAL_PCD_SetAddress>:
{
 8001128:	b570      	push	{r4, r5, r6, lr}
 800112a:	0004      	movs	r4, r0
  __HAL_LOCK(hpcd);
 800112c:	23a4      	movs	r3, #164	@ 0xa4
 800112e:	009b      	lsls	r3, r3, #2
 8001130:	5cc3      	ldrb	r3, [r0, r3]
 8001132:	2b01      	cmp	r3, #1
 8001134:	d00b      	beq.n	800114e <HAL_PCD_SetAddress+0x26>
 8001136:	25a4      	movs	r5, #164	@ 0xa4
 8001138:	00ad      	lsls	r5, r5, #2
 800113a:	2301      	movs	r3, #1
 800113c:	5543      	strb	r3, [r0, r5]
  hpcd->USB_Address = address;
 800113e:	7301      	strb	r1, [r0, #12]
  (void)USB_SetDevAddress(hpcd->Instance, address);
 8001140:	6800      	ldr	r0, [r0, #0]
 8001142:	f001 f957 	bl	80023f4 <USB_SetDevAddress>
  __HAL_UNLOCK(hpcd);
 8001146:	2300      	movs	r3, #0
 8001148:	5563      	strb	r3, [r4, r5]
  return HAL_OK;
 800114a:	2000      	movs	r0, #0
}
 800114c:	bd70      	pop	{r4, r5, r6, pc}
  __HAL_LOCK(hpcd);
 800114e:	2002      	movs	r0, #2
 8001150:	e7fc      	b.n	800114c <HAL_PCD_SetAddress+0x24>
	...

08001154 <HAL_PCD_IRQHandler>:
{
 8001154:	b570      	push	{r4, r5, r6, lr}
 8001156:	0004      	movs	r4, r0
  uint32_t wIstr = USB_ReadInterrupts(hpcd->Instance);
 8001158:	6800      	ldr	r0, [r0, #0]
 800115a:	f001 f95d 	bl	8002418 <USB_ReadInterrupts>
  if ((wIstr & USB_ISTR_CTR) == USB_ISTR_CTR)
 800115e:	0403      	lsls	r3, r0, #16
 8001160:	d418      	bmi.n	8001194 <HAL_PCD_IRQHandler+0x40>
  if ((wIstr & USB_ISTR_RESET) == USB_ISTR_RESET)
 8001162:	0543      	lsls	r3, r0, #21
 8001164:	d41a      	bmi.n	800119c <HAL_PCD_IRQHandler+0x48>
  if ((wIstr & USB_ISTR_PMAOVR) == USB_ISTR_PMAOVR)
 8001166:	0443      	lsls	r3, r0, #17
 8001168:	d426      	bmi.n	80011b8 <HAL_PCD_IRQHandler+0x64>
  if ((wIstr & USB_ISTR_ERR) == USB_ISTR_ERR)
 800116a:	0483      	lsls	r3, r0, #18
 800116c:	d42b      	bmi.n	80011c6 <HAL_PCD_IRQHandler+0x72>
  if ((wIstr & USB_ISTR_WKUP) == USB_ISTR_WKUP)
 800116e:	04c3      	lsls	r3, r0, #19
 8001170:	d430      	bmi.n	80011d4 <HAL_PCD_IRQHandler+0x80>
  if ((wIstr & USB_ISTR_SUSP) == USB_ISTR_SUSP)
 8001172:	0503      	lsls	r3, r0, #20
 8001174:	d451      	bmi.n	800121a <HAL_PCD_IRQHandler+0xc6>
  if ((wIstr & USB_ISTR_L1REQ) == USB_ISTR_L1REQ)
 8001176:	0603      	lsls	r3, r0, #24
 8001178:	d500      	bpl.n	800117c <HAL_PCD_IRQHandler+0x28>
 800117a:	e065      	b.n	8001248 <HAL_PCD_IRQHandler+0xf4>
  if ((wIstr & USB_ISTR_SOF) == USB_ISTR_SOF)
 800117c:	0583      	lsls	r3, r0, #22
 800117e:	d500      	bpl.n	8001182 <HAL_PCD_IRQHandler+0x2e>
 8001180:	e090      	b.n	80012a4 <HAL_PCD_IRQHandler+0x150>
  if ((wIstr & USB_ISTR_ESOF) == USB_ISTR_ESOF)
 8001182:	05c0      	lsls	r0, r0, #23
 8001184:	d51e      	bpl.n	80011c4 <HAL_PCD_IRQHandler+0x70>
    __HAL_PCD_CLEAR_FLAG(hpcd, USB_ISTR_ESOF);
 8001186:	6821      	ldr	r1, [r4, #0]
 8001188:	2244      	movs	r2, #68	@ 0x44
 800118a:	5a8b      	ldrh	r3, [r1, r2]
 800118c:	484a      	ldr	r0, [pc, #296]	@ (80012b8 <HAL_PCD_IRQHandler+0x164>)
 800118e:	4003      	ands	r3, r0
 8001190:	528b      	strh	r3, [r1, r2]
    return;
 8001192:	e017      	b.n	80011c4 <HAL_PCD_IRQHandler+0x70>
    (void)PCD_EP_ISR_Handler(hpcd);
 8001194:	0020      	movs	r0, r4
 8001196:	f7ff fd17 	bl	8000bc8 <PCD_EP_ISR_Handler>
    return;
 800119a:	e013      	b.n	80011c4 <HAL_PCD_IRQHandler+0x70>
    __HAL_PCD_CLEAR_FLAG(hpcd, USB_ISTR_RESET);
 800119c:	6821      	ldr	r1, [r4, #0]
 800119e:	2244      	movs	r2, #68	@ 0x44
 80011a0:	5a8b      	ldrh	r3, [r1, r2]
 80011a2:	4846      	ldr	r0, [pc, #280]	@ (80012bc <HAL_PCD_IRQHandler+0x168>)
 80011a4:	4003      	ands	r3, r0
 80011a6:	528b      	strh	r3, [r1, r2]
    HAL_PCD_ResetCallback(hpcd);
 80011a8:	0020      	movs	r0, r4
 80011aa:	f001 fd81 	bl	8002cb0 <HAL_PCD_ResetCallback>
    (void)HAL_PCD_SetAddress(hpcd, 0U);
 80011ae:	2100      	movs	r1, #0
 80011b0:	0020      	movs	r0, r4
 80011b2:	f7ff ffb9 	bl	8001128 <HAL_PCD_SetAddress>
    return;
 80011b6:	e005      	b.n	80011c4 <HAL_PCD_IRQHandler+0x70>
    __HAL_PCD_CLEAR_FLAG(hpcd, USB_ISTR_PMAOVR);
 80011b8:	6821      	ldr	r1, [r4, #0]
 80011ba:	2244      	movs	r2, #68	@ 0x44
 80011bc:	5a8b      	ldrh	r3, [r1, r2]
 80011be:	4840      	ldr	r0, [pc, #256]	@ (80012c0 <HAL_PCD_IRQHandler+0x16c>)
 80011c0:	4003      	ands	r3, r0
 80011c2:	528b      	strh	r3, [r1, r2]
}
 80011c4:	bd70      	pop	{r4, r5, r6, pc}
    __HAL_PCD_CLEAR_FLAG(hpcd, USB_ISTR_ERR);
 80011c6:	6821      	ldr	r1, [r4, #0]
 80011c8:	2244      	movs	r2, #68	@ 0x44
 80011ca:	5a8b      	ldrh	r3, [r1, r2]
 80011cc:	483d      	ldr	r0, [pc, #244]	@ (80012c4 <HAL_PCD_IRQHandler+0x170>)
 80011ce:	4003      	ands	r3, r0
 80011d0:	528b      	strh	r3, [r1, r2]
    return;
 80011d2:	e7f7      	b.n	80011c4 <HAL_PCD_IRQHandler+0x70>
    hpcd->Instance->CNTR &= (uint16_t) ~(USB_CNTR_LPMODE);
 80011d4:	6821      	ldr	r1, [r4, #0]
 80011d6:	2340      	movs	r3, #64	@ 0x40
 80011d8:	5aca      	ldrh	r2, [r1, r3]
 80011da:	2004      	movs	r0, #4
 80011dc:	4382      	bics	r2, r0
 80011de:	52ca      	strh	r2, [r1, r3]
    hpcd->Instance->CNTR &= (uint16_t) ~(USB_CNTR_FSUSP);
 80011e0:	6821      	ldr	r1, [r4, #0]
 80011e2:	5aca      	ldrh	r2, [r1, r3]
 80011e4:	3004      	adds	r0, #4
 80011e6:	4382      	bics	r2, r0
 80011e8:	52ca      	strh	r2, [r1, r3]
    if (hpcd->LPM_State == LPM_L1)
 80011ea:	23b2      	movs	r3, #178	@ 0xb2
 80011ec:	009b      	lsls	r3, r3, #2
 80011ee:	5ce3      	ldrb	r3, [r4, r3]
 80011f0:	2b01      	cmp	r3, #1
 80011f2:	d009      	beq.n	8001208 <HAL_PCD_IRQHandler+0xb4>
    HAL_PCD_ResumeCallback(hpcd);
 80011f4:	0020      	movs	r0, r4
 80011f6:	f001 fd7f 	bl	8002cf8 <HAL_PCD_ResumeCallback>
    __HAL_PCD_CLEAR_FLAG(hpcd, USB_ISTR_WKUP);
 80011fa:	6821      	ldr	r1, [r4, #0]
 80011fc:	2244      	movs	r2, #68	@ 0x44
 80011fe:	5a8b      	ldrh	r3, [r1, r2]
 8001200:	4831      	ldr	r0, [pc, #196]	@ (80012c8 <HAL_PCD_IRQHandler+0x174>)
 8001202:	4003      	ands	r3, r0
 8001204:	528b      	strh	r3, [r1, r2]
    return;
 8001206:	e7dd      	b.n	80011c4 <HAL_PCD_IRQHandler+0x70>
      hpcd->LPM_State = LPM_L0;
 8001208:	23b2      	movs	r3, #178	@ 0xb2
 800120a:	009b      	lsls	r3, r3, #2
 800120c:	2200      	movs	r2, #0
 800120e:	54e2      	strb	r2, [r4, r3]
      HAL_PCDEx_LPM_Callback(hpcd, PCD_LPM_L0_ACTIVE);
 8001210:	2100      	movs	r1, #0
 8001212:	0020      	movs	r0, r4
 8001214:	f000 f9d7 	bl	80015c6 <HAL_PCDEx_LPM_Callback>
 8001218:	e7ec      	b.n	80011f4 <HAL_PCD_IRQHandler+0xa0>
    hpcd->Instance->CNTR |= (uint16_t)USB_CNTR_FSUSP;
 800121a:	6821      	ldr	r1, [r4, #0]
 800121c:	2240      	movs	r2, #64	@ 0x40
 800121e:	5a8b      	ldrh	r3, [r1, r2]
 8001220:	2008      	movs	r0, #8
 8001222:	4303      	orrs	r3, r0
 8001224:	b29b      	uxth	r3, r3
 8001226:	528b      	strh	r3, [r1, r2]
    __HAL_PCD_CLEAR_FLAG(hpcd, USB_ISTR_SUSP);
 8001228:	6820      	ldr	r0, [r4, #0]
 800122a:	2144      	movs	r1, #68	@ 0x44
 800122c:	5a43      	ldrh	r3, [r0, r1]
 800122e:	4d27      	ldr	r5, [pc, #156]	@ (80012cc <HAL_PCD_IRQHandler+0x178>)
 8001230:	402b      	ands	r3, r5
 8001232:	5243      	strh	r3, [r0, r1]
    hpcd->Instance->CNTR |= (uint16_t)USB_CNTR_LPMODE;
 8001234:	6821      	ldr	r1, [r4, #0]
 8001236:	5a8b      	ldrh	r3, [r1, r2]
 8001238:	2004      	movs	r0, #4
 800123a:	4303      	orrs	r3, r0
 800123c:	b29b      	uxth	r3, r3
 800123e:	528b      	strh	r3, [r1, r2]
    HAL_PCD_SuspendCallback(hpcd);
 8001240:	0020      	movs	r0, r4
 8001242:	f001 fd47 	bl	8002cd4 <HAL_PCD_SuspendCallback>
    return;
 8001246:	e7bd      	b.n	80011c4 <HAL_PCD_IRQHandler+0x70>
    __HAL_PCD_CLEAR_FLAG(hpcd, USB_ISTR_L1REQ);
 8001248:	6821      	ldr	r1, [r4, #0]
 800124a:	2244      	movs	r2, #68	@ 0x44
 800124c:	5a8b      	ldrh	r3, [r1, r2]
 800124e:	2080      	movs	r0, #128	@ 0x80
 8001250:	4383      	bics	r3, r0
 8001252:	528b      	strh	r3, [r1, r2]
    if (hpcd->LPM_State == LPM_L0)
 8001254:	23b2      	movs	r3, #178	@ 0xb2
 8001256:	009b      	lsls	r3, r3, #2
 8001258:	5ce3      	ldrb	r3, [r4, r3]
 800125a:	2b00      	cmp	r3, #0
 800125c:	d11e      	bne.n	800129c <HAL_PCD_IRQHandler+0x148>
      hpcd->Instance->CNTR |= (uint16_t)USB_CNTR_LPMODE;
 800125e:	6821      	ldr	r1, [r4, #0]
 8001260:	3a04      	subs	r2, #4
 8001262:	5a8b      	ldrh	r3, [r1, r2]
 8001264:	2004      	movs	r0, #4
 8001266:	4303      	orrs	r3, r0
 8001268:	b29b      	uxth	r3, r3
 800126a:	528b      	strh	r3, [r1, r2]
      hpcd->Instance->CNTR |= (uint16_t)USB_CNTR_FSUSP;
 800126c:	6821      	ldr	r1, [r4, #0]
 800126e:	5a8b      	ldrh	r3, [r1, r2]
 8001270:	2008      	movs	r0, #8
 8001272:	4303      	orrs	r3, r0
 8001274:	b29b      	uxth	r3, r3
 8001276:	528b      	strh	r3, [r1, r2]
      hpcd->LPM_State = LPM_L1;
 8001278:	23b2      	movs	r3, #178	@ 0xb2
 800127a:	009b      	lsls	r3, r3, #2
 800127c:	3a3f      	subs	r2, #63	@ 0x3f
 800127e:	54e2      	strb	r2, [r4, r3]
      hpcd->BESL = ((uint32_t)hpcd->Instance->LPMCSR & USB_LPMCSR_BESL) >> 2;
 8001280:	6822      	ldr	r2, [r4, #0]
 8001282:	2354      	movs	r3, #84	@ 0x54
 8001284:	5ad2      	ldrh	r2, [r2, r3]
 8001286:	0892      	lsrs	r2, r2, #2
 8001288:	3b18      	subs	r3, #24
 800128a:	4013      	ands	r3, r2
 800128c:	22b3      	movs	r2, #179	@ 0xb3
 800128e:	0092      	lsls	r2, r2, #2
 8001290:	50a3      	str	r3, [r4, r2]
      HAL_PCDEx_LPM_Callback(hpcd, PCD_LPM_L1_ACTIVE);
 8001292:	2101      	movs	r1, #1
 8001294:	0020      	movs	r0, r4
 8001296:	f000 f996 	bl	80015c6 <HAL_PCDEx_LPM_Callback>
 800129a:	e793      	b.n	80011c4 <HAL_PCD_IRQHandler+0x70>
      HAL_PCD_SuspendCallback(hpcd);
 800129c:	0020      	movs	r0, r4
 800129e:	f001 fd19 	bl	8002cd4 <HAL_PCD_SuspendCallback>
    return;
 80012a2:	e78f      	b.n	80011c4 <HAL_PCD_IRQHandler+0x70>
    __HAL_PCD_CLEAR_FLAG(hpcd, USB_ISTR_SOF);
 80012a4:	6821      	ldr	r1, [r4, #0]
 80012a6:	2244      	movs	r2, #68	@ 0x44
 80012a8:	5a8b      	ldrh	r3, [r1, r2]
 80012aa:	4809      	ldr	r0, [pc, #36]	@ (80012d0 <HAL_PCD_IRQHandler+0x17c>)
 80012ac:	4003      	ands	r3, r0
 80012ae:	528b      	strh	r3, [r1, r2]
    HAL_PCD_SOFCallback(hpcd);
 80012b0:	0020      	movs	r0, r4
 80012b2:	f001 fcf6 	bl	8002ca2 <HAL_PCD_SOFCallback>
    return;
 80012b6:	e785      	b.n	80011c4 <HAL_PCD_IRQHandler+0x70>
 80012b8:	fffffeff 	.word	0xfffffeff
 80012bc:	fffffbff 	.word	0xfffffbff
 80012c0:	ffffbfff 	.word	0xffffbfff
 80012c4:	ffffdfff 	.word	0xffffdfff
 80012c8:	ffffefff 	.word	0xffffefff
 80012cc:	fffff7ff 	.word	0xfffff7ff
 80012d0:	fffffdff 	.word	0xfffffdff

080012d4 <HAL_PCD_EP_Open>:
{
 80012d4:	b570      	push	{r4, r5, r6, lr}
 80012d6:	0004      	movs	r4, r0
 80012d8:	000d      	movs	r5, r1
  if ((ep_addr & 0x80U) == 0x80U)
 80012da:	b249      	sxtb	r1, r1
 80012dc:	2900      	cmp	r1, #0
 80012de:	db25      	blt.n	800132c <HAL_PCD_EP_Open+0x58>
    ep = &hpcd->OUT_ep[ep_addr & EP_ADDR_MSK];
 80012e0:	2607      	movs	r6, #7
 80012e2:	402e      	ands	r6, r5
 80012e4:	00b0      	lsls	r0, r6, #2
 80012e6:	1981      	adds	r1, r0, r6
 80012e8:	00c9      	lsls	r1, r1, #3
 80012ea:	3151      	adds	r1, #81	@ 0x51
 80012ec:	31ff      	adds	r1, #255	@ 0xff
 80012ee:	1861      	adds	r1, r4, r1
    ep->is_in = 0U;
 80012f0:	1980      	adds	r0, r0, r6
 80012f2:	00c0      	lsls	r0, r0, #3
 80012f4:	1820      	adds	r0, r4, r0
 80012f6:	3052      	adds	r0, #82	@ 0x52
 80012f8:	30ff      	adds	r0, #255	@ 0xff
 80012fa:	2600      	movs	r6, #0
 80012fc:	7006      	strb	r6, [r0, #0]
  ep->num = ep_addr & EP_ADDR_MSK;
 80012fe:	2007      	movs	r0, #7
 8001300:	4028      	ands	r0, r5
 8001302:	7008      	strb	r0, [r1, #0]
  ep->maxpacket = ep_mps;
 8001304:	610a      	str	r2, [r1, #16]
  ep->type = ep_type;
 8001306:	70cb      	strb	r3, [r1, #3]
  if (ep_type == EP_TYPE_BULK)
 8001308:	2b02      	cmp	r3, #2
 800130a:	d01c      	beq.n	8001346 <HAL_PCD_EP_Open+0x72>
  __HAL_LOCK(hpcd);
 800130c:	23a4      	movs	r3, #164	@ 0xa4
 800130e:	009b      	lsls	r3, r3, #2
 8001310:	5ce3      	ldrb	r3, [r4, r3]
 8001312:	2b01      	cmp	r3, #1
 8001314:	d01a      	beq.n	800134c <HAL_PCD_EP_Open+0x78>
 8001316:	25a4      	movs	r5, #164	@ 0xa4
 8001318:	00ad      	lsls	r5, r5, #2
 800131a:	2301      	movs	r3, #1
 800131c:	5563      	strb	r3, [r4, r5]
  (void)USB_ActivateEndpoint(hpcd->Instance, ep);
 800131e:	6820      	ldr	r0, [r4, #0]
 8001320:	f000 fdaa 	bl	8001e78 <USB_ActivateEndpoint>
  __HAL_UNLOCK(hpcd);
 8001324:	2300      	movs	r3, #0
 8001326:	5563      	strb	r3, [r4, r5]
  return ret;
 8001328:	2000      	movs	r0, #0
}
 800132a:	bd70      	pop	{r4, r5, r6, pc}
    ep = &hpcd->IN_ep[ep_addr & EP_ADDR_MSK];
 800132c:	2607      	movs	r6, #7
 800132e:	402e      	ands	r6, r5
 8001330:	00b0      	lsls	r0, r6, #2
 8001332:	1981      	adds	r1, r0, r6
 8001334:	00c9      	lsls	r1, r1, #3
 8001336:	3110      	adds	r1, #16
 8001338:	1861      	adds	r1, r4, r1
    ep->is_in = 1U;
 800133a:	1980      	adds	r0, r0, r6
 800133c:	00c0      	lsls	r0, r0, #3
 800133e:	1820      	adds	r0, r4, r0
 8001340:	2601      	movs	r6, #1
 8001342:	7446      	strb	r6, [r0, #17]
 8001344:	e7db      	b.n	80012fe <HAL_PCD_EP_Open+0x2a>
    ep->data_pid_start = 0U;
 8001346:	2300      	movs	r3, #0
 8001348:	710b      	strb	r3, [r1, #4]
 800134a:	e7df      	b.n	800130c <HAL_PCD_EP_Open+0x38>
  __HAL_LOCK(hpcd);
 800134c:	2002      	movs	r0, #2
 800134e:	e7ec      	b.n	800132a <HAL_PCD_EP_Open+0x56>

08001350 <HAL_PCD_EP_Close>:
{
 8001350:	b570      	push	{r4, r5, r6, lr}
 8001352:	0004      	movs	r4, r0
 8001354:	000a      	movs	r2, r1
  if ((ep_addr & 0x80U) == 0x80U)
 8001356:	b24b      	sxtb	r3, r1
 8001358:	2b00      	cmp	r3, #0
 800135a:	db21      	blt.n	80013a0 <HAL_PCD_EP_Close+0x50>
    ep = &hpcd->OUT_ep[ep_addr & EP_ADDR_MSK];
 800135c:	2007      	movs	r0, #7
 800135e:	4008      	ands	r0, r1
 8001360:	0083      	lsls	r3, r0, #2
 8001362:	1819      	adds	r1, r3, r0
 8001364:	00c9      	lsls	r1, r1, #3
 8001366:	3151      	adds	r1, #81	@ 0x51
 8001368:	31ff      	adds	r1, #255	@ 0xff
 800136a:	1861      	adds	r1, r4, r1
    ep->is_in = 0U;
 800136c:	181b      	adds	r3, r3, r0
 800136e:	00db      	lsls	r3, r3, #3
 8001370:	18e3      	adds	r3, r4, r3
 8001372:	3352      	adds	r3, #82	@ 0x52
 8001374:	33ff      	adds	r3, #255	@ 0xff
 8001376:	2000      	movs	r0, #0
 8001378:	7018      	strb	r0, [r3, #0]
  ep->num = ep_addr & EP_ADDR_MSK;
 800137a:	2307      	movs	r3, #7
 800137c:	4013      	ands	r3, r2
 800137e:	700b      	strb	r3, [r1, #0]
  __HAL_LOCK(hpcd);
 8001380:	23a4      	movs	r3, #164	@ 0xa4
 8001382:	009b      	lsls	r3, r3, #2
 8001384:	5ce3      	ldrb	r3, [r4, r3]
 8001386:	2b01      	cmp	r3, #1
 8001388:	d017      	beq.n	80013ba <HAL_PCD_EP_Close+0x6a>
 800138a:	25a4      	movs	r5, #164	@ 0xa4
 800138c:	00ad      	lsls	r5, r5, #2
 800138e:	2301      	movs	r3, #1
 8001390:	5563      	strb	r3, [r4, r5]
  (void)USB_DeactivateEndpoint(hpcd->Instance, ep);
 8001392:	6820      	ldr	r0, [r4, #0]
 8001394:	f000 ff02 	bl	800219c <USB_DeactivateEndpoint>
  __HAL_UNLOCK(hpcd);
 8001398:	2300      	movs	r3, #0
 800139a:	5563      	strb	r3, [r4, r5]
  return HAL_OK;
 800139c:	2000      	movs	r0, #0
}
 800139e:	bd70      	pop	{r4, r5, r6, pc}
    ep = &hpcd->IN_ep[ep_addr & EP_ADDR_MSK];
 80013a0:	2007      	movs	r0, #7
 80013a2:	4008      	ands	r0, r1
 80013a4:	0083      	lsls	r3, r0, #2
 80013a6:	1819      	adds	r1, r3, r0
 80013a8:	00c9      	lsls	r1, r1, #3
 80013aa:	3110      	adds	r1, #16
 80013ac:	1861      	adds	r1, r4, r1
    ep->is_in = 1U;
 80013ae:	181b      	adds	r3, r3, r0
 80013b0:	00db      	lsls	r3, r3, #3
 80013b2:	18e3      	adds	r3, r4, r3
 80013b4:	2001      	movs	r0, #1
 80013b6:	7458      	strb	r0, [r3, #17]
 80013b8:	e7df      	b.n	800137a <HAL_PCD_EP_Close+0x2a>
  __HAL_LOCK(hpcd);
 80013ba:	2002      	movs	r0, #2
 80013bc:	e7ef      	b.n	800139e <HAL_PCD_EP_Close+0x4e>

080013be <HAL_PCD_EP_Receive>:
{
 80013be:	b5f8      	push	{r3, r4, r5, r6, r7, lr}
  ep = &hpcd->OUT_ep[ep_addr & EP_ADDR_MSK];
 80013c0:	2607      	movs	r6, #7
 80013c2:	400e      	ands	r6, r1
 80013c4:	00b4      	lsls	r4, r6, #2
 80013c6:	19a1      	adds	r1, r4, r6
 80013c8:	00c9      	lsls	r1, r1, #3
 80013ca:	3151      	adds	r1, #81	@ 0x51
 80013cc:	31ff      	adds	r1, #255	@ 0xff
 80013ce:	1841      	adds	r1, r0, r1
  ep->xfer_buff = pBuf;
 80013d0:	19a5      	adds	r5, r4, r6
 80013d2:	00ed      	lsls	r5, r5, #3
 80013d4:	1945      	adds	r5, r0, r5
 80013d6:	002f      	movs	r7, r5
 80013d8:	3765      	adds	r7, #101	@ 0x65
 80013da:	37ff      	adds	r7, #255	@ 0xff
 80013dc:	603a      	str	r2, [r7, #0]
  ep->xfer_len = len;
 80013de:	002a      	movs	r2, r5
 80013e0:	3269      	adds	r2, #105	@ 0x69
 80013e2:	32ff      	adds	r2, #255	@ 0xff
 80013e4:	6013      	str	r3, [r2, #0]
  ep->xfer_count = 0U;
 80013e6:	3204      	adds	r2, #4
 80013e8:	2300      	movs	r3, #0
 80013ea:	6013      	str	r3, [r2, #0]
  ep->is_in = 0U;
 80013ec:	3552      	adds	r5, #82	@ 0x52
 80013ee:	35ff      	adds	r5, #255	@ 0xff
 80013f0:	702b      	strb	r3, [r5, #0]
  ep->num = ep_addr & EP_ADDR_MSK;
 80013f2:	19a4      	adds	r4, r4, r6
 80013f4:	00e4      	lsls	r4, r4, #3
 80013f6:	1904      	adds	r4, r0, r4
 80013f8:	3451      	adds	r4, #81	@ 0x51
 80013fa:	34ff      	adds	r4, #255	@ 0xff
 80013fc:	7026      	strb	r6, [r4, #0]
  (void)USB_EPStartXfer(hpcd->Instance, ep);
 80013fe:	6800      	ldr	r0, [r0, #0]
 8001400:	f001 f822 	bl	8002448 <USB_EPStartXfer>
}
 8001404:	2000      	movs	r0, #0
 8001406:	bdf8      	pop	{r3, r4, r5, r6, r7, pc}

08001408 <HAL_PCD_EP_Transmit>:
{
 8001408:	b5f0      	push	{r4, r5, r6, r7, lr}
 800140a:	46d6      	mov	lr, sl
 800140c:	464f      	mov	r7, r9
 800140e:	4646      	mov	r6, r8
 8001410:	b5c0      	push	{r6, r7, lr}
 8001412:	4699      	mov	r9, r3
  ep = &hpcd->IN_ep[ep_addr & EP_ADDR_MSK];
 8001414:	2507      	movs	r5, #7
 8001416:	400d      	ands	r5, r1
 8001418:	00ac      	lsls	r4, r5, #2
 800141a:	1961      	adds	r1, r4, r5
 800141c:	00c9      	lsls	r1, r1, #3
 800141e:	3110      	adds	r1, #16
 8001420:	468a      	mov	sl, r1
 8001422:	4482      	add	sl, r0
  ep->xfer_buff = pBuf;
 8001424:	1966      	adds	r6, r4, r5
 8001426:	00f6      	lsls	r6, r6, #3
 8001428:	1986      	adds	r6, r0, r6
 800142a:	6272      	str	r2, [r6, #36]	@ 0x24
  ep->xfer_len = len;
 800142c:	1c6f      	adds	r7, r5, #1
 800142e:	00ba      	lsls	r2, r7, #2
 8001430:	19d1      	adds	r1, r2, r7
 8001432:	00c9      	lsls	r1, r1, #3
 8001434:	500b      	str	r3, [r1, r0]
  ep->xfer_fill_db = 1U;
 8001436:	2134      	movs	r1, #52	@ 0x34
 8001438:	4688      	mov	r8, r1
 800143a:	44b0      	add	r8, r6
 800143c:	3933      	subs	r1, #51	@ 0x33
 800143e:	468c      	mov	ip, r1
 8001440:	4641      	mov	r1, r8
 8001442:	4663      	mov	r3, ip
 8001444:	700b      	strb	r3, [r1, #0]
  ep->xfer_len_db = len;
 8001446:	464b      	mov	r3, r9
 8001448:	6333      	str	r3, [r6, #48]	@ 0x30
  ep->xfer_count = 0U;
 800144a:	19d2      	adds	r2, r2, r7
 800144c:	00d2      	lsls	r2, r2, #3
 800144e:	1882      	adds	r2, r0, r2
 8001450:	2300      	movs	r3, #0
 8001452:	6053      	str	r3, [r2, #4]
  ep->is_in = 1U;
 8001454:	4663      	mov	r3, ip
 8001456:	7473      	strb	r3, [r6, #17]
  ep->num = ep_addr & EP_ADDR_MSK;
 8001458:	7435      	strb	r5, [r6, #16]
  (void)USB_EPStartXfer(hpcd->Instance, ep);
 800145a:	6800      	ldr	r0, [r0, #0]
 800145c:	4651      	mov	r1, sl
 800145e:	f000 fff3 	bl	8002448 <USB_EPStartXfer>
}
 8001462:	2000      	movs	r0, #0
 8001464:	bce0      	pop	{r5, r6, r7}
 8001466:	46ba      	mov	sl, r7
 8001468:	46b1      	mov	r9, r6
 800146a:	46a8      	mov	r8, r5
 800146c:	bdf0      	pop	{r4, r5, r6, r7, pc}

0800146e <HAL_PCD_EP_SetStall>:
{
 800146e:	b570      	push	{r4, r5, r6, lr}
 8001470:	0004      	movs	r4, r0
 8001472:	000b      	movs	r3, r1
  if (((uint32_t)ep_addr & EP_ADDR_MSK) > hpcd->Init.dev_endpoints)
 8001474:	2207      	movs	r2, #7
 8001476:	400a      	ands	r2, r1
 8001478:	7901      	ldrb	r1, [r0, #4]
 800147a:	4291      	cmp	r1, r2
 800147c:	d32d      	bcc.n	80014da <HAL_PCD_EP_SetStall+0x6c>
  if ((0x80U & ep_addr) == 0x80U)
 800147e:	b259      	sxtb	r1, r3
 8001480:	2900      	cmp	r1, #0
 8001482:	db1f      	blt.n	80014c4 <HAL_PCD_EP_SetStall+0x56>
    ep = &hpcd->OUT_ep[ep_addr];
 8001484:	0098      	lsls	r0, r3, #2
 8001486:	18c1      	adds	r1, r0, r3
 8001488:	00c9      	lsls	r1, r1, #3
 800148a:	3151      	adds	r1, #81	@ 0x51
 800148c:	31ff      	adds	r1, #255	@ 0xff
 800148e:	1861      	adds	r1, r4, r1
    ep->is_in = 0U;
 8001490:	18c0      	adds	r0, r0, r3
 8001492:	00c0      	lsls	r0, r0, #3
 8001494:	1820      	adds	r0, r4, r0
 8001496:	3052      	adds	r0, #82	@ 0x52
 8001498:	30ff      	adds	r0, #255	@ 0xff
 800149a:	2300      	movs	r3, #0
 800149c:	7003      	strb	r3, [r0, #0]
  ep->is_stall = 1U;
 800149e:	2301      	movs	r3, #1
 80014a0:	708b      	strb	r3, [r1, #2]
  ep->num = ep_addr & EP_ADDR_MSK;
 80014a2:	700a      	strb	r2, [r1, #0]
  __HAL_LOCK(hpcd);
 80014a4:	23a4      	movs	r3, #164	@ 0xa4
 80014a6:	009b      	lsls	r3, r3, #2
 80014a8:	5ce3      	ldrb	r3, [r4, r3]
 80014aa:	2b01      	cmp	r3, #1
 80014ac:	d017      	beq.n	80014de <HAL_PCD_EP_SetStall+0x70>
 80014ae:	25a4      	movs	r5, #164	@ 0xa4
 80014b0:	00ad      	lsls	r5, r5, #2
 80014b2:	2301      	movs	r3, #1
 80014b4:	5563      	strb	r3, [r4, r5]
  (void)USB_EPSetStall(hpcd->Instance, ep);
 80014b6:	6820      	ldr	r0, [r4, #0]
 80014b8:	f000 ff28 	bl	800230c <USB_EPSetStall>
  __HAL_UNLOCK(hpcd);
 80014bc:	2300      	movs	r3, #0
 80014be:	5563      	strb	r3, [r4, r5]
  return HAL_OK;
 80014c0:	2000      	movs	r0, #0
}
 80014c2:	bd70      	pop	{r4, r5, r6, pc}
    ep = &hpcd->IN_ep[ep_addr & EP_ADDR_MSK];
 80014c4:	0093      	lsls	r3, r2, #2
 80014c6:	1899      	adds	r1, r3, r2
 80014c8:	00c9      	lsls	r1, r1, #3
 80014ca:	3110      	adds	r1, #16
 80014cc:	1841      	adds	r1, r0, r1
    ep->is_in = 1U;
 80014ce:	189b      	adds	r3, r3, r2
 80014d0:	00db      	lsls	r3, r3, #3
 80014d2:	18c3      	adds	r3, r0, r3
 80014d4:	2001      	movs	r0, #1
 80014d6:	7458      	strb	r0, [r3, #17]
 80014d8:	e7e1      	b.n	800149e <HAL_PCD_EP_SetStall+0x30>
    return HAL_ERROR;
 80014da:	2001      	movs	r0, #1
 80014dc:	e7f1      	b.n	80014c2 <HAL_PCD_EP_SetStall+0x54>
  __HAL_LOCK(hpcd);
 80014de:	2002      	movs	r0, #2
 80014e0:	e7ef      	b.n	80014c2 <HAL_PCD_EP_SetStall+0x54>

080014e2 <HAL_PCD_EP_ClrStall>:
{
 80014e2:	b570      	push	{r4, r5, r6, lr}
 80014e4:	0004      	movs	r4, r0
 80014e6:	000b      	movs	r3, r1
  if (((uint32_t)ep_addr & 0x0FU) > hpcd->Init.dev_endpoints)
 80014e8:	7901      	ldrb	r1, [r0, #4]
 80014ea:	220f      	movs	r2, #15
 80014ec:	401a      	ands	r2, r3
 80014ee:	4291      	cmp	r1, r2
 80014f0:	d333      	bcc.n	800155a <HAL_PCD_EP_ClrStall+0x78>
  if ((0x80U & ep_addr) == 0x80U)
 80014f2:	b25a      	sxtb	r2, r3
 80014f4:	2a00      	cmp	r2, #0
 80014f6:	db23      	blt.n	8001540 <HAL_PCD_EP_ClrStall+0x5e>
    ep = &hpcd->OUT_ep[ep_addr & EP_ADDR_MSK];
 80014f8:	2007      	movs	r0, #7
 80014fa:	4018      	ands	r0, r3
 80014fc:	0082      	lsls	r2, r0, #2
 80014fe:	1811      	adds	r1, r2, r0
 8001500:	00c9      	lsls	r1, r1, #3
 8001502:	3151      	adds	r1, #81	@ 0x51
 8001504:	31ff      	adds	r1, #255	@ 0xff
 8001506:	1861      	adds	r1, r4, r1
    ep->is_in = 0U;
 8001508:	1812      	adds	r2, r2, r0
 800150a:	00d2      	lsls	r2, r2, #3
 800150c:	18a2      	adds	r2, r4, r2
 800150e:	3252      	adds	r2, #82	@ 0x52
 8001510:	32ff      	adds	r2, #255	@ 0xff
 8001512:	2000      	movs	r0, #0
 8001514:	7010      	strb	r0, [r2, #0]
  ep->is_stall = 0U;
 8001516:	2200      	movs	r2, #0
 8001518:	708a      	strb	r2, [r1, #2]
  ep->num = ep_addr & EP_ADDR_MSK;
 800151a:	3207      	adds	r2, #7
 800151c:	4013      	ands	r3, r2
 800151e:	700b      	strb	r3, [r1, #0]
  __HAL_LOCK(hpcd);
 8001520:	23a4      	movs	r3, #164	@ 0xa4
 8001522:	009b      	lsls	r3, r3, #2
 8001524:	5ce3      	ldrb	r3, [r4, r3]
 8001526:	2b01      	cmp	r3, #1
 8001528:	d019      	beq.n	800155e <HAL_PCD_EP_ClrStall+0x7c>
 800152a:	25a4      	movs	r5, #164	@ 0xa4
 800152c:	00ad      	lsls	r5, r5, #2
 800152e:	2301      	movs	r3, #1
 8001530:	5563      	strb	r3, [r4, r5]
  (void)USB_EPClearStall(hpcd->Instance, ep);
 8001532:	6820      	ldr	r0, [r4, #0]
 8001534:	f000 ff10 	bl	8002358 <USB_EPClearStall>
  __HAL_UNLOCK(hpcd);
 8001538:	2300      	movs	r3, #0
 800153a:	5563      	strb	r3, [r4, r5]
  return HAL_OK;
 800153c:	2000      	movs	r0, #0
}
 800153e:	bd70      	pop	{r4, r5, r6, pc}
    ep = &hpcd->IN_ep[ep_addr & EP_ADDR_MSK];
 8001540:	2007      	movs	r0, #7
 8001542:	4018      	ands	r0, r3
 8001544:	0082      	lsls	r2, r0, #2
 8001546:	1811      	adds	r1, r2, r0
 8001548:	00c9      	lsls	r1, r1, #3
 800154a:	3110      	adds	r1, #16
 800154c:	1861      	adds	r1, r4, r1
    ep->is_in = 1U;
 800154e:	1812      	adds	r2, r2, r0
 8001550:	00d2      	lsls	r2, r2, #3
 8001552:	18a2      	adds	r2, r4, r2
 8001554:	2001      	movs	r0, #1
 8001556:	7450      	strb	r0, [r2, #17]
 8001558:	e7dd      	b.n	8001516 <HAL_PCD_EP_ClrStall+0x34>
    return HAL_ERROR;
 800155a:	2001      	movs	r0, #1
 800155c:	e7ef      	b.n	800153e <HAL_PCD_EP_ClrStall+0x5c>
  __HAL_LOCK(hpcd);
 800155e:	2002      	movs	r0, #2
 8001560:	e7ed      	b.n	800153e <HAL_PCD_EP_ClrStall+0x5c>

08001562 <HAL_PCDEx_PMAConfig>:
  * @retval HAL status
  */

HAL_StatusTypeDef  HAL_PCDEx_PMAConfig(PCD_HandleTypeDef *hpcd, uint16_t ep_addr,
                                       uint16_t ep_kind, uint32_t pmaadress)
{
 8001562:	b510      	push	{r4, lr}
  PCD_EPTypeDef *ep;

  /* initialize ep structure*/
  if ((0x80U & ep_addr) == 0x80U)
 8001564:	060c      	lsls	r4, r1, #24
 8001566:	d50c      	bpl.n	8001582 <HAL_PCDEx_PMAConfig+0x20>
  {
    ep = &hpcd->IN_ep[ep_addr & EP_ADDR_MSK];
 8001568:	2407      	movs	r4, #7
 800156a:	400c      	ands	r4, r1
 800156c:	00a1      	lsls	r1, r4, #2
 800156e:	1909      	adds	r1, r1, r4
 8001570:	00c9      	lsls	r1, r1, #3
 8001572:	3110      	adds	r1, #16
 8001574:	1840      	adds	r0, r0, r1
  {
    ep = &hpcd->OUT_ep[ep_addr];
  }

  /* Here we check if the endpoint is single or double Buffer*/
  if (ep_kind == PCD_SNG_BUF)
 8001576:	2a00      	cmp	r2, #0
 8001578:	d10a      	bne.n	8001590 <HAL_PCDEx_PMAConfig+0x2e>
  {
    /* Single Buffer */
    ep->doublebuffer = 0U;
 800157a:	7302      	strb	r2, [r0, #12]
    /* Configure the PMA */
    ep->pmaadress = (uint16_t)pmaadress;
 800157c:	80c3      	strh	r3, [r0, #6]
    ep->pmaaddr1 = (uint16_t)((pmaadress & 0xFFFF0000U) >> 16);
  }
#endif /* (USE_USB_DOUBLE_BUFFER == 1U) */

  return HAL_OK;
}
 800157e:	2000      	movs	r0, #0
 8001580:	bd10      	pop	{r4, pc}
    ep = &hpcd->OUT_ep[ep_addr];
 8001582:	008c      	lsls	r4, r1, #2
 8001584:	1861      	adds	r1, r4, r1
 8001586:	00c9      	lsls	r1, r1, #3
 8001588:	3151      	adds	r1, #81	@ 0x51
 800158a:	31ff      	adds	r1, #255	@ 0xff
 800158c:	1840      	adds	r0, r0, r1
 800158e:	e7f2      	b.n	8001576 <HAL_PCDEx_PMAConfig+0x14>
    ep->doublebuffer = 1U;
 8001590:	2201      	movs	r2, #1
 8001592:	7302      	strb	r2, [r0, #12]
    ep->pmaaddr0 = (uint16_t)(pmaadress & 0xFFFFU);
 8001594:	8103      	strh	r3, [r0, #8]
    ep->pmaaddr1 = (uint16_t)((pmaadress & 0xFFFF0000U) >> 16);
 8001596:	0c1b      	lsrs	r3, r3, #16
 8001598:	8143      	strh	r3, [r0, #10]
 800159a:	e7f0      	b.n	800157e <HAL_PCDEx_PMAConfig+0x1c>

0800159c <HAL_PCDEx_ActivateLPM>:
  * @retval HAL status
  */
HAL_StatusTypeDef HAL_PCDEx_ActivateLPM(PCD_HandleTypeDef *hpcd)
{

  USB_TypeDef *USBx = hpcd->Instance;
 800159c:	6801      	ldr	r1, [r0, #0]
  hpcd->lpm_active = 1U;
 800159e:	23b4      	movs	r3, #180	@ 0xb4
 80015a0:	009b      	lsls	r3, r3, #2
 80015a2:	2201      	movs	r2, #1
 80015a4:	50c2      	str	r2, [r0, r3]
  hpcd->LPM_State = LPM_L0;
 80015a6:	3b08      	subs	r3, #8
 80015a8:	2200      	movs	r2, #0
 80015aa:	54c2      	strb	r2, [r0, r3]

  USBx->LPMCSR |= USB_LPMCSR_LMPEN;
 80015ac:	3254      	adds	r2, #84	@ 0x54
 80015ae:	5a8b      	ldrh	r3, [r1, r2]
 80015b0:	2001      	movs	r0, #1
 80015b2:	4303      	orrs	r3, r0
 80015b4:	b29b      	uxth	r3, r3
 80015b6:	528b      	strh	r3, [r1, r2]
  USBx->LPMCSR |= USB_LPMCSR_LPMACK;
 80015b8:	5a8b      	ldrh	r3, [r1, r2]
 80015ba:	2002      	movs	r0, #2
 80015bc:	4303      	orrs	r3, r0
 80015be:	b29b      	uxth	r3, r3
 80015c0:	528b      	strh	r3, [r1, r2]

  return HAL_OK;
}
 80015c2:	2000      	movs	r0, #0
 80015c4:	4770      	bx	lr

080015c6 <HAL_PCDEx_LPM_Callback>:
  UNUSED(msg);

  /* NOTE : This function should not be modified, when the callback is needed,
            the HAL_PCDEx_LPM_Callback could be implemented in the user file
   */
}
 80015c6:	4770      	bx	lr

080015c8 <HAL_RCC_OscConfig>:
  *         supported by this macro. User should request a transition to HSE Off
  *         first and then HSE On or HSE Bypass.
  * @retval HAL status
  */
HAL_StatusTypeDef HAL_RCC_OscConfig(RCC_OscInitTypeDef  *RCC_OscInitStruct)
{
 80015c8:	b570      	push	{r4, r5, r6, lr}
 80015ca:	b082      	sub	sp, #8
 80015cc:	1e04      	subs	r4, r0, #0
  uint32_t tickstart;
  uint32_t pll_config;
  uint32_t pll_config2;

  /* Check Null pointer */
  if(RCC_OscInitStruct == NULL)
 80015ce:	d100      	bne.n	80015d2 <HAL_RCC_OscConfig+0xa>
 80015d0:	e27f      	b.n	8001ad2 <HAL_RCC_OscConfig+0x50a>

  /* Check the parameters */
  assert_param(IS_RCC_OSCILLATORTYPE(RCC_OscInitStruct->OscillatorType));

  /*------------------------------- HSE Configuration ------------------------*/ 
  if(((RCC_OscInitStruct->OscillatorType) & RCC_OSCILLATORTYPE_HSE) == RCC_OSCILLATORTYPE_HSE)
 80015d2:	6803      	ldr	r3, [r0, #0]
 80015d4:	07db      	lsls	r3, r3, #31
 80015d6:	d52b      	bpl.n	8001630 <HAL_RCC_OscConfig+0x68>
  {
    /* Check the parameters */
    assert_param(IS_RCC_HSE(RCC_OscInitStruct->HSEState));

    /* When the HSE is used as system clock or clock source for PLL in these cases it is not allowed to be disabled */
    if((__HAL_RCC_GET_SYSCLK_SOURCE() == RCC_SYSCLKSOURCE_STATUS_HSE) 
 80015d8:	4bb3      	ldr	r3, [pc, #716]	@ (80018a8 <HAL_RCC_OscConfig+0x2e0>)
 80015da:	685a      	ldr	r2, [r3, #4]
 80015dc:	230c      	movs	r3, #12
 80015de:	4013      	ands	r3, r2
 80015e0:	2b04      	cmp	r3, #4
 80015e2:	d01d      	beq.n	8001620 <HAL_RCC_OscConfig+0x58>
       || ((__HAL_RCC_GET_SYSCLK_SOURCE() == RCC_SYSCLKSOURCE_STATUS_PLLCLK) && (__HAL_RCC_GET_PLL_OSCSOURCE() == RCC_PLLSOURCE_HSE)))
 80015e4:	4bb0      	ldr	r3, [pc, #704]	@ (80018a8 <HAL_RCC_OscConfig+0x2e0>)
 80015e6:	685a      	ldr	r2, [r3, #4]
 80015e8:	230c      	movs	r3, #12
 80015ea:	4013      	ands	r3, r2
 80015ec:	2b08      	cmp	r3, #8
 80015ee:	d00e      	beq.n	800160e <HAL_RCC_OscConfig+0x46>
      }
    }
    else
    {
      /* Set the new HSE configuration ---------------------------------------*/
      __HAL_RCC_HSE_CONFIG(RCC_OscInitStruct->HSEState);
 80015f0:	6863      	ldr	r3, [r4, #4]
 80015f2:	2b01      	cmp	r3, #1
 80015f4:	d041      	beq.n	800167a <HAL_RCC_OscConfig+0xb2>
 80015f6:	2b00      	cmp	r3, #0
 80015f8:	d156      	bne.n	80016a8 <HAL_RCC_OscConfig+0xe0>
 80015fa:	4bab      	ldr	r3, [pc, #684]	@ (80018a8 <HAL_RCC_OscConfig+0x2e0>)
 80015fc:	681a      	ldr	r2, [r3, #0]
 80015fe:	49ab      	ldr	r1, [pc, #684]	@ (80018ac <HAL_RCC_OscConfig+0x2e4>)
 8001600:	400a      	ands	r2, r1
 8001602:	601a      	str	r2, [r3, #0]
 8001604:	681a      	ldr	r2, [r3, #0]
 8001606:	49aa      	ldr	r1, [pc, #680]	@ (80018b0 <HAL_RCC_OscConfig+0x2e8>)
 8001608:	400a      	ands	r2, r1
 800160a:	601a      	str	r2, [r3, #0]
 800160c:	e03b      	b.n	8001686 <HAL_RCC_OscConfig+0xbe>
       || ((__HAL_RCC_GET_SYSCLK_SOURCE() == RCC_SYSCLKSOURCE_STATUS_PLLCLK) && (__HAL_RCC_GET_PLL_OSCSOURCE() == RCC_PLLSOURCE_HSE)))
 800160e:	4ba6      	ldr	r3, [pc, #664]	@ (80018a8 <HAL_RCC_OscConfig+0x2e0>)
 8001610:	685b      	ldr	r3, [r3, #4]
 8001612:	22c0      	movs	r2, #192	@ 0xc0
 8001614:	0252      	lsls	r2, r2, #9
 8001616:	4013      	ands	r3, r2
 8001618:	2280      	movs	r2, #128	@ 0x80
 800161a:	0252      	lsls	r2, r2, #9
 800161c:	4293      	cmp	r3, r2
 800161e:	d1e7      	bne.n	80015f0 <HAL_RCC_OscConfig+0x28>
      if((__HAL_RCC_GET_FLAG(RCC_FLAG_HSERDY) != RESET) && (RCC_OscInitStruct->HSEState == RCC_HSE_OFF))
 8001620:	4ba1      	ldr	r3, [pc, #644]	@ (80018a8 <HAL_RCC_OscConfig+0x2e0>)
 8001622:	681b      	ldr	r3, [r3, #0]
 8001624:	039b      	lsls	r3, r3, #14
 8001626:	d503      	bpl.n	8001630 <HAL_RCC_OscConfig+0x68>
 8001628:	6863      	ldr	r3, [r4, #4]
 800162a:	2b00      	cmp	r3, #0
 800162c:	d100      	bne.n	8001630 <HAL_RCC_OscConfig+0x68>
 800162e:	e253      	b.n	8001ad8 <HAL_RCC_OscConfig+0x510>
        }
      }
    }
  }
  /*----------------------------- HSI Configuration --------------------------*/ 
  if(((RCC_OscInitStruct->OscillatorType) & RCC_OSCILLATORTYPE_HSI) == RCC_OSCILLATORTYPE_HSI)
 8001630:	6823      	ldr	r3, [r4, #0]
 8001632:	079b      	lsls	r3, r3, #30
 8001634:	d577      	bpl.n	8001726 <HAL_RCC_OscConfig+0x15e>
    /* Check the parameters */
    assert_param(IS_RCC_HSI(RCC_OscInitStruct->HSIState));
    assert_param(IS_RCC_CALIBRATION_VALUE(RCC_OscInitStruct->HSICalibrationValue));
    
    /* Check if HSI is used as system clock or as PLL source when PLL is selected as system clock */ 
    if((__HAL_RCC_GET_SYSCLK_SOURCE() == RCC_SYSCLKSOURCE_STATUS_HSI) 
 8001636:	4b9c      	ldr	r3, [pc, #624]	@ (80018a8 <HAL_RCC_OscConfig+0x2e0>)
 8001638:	685b      	ldr	r3, [r3, #4]
 800163a:	220c      	movs	r2, #12
 800163c:	421a      	tst	r2, r3
 800163e:	d062      	beq.n	8001706 <HAL_RCC_OscConfig+0x13e>
       || ((__HAL_RCC_GET_SYSCLK_SOURCE() == RCC_SYSCLKSOURCE_STATUS_PLLCLK) && (__HAL_RCC_GET_PLL_OSCSOURCE() == RCC_PLLSOURCE_HSI)))
 8001640:	4b99      	ldr	r3, [pc, #612]	@ (80018a8 <HAL_RCC_OscConfig+0x2e0>)
 8001642:	685a      	ldr	r2, [r3, #4]
 8001644:	230c      	movs	r3, #12
 8001646:	4013      	ands	r3, r2
 8001648:	2b08      	cmp	r3, #8
 800164a:	d053      	beq.n	80016f4 <HAL_RCC_OscConfig+0x12c>
      }
    }
    else
    {
      /* Check the HSI State */
      if(RCC_OscInitStruct->HSIState != RCC_HSI_OFF)
 800164c:	68e3      	ldr	r3, [r4, #12]
 800164e:	2b00      	cmp	r3, #0
 8001650:	d100      	bne.n	8001654 <HAL_RCC_OscConfig+0x8c>
 8001652:	e08a      	b.n	800176a <HAL_RCC_OscConfig+0x1a2>
      {
       /* Enable the Internal High Speed oscillator (HSI). */
        __HAL_RCC_HSI_ENABLE();
 8001654:	4a94      	ldr	r2, [pc, #592]	@ (80018a8 <HAL_RCC_OscConfig+0x2e0>)
 8001656:	6813      	ldr	r3, [r2, #0]
 8001658:	2101      	movs	r1, #1
 800165a:	430b      	orrs	r3, r1
 800165c:	6013      	str	r3, [r2, #0]
        
        /* Get Start Tick */
        tickstart = HAL_GetTick();
 800165e:	f7fe fe79 	bl	8000354 <HAL_GetTick>
 8001662:	0005      	movs	r5, r0
        
        /* Wait till HSI is ready */
        while(__HAL_RCC_GET_FLAG(RCC_FLAG_HSIRDY) == RESET)
 8001664:	4b90      	ldr	r3, [pc, #576]	@ (80018a8 <HAL_RCC_OscConfig+0x2e0>)
 8001666:	681b      	ldr	r3, [r3, #0]
 8001668:	079b      	lsls	r3, r3, #30
 800166a:	d475      	bmi.n	8001758 <HAL_RCC_OscConfig+0x190>
        {
          if((HAL_GetTick() - tickstart ) > HSI_TIMEOUT_VALUE)
 800166c:	f7fe fe72 	bl	8000354 <HAL_GetTick>
 8001670:	1b40      	subs	r0, r0, r5
 8001672:	2802      	cmp	r0, #2
 8001674:	d9f6      	bls.n	8001664 <HAL_RCC_OscConfig+0x9c>
          {
            return HAL_TIMEOUT;
 8001676:	2003      	movs	r0, #3
 8001678:	e22c      	b.n	8001ad4 <HAL_RCC_OscConfig+0x50c>
      __HAL_RCC_HSE_CONFIG(RCC_OscInitStruct->HSEState);
 800167a:	4a8b      	ldr	r2, [pc, #556]	@ (80018a8 <HAL_RCC_OscConfig+0x2e0>)
 800167c:	6811      	ldr	r1, [r2, #0]
 800167e:	2380      	movs	r3, #128	@ 0x80
 8001680:	025b      	lsls	r3, r3, #9
 8001682:	430b      	orrs	r3, r1
 8001684:	6013      	str	r3, [r2, #0]
      if(RCC_OscInitStruct->HSEState != RCC_HSE_OFF)
 8001686:	6863      	ldr	r3, [r4, #4]
 8001688:	2b00      	cmp	r3, #0
 800168a:	d025      	beq.n	80016d8 <HAL_RCC_OscConfig+0x110>
        tickstart = HAL_GetTick();
 800168c:	f7fe fe62 	bl	8000354 <HAL_GetTick>
 8001690:	0005      	movs	r5, r0
        while(__HAL_RCC_GET_FLAG(RCC_FLAG_HSERDY) == RESET)
 8001692:	4b85      	ldr	r3, [pc, #532]	@ (80018a8 <HAL_RCC_OscConfig+0x2e0>)
 8001694:	681b      	ldr	r3, [r3, #0]
 8001696:	039b      	lsls	r3, r3, #14
 8001698:	d4ca      	bmi.n	8001630 <HAL_RCC_OscConfig+0x68>
          if((HAL_GetTick() - tickstart ) > HSE_TIMEOUT_VALUE)
 800169a:	f7fe fe5b 	bl	8000354 <HAL_GetTick>
 800169e:	1b40      	subs	r0, r0, r5
 80016a0:	2864      	cmp	r0, #100	@ 0x64
 80016a2:	d9f6      	bls.n	8001692 <HAL_RCC_OscConfig+0xca>
            return HAL_TIMEOUT;
 80016a4:	2003      	movs	r0, #3
 80016a6:	e215      	b.n	8001ad4 <HAL_RCC_OscConfig+0x50c>
      __HAL_RCC_HSE_CONFIG(RCC_OscInitStruct->HSEState);
 80016a8:	2b05      	cmp	r3, #5
 80016aa:	d009      	beq.n	80016c0 <HAL_RCC_OscConfig+0xf8>
 80016ac:	4b7e      	ldr	r3, [pc, #504]	@ (80018a8 <HAL_RCC_OscConfig+0x2e0>)
 80016ae:	681a      	ldr	r2, [r3, #0]
 80016b0:	497e      	ldr	r1, [pc, #504]	@ (80018ac <HAL_RCC_OscConfig+0x2e4>)
 80016b2:	400a      	ands	r2, r1
 80016b4:	601a      	str	r2, [r3, #0]
 80016b6:	681a      	ldr	r2, [r3, #0]
 80016b8:	497d      	ldr	r1, [pc, #500]	@ (80018b0 <HAL_RCC_OscConfig+0x2e8>)
 80016ba:	400a      	ands	r2, r1
 80016bc:	601a      	str	r2, [r3, #0]
 80016be:	e7e2      	b.n	8001686 <HAL_RCC_OscConfig+0xbe>
 80016c0:	4b79      	ldr	r3, [pc, #484]	@ (80018a8 <HAL_RCC_OscConfig+0x2e0>)
 80016c2:	6819      	ldr	r1, [r3, #0]
 80016c4:	2280      	movs	r2, #128	@ 0x80
 80016c6:	02d2      	lsls	r2, r2, #11
 80016c8:	430a      	orrs	r2, r1
 80016ca:	601a      	str	r2, [r3, #0]
 80016cc:	6819      	ldr	r1, [r3, #0]
 80016ce:	2280      	movs	r2, #128	@ 0x80
 80016d0:	0252      	lsls	r2, r2, #9
 80016d2:	430a      	orrs	r2, r1
 80016d4:	601a      	str	r2, [r3, #0]
 80016d6:	e7d6      	b.n	8001686 <HAL_RCC_OscConfig+0xbe>
        tickstart = HAL_GetTick();
 80016d8:	f7fe fe3c 	bl	8000354 <HAL_GetTick>
 80016dc:	0005      	movs	r5, r0
        while(__HAL_RCC_GET_FLAG(RCC_FLAG_HSERDY) != RESET)
 80016de:	4b72      	ldr	r3, [pc, #456]	@ (80018a8 <HAL_RCC_OscConfig+0x2e0>)
 80016e0:	681b      	ldr	r3, [r3, #0]
 80016e2:	039b      	lsls	r3, r3, #14
 80016e4:	d5a4      	bpl.n	8001630 <HAL_RCC_OscConfig+0x68>
           if((HAL_GetTick() - tickstart ) > HSE_TIMEOUT_VALUE)
 80016e6:	f7fe fe35 	bl	8000354 <HAL_GetTick>
 80016ea:	1b40      	subs	r0, r0, r5
 80016ec:	2864      	cmp	r0, #100	@ 0x64
 80016ee:	d9f6      	bls.n	80016de <HAL_RCC_OscConfig+0x116>
            return HAL_TIMEOUT;
 80016f0:	2003      	movs	r0, #3
 80016f2:	e1ef      	b.n	8001ad4 <HAL_RCC_OscConfig+0x50c>
       || ((__HAL_RCC_GET_SYSCLK_SOURCE() == RCC_SYSCLKSOURCE_STATUS_PLLCLK) && (__HAL_RCC_GET_PLL_OSCSOURCE() == RCC_PLLSOURCE_HSI)))
 80016f4:	4b6c      	ldr	r3, [pc, #432]	@ (80018a8 <HAL_RCC_OscConfig+0x2e0>)
 80016f6:	685b      	ldr	r3, [r3, #4]
 80016f8:	22c0      	movs	r2, #192	@ 0xc0
 80016fa:	0252      	lsls	r2, r2, #9
 80016fc:	4013      	ands	r3, r2
 80016fe:	2280      	movs	r2, #128	@ 0x80
 8001700:	0212      	lsls	r2, r2, #8
 8001702:	4293      	cmp	r3, r2
 8001704:	d1a2      	bne.n	800164c <HAL_RCC_OscConfig+0x84>
      if((__HAL_RCC_GET_FLAG(RCC_FLAG_HSIRDY) != RESET) && (RCC_OscInitStruct->HSIState != RCC_HSI_ON))
 8001706:	4b68      	ldr	r3, [pc, #416]	@ (80018a8 <HAL_RCC_OscConfig+0x2e0>)
 8001708:	681b      	ldr	r3, [r3, #0]
 800170a:	079b      	lsls	r3, r3, #30
 800170c:	d503      	bpl.n	8001716 <HAL_RCC_OscConfig+0x14e>
 800170e:	68e3      	ldr	r3, [r4, #12]
 8001710:	2b01      	cmp	r3, #1
 8001712:	d000      	beq.n	8001716 <HAL_RCC_OscConfig+0x14e>
 8001714:	e1e2      	b.n	8001adc <HAL_RCC_OscConfig+0x514>
        __HAL_RCC_HSI_CALIBRATIONVALUE_ADJUST(RCC_OscInitStruct->HSICalibrationValue);
 8001716:	4964      	ldr	r1, [pc, #400]	@ (80018a8 <HAL_RCC_OscConfig+0x2e0>)
 8001718:	680b      	ldr	r3, [r1, #0]
 800171a:	22f8      	movs	r2, #248	@ 0xf8
 800171c:	4393      	bics	r3, r2
 800171e:	6922      	ldr	r2, [r4, #16]
 8001720:	00d2      	lsls	r2, r2, #3
 8001722:	4313      	orrs	r3, r2
 8001724:	600b      	str	r3, [r1, #0]
        }
      }
    }
  }
  /*------------------------------ LSI Configuration -------------------------*/ 
  if(((RCC_OscInitStruct->OscillatorType) & RCC_OSCILLATORTYPE_LSI) == RCC_OSCILLATORTYPE_LSI)
 8001726:	6823      	ldr	r3, [r4, #0]
 8001728:	071b      	lsls	r3, r3, #28
 800172a:	d544      	bpl.n	80017b6 <HAL_RCC_OscConfig+0x1ee>
  {
    /* Check the parameters */
    assert_param(IS_RCC_LSI(RCC_OscInitStruct->LSIState));
    
    /* Check the LSI State */
    if(RCC_OscInitStruct->LSIState != RCC_LSI_OFF)
 800172c:	69e3      	ldr	r3, [r4, #28]
 800172e:	2b00      	cmp	r3, #0
 8001730:	d02e      	beq.n	8001790 <HAL_RCC_OscConfig+0x1c8>
    {
      /* Enable the Internal Low Speed oscillator (LSI). */
      __HAL_RCC_LSI_ENABLE();
 8001732:	4a5d      	ldr	r2, [pc, #372]	@ (80018a8 <HAL_RCC_OscConfig+0x2e0>)
 8001734:	6a53      	ldr	r3, [r2, #36]	@ 0x24
 8001736:	2101      	movs	r1, #1
 8001738:	430b      	orrs	r3, r1
 800173a:	6253      	str	r3, [r2, #36]	@ 0x24
      
      /* Get Start Tick */
      tickstart = HAL_GetTick();
 800173c:	f7fe fe0a 	bl	8000354 <HAL_GetTick>
 8001740:	0005      	movs	r5, r0
      
      /* Wait till LSI is ready */  
      while(__HAL_RCC_GET_FLAG(RCC_FLAG_LSIRDY) == RESET)
 8001742:	4b59      	ldr	r3, [pc, #356]	@ (80018a8 <HAL_RCC_OscConfig+0x2e0>)
 8001744:	6a5b      	ldr	r3, [r3, #36]	@ 0x24
 8001746:	079b      	lsls	r3, r3, #30
 8001748:	d435      	bmi.n	80017b6 <HAL_RCC_OscConfig+0x1ee>
      {
        if((HAL_GetTick() - tickstart ) > LSI_TIMEOUT_VALUE)
 800174a:	f7fe fe03 	bl	8000354 <HAL_GetTick>
 800174e:	1b40      	subs	r0, r0, r5
 8001750:	2802      	cmp	r0, #2
 8001752:	d9f6      	bls.n	8001742 <HAL_RCC_OscConfig+0x17a>
        {
          return HAL_TIMEOUT;
 8001754:	2003      	movs	r0, #3
 8001756:	e1bd      	b.n	8001ad4 <HAL_RCC_OscConfig+0x50c>
        __HAL_RCC_HSI_CALIBRATIONVALUE_ADJUST(RCC_OscInitStruct->HSICalibrationValue);
 8001758:	4953      	ldr	r1, [pc, #332]	@ (80018a8 <HAL_RCC_OscConfig+0x2e0>)
 800175a:	680b      	ldr	r3, [r1, #0]
 800175c:	22f8      	movs	r2, #248	@ 0xf8
 800175e:	4393      	bics	r3, r2
 8001760:	6922      	ldr	r2, [r4, #16]
 8001762:	00d2      	lsls	r2, r2, #3
 8001764:	4313      	orrs	r3, r2
 8001766:	600b      	str	r3, [r1, #0]
 8001768:	e7dd      	b.n	8001726 <HAL_RCC_OscConfig+0x15e>
        __HAL_RCC_HSI_DISABLE();
 800176a:	4a4f      	ldr	r2, [pc, #316]	@ (80018a8 <HAL_RCC_OscConfig+0x2e0>)
 800176c:	6813      	ldr	r3, [r2, #0]
 800176e:	2101      	movs	r1, #1
 8001770:	438b      	bics	r3, r1
 8001772:	6013      	str	r3, [r2, #0]
        tickstart = HAL_GetTick();
 8001774:	f7fe fdee 	bl	8000354 <HAL_GetTick>
 8001778:	0005      	movs	r5, r0
        while(__HAL_RCC_GET_FLAG(RCC_FLAG_HSIRDY) != RESET)
 800177a:	4b4b      	ldr	r3, [pc, #300]	@ (80018a8 <HAL_RCC_OscConfig+0x2e0>)
 800177c:	681b      	ldr	r3, [r3, #0]
 800177e:	079b      	lsls	r3, r3, #30
 8001780:	d5d1      	bpl.n	8001726 <HAL_RCC_OscConfig+0x15e>
          if((HAL_GetTick() - tickstart ) > HSI_TIMEOUT_VALUE)
 8001782:	f7fe fde7 	bl	8000354 <HAL_GetTick>
 8001786:	1b40      	subs	r0, r0, r5
 8001788:	2802      	cmp	r0, #2
 800178a:	d9f6      	bls.n	800177a <HAL_RCC_OscConfig+0x1b2>
            return HAL_TIMEOUT;
 800178c:	2003      	movs	r0, #3
 800178e:	e1a1      	b.n	8001ad4 <HAL_RCC_OscConfig+0x50c>
      }
    }
    else
    {
      /* Disable the Internal Low Speed oscillator (LSI). */
      __HAL_RCC_LSI_DISABLE();
 8001790:	4a45      	ldr	r2, [pc, #276]	@ (80018a8 <HAL_RCC_OscConfig+0x2e0>)
 8001792:	6a53      	ldr	r3, [r2, #36]	@ 0x24
 8001794:	2101      	movs	r1, #1
 8001796:	438b      	bics	r3, r1
 8001798:	6253      	str	r3, [r2, #36]	@ 0x24
      
      /* Get Start Tick */
      tickstart = HAL_GetTick();
 800179a:	f7fe fddb 	bl	8000354 <HAL_GetTick>
 800179e:	0005      	movs	r5, r0
      
      /* Wait till LSI is disabled */  
      while(__HAL_RCC_GET_FLAG(RCC_FLAG_LSIRDY) != RESET)
 80017a0:	4b41      	ldr	r3, [pc, #260]	@ (80018a8 <HAL_RCC_OscConfig+0x2e0>)
 80017a2:	6a5b      	ldr	r3, [r3, #36]	@ 0x24
 80017a4:	079b      	lsls	r3, r3, #30
 80017a6:	d506      	bpl.n	80017b6 <HAL_RCC_OscConfig+0x1ee>
      {
        if((HAL_GetTick() - tickstart ) > LSI_TIMEOUT_VALUE)
 80017a8:	f7fe fdd4 	bl	8000354 <HAL_GetTick>
 80017ac:	1b40      	subs	r0, r0, r5
 80017ae:	2802      	cmp	r0, #2
 80017b0:	d9f6      	bls.n	80017a0 <HAL_RCC_OscConfig+0x1d8>
        {
          return HAL_TIMEOUT;
 80017b2:	2003      	movs	r0, #3
 80017b4:	e18e      	b.n	8001ad4 <HAL_RCC_OscConfig+0x50c>
        }
      }
    }
  }
  /*------------------------------ LSE Configuration -------------------------*/ 
  if(((RCC_OscInitStruct->OscillatorType) & RCC_OSCILLATORTYPE_LSE) == RCC_OSCILLATORTYPE_LSE)
 80017b6:	6823      	ldr	r3, [r4, #0]
 80017b8:	075b      	lsls	r3, r3, #29
 80017ba:	d400      	bmi.n	80017be <HAL_RCC_OscConfig+0x1f6>
 80017bc:	e080      	b.n	80018c0 <HAL_RCC_OscConfig+0x2f8>
    /* Check the parameters */
    assert_param(IS_RCC_LSE(RCC_OscInitStruct->LSEState));

    /* Update LSE configuration in Backup Domain control register    */
    /* Requires to enable write access to Backup Domain of necessary */
    if(__HAL_RCC_PWR_IS_CLK_DISABLED())
 80017be:	4b3a      	ldr	r3, [pc, #232]	@ (80018a8 <HAL_RCC_OscConfig+0x2e0>)
 80017c0:	69db      	ldr	r3, [r3, #28]
 80017c2:	00db      	lsls	r3, r3, #3
 80017c4:	d41d      	bmi.n	8001802 <HAL_RCC_OscConfig+0x23a>
    {
      __HAL_RCC_PWR_CLK_ENABLE();
 80017c6:	4b38      	ldr	r3, [pc, #224]	@ (80018a8 <HAL_RCC_OscConfig+0x2e0>)
 80017c8:	69da      	ldr	r2, [r3, #28]
 80017ca:	2180      	movs	r1, #128	@ 0x80
 80017cc:	0549      	lsls	r1, r1, #21
 80017ce:	430a      	orrs	r2, r1
 80017d0:	61da      	str	r2, [r3, #28]
 80017d2:	69db      	ldr	r3, [r3, #28]
 80017d4:	400b      	ands	r3, r1
 80017d6:	9301      	str	r3, [sp, #4]
 80017d8:	9b01      	ldr	r3, [sp, #4]
      pwrclkchanged = SET;
 80017da:	2501      	movs	r5, #1
    }
    
    if(HAL_IS_BIT_CLR(PWR->CR, PWR_CR_DBP))
 80017dc:	4b35      	ldr	r3, [pc, #212]	@ (80018b4 <HAL_RCC_OscConfig+0x2ec>)
 80017de:	681b      	ldr	r3, [r3, #0]
 80017e0:	05db      	lsls	r3, r3, #23
 80017e2:	d510      	bpl.n	8001806 <HAL_RCC_OscConfig+0x23e>
        }
      }
    }

    /* Set the new LSE configuration -----------------------------------------*/
    __HAL_RCC_LSE_CONFIG(RCC_OscInitStruct->LSEState);
 80017e4:	68a3      	ldr	r3, [r4, #8]
 80017e6:	2b01      	cmp	r3, #1
 80017e8:	d021      	beq.n	800182e <HAL_RCC_OscConfig+0x266>
 80017ea:	2b00      	cmp	r3, #0
 80017ec:	d136      	bne.n	800185c <HAL_RCC_OscConfig+0x294>
 80017ee:	4b2e      	ldr	r3, [pc, #184]	@ (80018a8 <HAL_RCC_OscConfig+0x2e0>)
 80017f0:	6a1a      	ldr	r2, [r3, #32]
 80017f2:	2101      	movs	r1, #1
 80017f4:	438a      	bics	r2, r1
 80017f6:	621a      	str	r2, [r3, #32]
 80017f8:	6a1a      	ldr	r2, [r3, #32]
 80017fa:	3103      	adds	r1, #3
 80017fc:	438a      	bics	r2, r1
 80017fe:	621a      	str	r2, [r3, #32]
 8001800:	e01a      	b.n	8001838 <HAL_RCC_OscConfig+0x270>
    FlagStatus       pwrclkchanged = RESET;
 8001802:	2500      	movs	r5, #0
 8001804:	e7ea      	b.n	80017dc <HAL_RCC_OscConfig+0x214>
      SET_BIT(PWR->CR, PWR_CR_DBP);
 8001806:	4a2b      	ldr	r2, [pc, #172]	@ (80018b4 <HAL_RCC_OscConfig+0x2ec>)
 8001808:	6811      	ldr	r1, [r2, #0]
 800180a:	2380      	movs	r3, #128	@ 0x80
 800180c:	005b      	lsls	r3, r3, #1
 800180e:	430b      	orrs	r3, r1
 8001810:	6013      	str	r3, [r2, #0]
      tickstart = HAL_GetTick();
 8001812:	f7fe fd9f 	bl	8000354 <HAL_GetTick>
 8001816:	0006      	movs	r6, r0
      while(HAL_IS_BIT_CLR(PWR->CR, PWR_CR_DBP))
 8001818:	4b26      	ldr	r3, [pc, #152]	@ (80018b4 <HAL_RCC_OscConfig+0x2ec>)
 800181a:	681b      	ldr	r3, [r3, #0]
 800181c:	05db      	lsls	r3, r3, #23
 800181e:	d4e1      	bmi.n	80017e4 <HAL_RCC_OscConfig+0x21c>
        if((HAL_GetTick() - tickstart) > RCC_DBP_TIMEOUT_VALUE)
 8001820:	f7fe fd98 	bl	8000354 <HAL_GetTick>
 8001824:	1b80      	subs	r0, r0, r6
 8001826:	2864      	cmp	r0, #100	@ 0x64
 8001828:	d9f6      	bls.n	8001818 <HAL_RCC_OscConfig+0x250>
          return HAL_TIMEOUT;
 800182a:	2003      	movs	r0, #3
 800182c:	e152      	b.n	8001ad4 <HAL_RCC_OscConfig+0x50c>
    __HAL_RCC_LSE_CONFIG(RCC_OscInitStruct->LSEState);
 800182e:	4a1e      	ldr	r2, [pc, #120]	@ (80018a8 <HAL_RCC_OscConfig+0x2e0>)
 8001830:	6a13      	ldr	r3, [r2, #32]
 8001832:	2101      	movs	r1, #1
 8001834:	430b      	orrs	r3, r1
 8001836:	6213      	str	r3, [r2, #32]
    /* Check the LSE State */
    if(RCC_OscInitStruct->LSEState != RCC_LSE_OFF)
 8001838:	68a3      	ldr	r3, [r4, #8]
 800183a:	2b00      	cmp	r3, #0
 800183c:	d024      	beq.n	8001888 <HAL_RCC_OscConfig+0x2c0>
    {
      /* Get Start Tick */
      tickstart = HAL_GetTick();
 800183e:	f7fe fd89 	bl	8000354 <HAL_GetTick>
 8001842:	0006      	movs	r6, r0
      
      /* Wait till LSE is ready */  
      while(__HAL_RCC_GET_FLAG(RCC_FLAG_LSERDY) == RESET)
 8001844:	4b18      	ldr	r3, [pc, #96]	@ (80018a8 <HAL_RCC_OscConfig+0x2e0>)
 8001846:	6a1b      	ldr	r3, [r3, #32]
 8001848:	079b      	lsls	r3, r3, #30
 800184a:	d437      	bmi.n	80018bc <HAL_RCC_OscConfig+0x2f4>
      {
        if((HAL_GetTick() - tickstart ) > RCC_LSE_TIMEOUT_VALUE)
 800184c:	f7fe fd82 	bl	8000354 <HAL_GetTick>
 8001850:	1b80      	subs	r0, r0, r6
 8001852:	4b19      	ldr	r3, [pc, #100]	@ (80018b8 <HAL_RCC_OscConfig+0x2f0>)
 8001854:	4298      	cmp	r0, r3
 8001856:	d9f5      	bls.n	8001844 <HAL_RCC_OscConfig+0x27c>
        {
          return HAL_TIMEOUT;
 8001858:	2003      	movs	r0, #3
 800185a:	e13b      	b.n	8001ad4 <HAL_RCC_OscConfig+0x50c>
    __HAL_RCC_LSE_CONFIG(RCC_OscInitStruct->LSEState);
 800185c:	2b05      	cmp	r3, #5
 800185e:	d009      	beq.n	8001874 <HAL_RCC_OscConfig+0x2ac>
 8001860:	4b11      	ldr	r3, [pc, #68]	@ (80018a8 <HAL_RCC_OscConfig+0x2e0>)
 8001862:	6a1a      	ldr	r2, [r3, #32]
 8001864:	2101      	movs	r1, #1
 8001866:	438a      	bics	r2, r1
 8001868:	621a      	str	r2, [r3, #32]
 800186a:	6a1a      	ldr	r2, [r3, #32]
 800186c:	3103      	adds	r1, #3
 800186e:	438a      	bics	r2, r1
 8001870:	621a      	str	r2, [r3, #32]
 8001872:	e7e1      	b.n	8001838 <HAL_RCC_OscConfig+0x270>
 8001874:	4b0c      	ldr	r3, [pc, #48]	@ (80018a8 <HAL_RCC_OscConfig+0x2e0>)
 8001876:	6a1a      	ldr	r2, [r3, #32]
 8001878:	2104      	movs	r1, #4
 800187a:	430a      	orrs	r2, r1
 800187c:	621a      	str	r2, [r3, #32]
 800187e:	6a1a      	ldr	r2, [r3, #32]
 8001880:	3903      	subs	r1, #3
 8001882:	430a      	orrs	r2, r1
 8001884:	621a      	str	r2, [r3, #32]
 8001886:	e7d7      	b.n	8001838 <HAL_RCC_OscConfig+0x270>
      }
    }
    else
    {
      /* Get Start Tick */
      tickstart = HAL_GetTick();
 8001888:	f7fe fd64 	bl	8000354 <HAL_GetTick>
 800188c:	0006      	movs	r6, r0
      
      /* Wait till LSE is disabled */  
      while(__HAL_RCC_GET_FLAG(RCC_FLAG_LSERDY) != RESET)
 800188e:	4b06      	ldr	r3, [pc, #24]	@ (80018a8 <HAL_RCC_OscConfig+0x2e0>)
 8001890:	6a1b      	ldr	r3, [r3, #32]
 8001892:	079b      	lsls	r3, r3, #30
 8001894:	d512      	bpl.n	80018bc <HAL_RCC_OscConfig+0x2f4>
      {
        if((HAL_GetTick() - tickstart ) > RCC_LSE_TIMEOUT_VALUE)
 8001896:	f7fe fd5d 	bl	8000354 <HAL_GetTick>
 800189a:	1b80      	subs	r0, r0, r6
 800189c:	4b06      	ldr	r3, [pc, #24]	@ (80018b8 <HAL_RCC_OscConfig+0x2f0>)
 800189e:	4298      	cmp	r0, r3
 80018a0:	d9f5      	bls.n	800188e <HAL_RCC_OscConfig+0x2c6>
        {
          return HAL_TIMEOUT;
 80018a2:	2003      	movs	r0, #3
 80018a4:	e116      	b.n	8001ad4 <HAL_RCC_OscConfig+0x50c>
 80018a6:	46c0      	nop			@ (mov r8, r8)
 80018a8:	40021000 	.word	0x40021000
 80018ac:	fffeffff 	.word	0xfffeffff
 80018b0:	fffbffff 	.word	0xfffbffff
 80018b4:	40007000 	.word	0x40007000
 80018b8:	00001388 	.word	0x00001388
        }
      }
    }

    /* Require to disable power clock if necessary */
    if(pwrclkchanged == SET)
 80018bc:	2d01      	cmp	r5, #1
 80018be:	d039      	beq.n	8001934 <HAL_RCC_OscConfig+0x36c>
      __HAL_RCC_PWR_CLK_DISABLE();
    }
  }

  /*----------------------------- HSI14 Configuration --------------------------*/
  if(((RCC_OscInitStruct->OscillatorType) & RCC_OSCILLATORTYPE_HSI14) == RCC_OSCILLATORTYPE_HSI14)
 80018c0:	6823      	ldr	r3, [r4, #0]
 80018c2:	06db      	lsls	r3, r3, #27
 80018c4:	d510      	bpl.n	80018e8 <HAL_RCC_OscConfig+0x320>
    /* Check the parameters */
    assert_param(IS_RCC_HSI14(RCC_OscInitStruct->HSI14State));
    assert_param(IS_RCC_CALIBRATION_VALUE(RCC_OscInitStruct->HSI14CalibrationValue));

    /* Check the HSI14 State */
    if(RCC_OscInitStruct->HSI14State == RCC_HSI14_ON)
 80018c6:	6963      	ldr	r3, [r4, #20]
 80018c8:	2b01      	cmp	r3, #1
 80018ca:	d039      	beq.n	8001940 <HAL_RCC_OscConfig+0x378>
      } 

      /* Adjusts the Internal High Speed oscillator 14Mhz (HSI14) calibration value. */
      __HAL_RCC_HSI14_CALIBRATIONVALUE_ADJUST(RCC_OscInitStruct->HSI14CalibrationValue);
    }
    else if(RCC_OscInitStruct->HSI14State == RCC_HSI14_ADC_CONTROL)
 80018cc:	3305      	adds	r3, #5
 80018ce:	d157      	bne.n	8001980 <HAL_RCC_OscConfig+0x3b8>
    {
      /* Enable ADC control of the Internal High Speed oscillator HSI14 */
      __HAL_RCC_HSI14ADC_ENABLE();
 80018d0:	4a89      	ldr	r2, [pc, #548]	@ (8001af8 <HAL_RCC_OscConfig+0x530>)
 80018d2:	6b53      	ldr	r3, [r2, #52]	@ 0x34
 80018d4:	2104      	movs	r1, #4
 80018d6:	438b      	bics	r3, r1
 80018d8:	6353      	str	r3, [r2, #52]	@ 0x34

      /* Adjusts the Internal High Speed oscillator 14Mhz (HSI14) calibration value. */
      __HAL_RCC_HSI14_CALIBRATIONVALUE_ADJUST(RCC_OscInitStruct->HSI14CalibrationValue);
 80018da:	6b53      	ldr	r3, [r2, #52]	@ 0x34
 80018dc:	31f4      	adds	r1, #244	@ 0xf4
 80018de:	438b      	bics	r3, r1
 80018e0:	69a1      	ldr	r1, [r4, #24]
 80018e2:	00c9      	lsls	r1, r1, #3
 80018e4:	430b      	orrs	r3, r1
 80018e6:	6353      	str	r3, [r2, #52]	@ 0x34
    }
  }

#if defined(RCC_HSI48_SUPPORT)
  /*----------------------------- HSI48 Configuration --------------------------*/
  if(((RCC_OscInitStruct->OscillatorType) & RCC_OSCILLATORTYPE_HSI48) == RCC_OSCILLATORTYPE_HSI48)
 80018e8:	6823      	ldr	r3, [r4, #0]
 80018ea:	069b      	lsls	r3, r3, #26
 80018ec:	d56e      	bpl.n	80019cc <HAL_RCC_OscConfig+0x404>
  {
    /* Check the parameters */
    assert_param(IS_RCC_HSI48(RCC_OscInitStruct->HSI48State));

    /* When the HSI48 is used as system clock it is not allowed to be disabled */
    if((__HAL_RCC_GET_SYSCLK_SOURCE() == RCC_SYSCLKSOURCE_STATUS_HSI48) ||
 80018ee:	4b82      	ldr	r3, [pc, #520]	@ (8001af8 <HAL_RCC_OscConfig+0x530>)
 80018f0:	685a      	ldr	r2, [r3, #4]
 80018f2:	230c      	movs	r3, #12
 80018f4:	4013      	ands	r3, r2
 80018f6:	2b0c      	cmp	r3, #12
 80018f8:	d060      	beq.n	80019bc <HAL_RCC_OscConfig+0x3f4>
       ((__HAL_RCC_GET_SYSCLK_SOURCE() == RCC_SYSCLKSOURCE_STATUS_PLLCLK) && (__HAL_RCC_GET_PLL_OSCSOURCE() == RCC_PLLSOURCE_HSI48)))
 80018fa:	4b7f      	ldr	r3, [pc, #508]	@ (8001af8 <HAL_RCC_OscConfig+0x530>)
 80018fc:	685a      	ldr	r2, [r3, #4]
 80018fe:	230c      	movs	r3, #12
 8001900:	4013      	ands	r3, r2
    if((__HAL_RCC_GET_SYSCLK_SOURCE() == RCC_SYSCLKSOURCE_STATUS_HSI48) ||
 8001902:	2b08      	cmp	r3, #8
 8001904:	d053      	beq.n	80019ae <HAL_RCC_OscConfig+0x3e6>
      }
    }
    else
    {
      /* Check the HSI48 State */
      if(RCC_OscInitStruct->HSI48State != RCC_HSI48_OFF)
 8001906:	6a23      	ldr	r3, [r4, #32]
 8001908:	2b00      	cmp	r3, #0
 800190a:	d07e      	beq.n	8001a0a <HAL_RCC_OscConfig+0x442>
      {
        /* Enable the Internal High Speed oscillator (HSI48). */
        __HAL_RCC_HSI48_ENABLE();
 800190c:	4a7a      	ldr	r2, [pc, #488]	@ (8001af8 <HAL_RCC_OscConfig+0x530>)
 800190e:	6b51      	ldr	r1, [r2, #52]	@ 0x34
 8001910:	2380      	movs	r3, #128	@ 0x80
 8001912:	025b      	lsls	r3, r3, #9
 8001914:	430b      	orrs	r3, r1
 8001916:	6353      	str	r3, [r2, #52]	@ 0x34

        /* Get Start Tick */
        tickstart = HAL_GetTick();
 8001918:	f7fe fd1c 	bl	8000354 <HAL_GetTick>
 800191c:	0005      	movs	r5, r0
      
        /* Wait till HSI48 is ready */  
        while(__HAL_RCC_GET_FLAG(RCC_FLAG_HSI48RDY) == RESET)
 800191e:	4b76      	ldr	r3, [pc, #472]	@ (8001af8 <HAL_RCC_OscConfig+0x530>)
 8001920:	6b5b      	ldr	r3, [r3, #52]	@ 0x34
 8001922:	039b      	lsls	r3, r3, #14
 8001924:	d452      	bmi.n	80019cc <HAL_RCC_OscConfig+0x404>
        {
          if((HAL_GetTick() - tickstart) > HSI48_TIMEOUT_VALUE)
 8001926:	f7fe fd15 	bl	8000354 <HAL_GetTick>
 800192a:	1b40      	subs	r0, r0, r5
 800192c:	2802      	cmp	r0, #2
 800192e:	d9f6      	bls.n	800191e <HAL_RCC_OscConfig+0x356>
          {
            return HAL_TIMEOUT;
 8001930:	2003      	movs	r0, #3
 8001932:	e0cf      	b.n	8001ad4 <HAL_RCC_OscConfig+0x50c>
      __HAL_RCC_PWR_CLK_DISABLE();
 8001934:	4a70      	ldr	r2, [pc, #448]	@ (8001af8 <HAL_RCC_OscConfig+0x530>)
 8001936:	69d3      	ldr	r3, [r2, #28]
 8001938:	4970      	ldr	r1, [pc, #448]	@ (8001afc <HAL_RCC_OscConfig+0x534>)
 800193a:	400b      	ands	r3, r1
 800193c:	61d3      	str	r3, [r2, #28]
 800193e:	e7bf      	b.n	80018c0 <HAL_RCC_OscConfig+0x2f8>
      __HAL_RCC_HSI14ADC_DISABLE();
 8001940:	4b6d      	ldr	r3, [pc, #436]	@ (8001af8 <HAL_RCC_OscConfig+0x530>)
 8001942:	6b5a      	ldr	r2, [r3, #52]	@ 0x34
 8001944:	2104      	movs	r1, #4
 8001946:	430a      	orrs	r2, r1
 8001948:	635a      	str	r2, [r3, #52]	@ 0x34
      __HAL_RCC_HSI14_ENABLE();
 800194a:	6b5a      	ldr	r2, [r3, #52]	@ 0x34
 800194c:	3903      	subs	r1, #3
 800194e:	430a      	orrs	r2, r1
 8001950:	635a      	str	r2, [r3, #52]	@ 0x34
      tickstart = HAL_GetTick();
 8001952:	f7fe fcff 	bl	8000354 <HAL_GetTick>
 8001956:	0005      	movs	r5, r0
      while(__HAL_RCC_GET_FLAG(RCC_FLAG_HSI14RDY) == RESET)
 8001958:	4b67      	ldr	r3, [pc, #412]	@ (8001af8 <HAL_RCC_OscConfig+0x530>)
 800195a:	6b5b      	ldr	r3, [r3, #52]	@ 0x34
 800195c:	079b      	lsls	r3, r3, #30
 800195e:	d406      	bmi.n	800196e <HAL_RCC_OscConfig+0x3a6>
        if((HAL_GetTick() - tickstart) > HSI14_TIMEOUT_VALUE)
 8001960:	f7fe fcf8 	bl	8000354 <HAL_GetTick>
 8001964:	1b40      	subs	r0, r0, r5
 8001966:	2802      	cmp	r0, #2
 8001968:	d9f6      	bls.n	8001958 <HAL_RCC_OscConfig+0x390>
          return HAL_TIMEOUT;
 800196a:	2003      	movs	r0, #3
 800196c:	e0b2      	b.n	8001ad4 <HAL_RCC_OscConfig+0x50c>
      __HAL_RCC_HSI14_CALIBRATIONVALUE_ADJUST(RCC_OscInitStruct->HSI14CalibrationValue);
 800196e:	4962      	ldr	r1, [pc, #392]	@ (8001af8 <HAL_RCC_OscConfig+0x530>)
 8001970:	6b4b      	ldr	r3, [r1, #52]	@ 0x34
 8001972:	22f8      	movs	r2, #248	@ 0xf8
 8001974:	4393      	bics	r3, r2
 8001976:	69a2      	ldr	r2, [r4, #24]
 8001978:	00d2      	lsls	r2, r2, #3
 800197a:	4313      	orrs	r3, r2
 800197c:	634b      	str	r3, [r1, #52]	@ 0x34
 800197e:	e7b3      	b.n	80018e8 <HAL_RCC_OscConfig+0x320>
      __HAL_RCC_HSI14ADC_DISABLE();
 8001980:	4b5d      	ldr	r3, [pc, #372]	@ (8001af8 <HAL_RCC_OscConfig+0x530>)
 8001982:	6b5a      	ldr	r2, [r3, #52]	@ 0x34
 8001984:	2104      	movs	r1, #4
 8001986:	430a      	orrs	r2, r1
 8001988:	635a      	str	r2, [r3, #52]	@ 0x34
      __HAL_RCC_HSI14_DISABLE();
 800198a:	6b5a      	ldr	r2, [r3, #52]	@ 0x34
 800198c:	3903      	subs	r1, #3
 800198e:	438a      	bics	r2, r1
 8001990:	635a      	str	r2, [r3, #52]	@ 0x34
      tickstart = HAL_GetTick();
 8001992:	f7fe fcdf 	bl	8000354 <HAL_GetTick>
 8001996:	0005      	movs	r5, r0
      while(__HAL_RCC_GET_FLAG(RCC_FLAG_HSI14RDY) != RESET)
 8001998:	4b57      	ldr	r3, [pc, #348]	@ (8001af8 <HAL_RCC_OscConfig+0x530>)
 800199a:	6b5b      	ldr	r3, [r3, #52]	@ 0x34
 800199c:	079b      	lsls	r3, r3, #30
 800199e:	d5a3      	bpl.n	80018e8 <HAL_RCC_OscConfig+0x320>
        if((HAL_GetTick() - tickstart) > HSI14_TIMEOUT_VALUE)
 80019a0:	f7fe fcd8 	bl	8000354 <HAL_GetTick>
 80019a4:	1b40      	subs	r0, r0, r5
 80019a6:	2802      	cmp	r0, #2
 80019a8:	d9f6      	bls.n	8001998 <HAL_RCC_OscConfig+0x3d0>
          return HAL_TIMEOUT;
 80019aa:	2003      	movs	r0, #3
 80019ac:	e092      	b.n	8001ad4 <HAL_RCC_OscConfig+0x50c>
       ((__HAL_RCC_GET_SYSCLK_SOURCE() == RCC_SYSCLKSOURCE_STATUS_PLLCLK) && (__HAL_RCC_GET_PLL_OSCSOURCE() == RCC_PLLSOURCE_HSI48)))
 80019ae:	4b52      	ldr	r3, [pc, #328]	@ (8001af8 <HAL_RCC_OscConfig+0x530>)
 80019b0:	685b      	ldr	r3, [r3, #4]
 80019b2:	22c0      	movs	r2, #192	@ 0xc0
 80019b4:	0252      	lsls	r2, r2, #9
 80019b6:	4013      	ands	r3, r2
 80019b8:	4293      	cmp	r3, r2
 80019ba:	d1a4      	bne.n	8001906 <HAL_RCC_OscConfig+0x33e>
      if((__HAL_RCC_GET_FLAG(RCC_FLAG_HSI48RDY) != RESET) && (RCC_OscInitStruct->HSI48State != RCC_HSI48_ON))
 80019bc:	4b4e      	ldr	r3, [pc, #312]	@ (8001af8 <HAL_RCC_OscConfig+0x530>)
 80019be:	6b5b      	ldr	r3, [r3, #52]	@ 0x34
 80019c0:	039b      	lsls	r3, r3, #14
 80019c2:	d503      	bpl.n	80019cc <HAL_RCC_OscConfig+0x404>
 80019c4:	6a23      	ldr	r3, [r4, #32]
 80019c6:	2b01      	cmp	r3, #1
 80019c8:	d000      	beq.n	80019cc <HAL_RCC_OscConfig+0x404>
 80019ca:	e089      	b.n	8001ae0 <HAL_RCC_OscConfig+0x518>
#endif /* RCC_HSI48_SUPPORT */
       
  /*-------------------------------- PLL Configuration -----------------------*/
  /* Check the parameters */
  assert_param(IS_RCC_PLL(RCC_OscInitStruct->PLL.PLLState));
  if ((RCC_OscInitStruct->PLL.PLLState) != RCC_PLL_NONE)
 80019cc:	6a63      	ldr	r3, [r4, #36]	@ 0x24
 80019ce:	2b00      	cmp	r3, #0
 80019d0:	d100      	bne.n	80019d4 <HAL_RCC_OscConfig+0x40c>
 80019d2:	e087      	b.n	8001ae4 <HAL_RCC_OscConfig+0x51c>
  {
    /* Check if the PLL is used as system clock or not */
    if(__HAL_RCC_GET_SYSCLK_SOURCE() != RCC_SYSCLKSOURCE_STATUS_PLLCLK)
 80019d4:	4a48      	ldr	r2, [pc, #288]	@ (8001af8 <HAL_RCC_OscConfig+0x530>)
 80019d6:	6851      	ldr	r1, [r2, #4]
 80019d8:	220c      	movs	r2, #12
 80019da:	400a      	ands	r2, r1
 80019dc:	2a08      	cmp	r2, #8
 80019de:	d060      	beq.n	8001aa2 <HAL_RCC_OscConfig+0x4da>
    { 
      if((RCC_OscInitStruct->PLL.PLLState) == RCC_PLL_ON)
 80019e0:	2b02      	cmp	r3, #2
 80019e2:	d025      	beq.n	8001a30 <HAL_RCC_OscConfig+0x468>
        }
      }
      else
      {
        /* Disable the main PLL. */
        __HAL_RCC_PLL_DISABLE();
 80019e4:	4a44      	ldr	r2, [pc, #272]	@ (8001af8 <HAL_RCC_OscConfig+0x530>)
 80019e6:	6813      	ldr	r3, [r2, #0]
 80019e8:	4945      	ldr	r1, [pc, #276]	@ (8001b00 <HAL_RCC_OscConfig+0x538>)
 80019ea:	400b      	ands	r3, r1
 80019ec:	6013      	str	r3, [r2, #0]
 
        /* Get Start Tick */
        tickstart = HAL_GetTick();
 80019ee:	f7fe fcb1 	bl	8000354 <HAL_GetTick>
 80019f2:	0004      	movs	r4, r0
        
        /* Wait till PLL is disabled */  
        while(__HAL_RCC_GET_FLAG(RCC_FLAG_PLLRDY)  != RESET)
 80019f4:	4b40      	ldr	r3, [pc, #256]	@ (8001af8 <HAL_RCC_OscConfig+0x530>)
 80019f6:	681b      	ldr	r3, [r3, #0]
 80019f8:	019b      	lsls	r3, r3, #6
 80019fa:	d550      	bpl.n	8001a9e <HAL_RCC_OscConfig+0x4d6>
        {
          if((HAL_GetTick() - tickstart ) > PLL_TIMEOUT_VALUE)
 80019fc:	f7fe fcaa 	bl	8000354 <HAL_GetTick>
 8001a00:	1b00      	subs	r0, r0, r4
 8001a02:	2802      	cmp	r0, #2
 8001a04:	d9f6      	bls.n	80019f4 <HAL_RCC_OscConfig+0x42c>
          {
            return HAL_TIMEOUT;
 8001a06:	2003      	movs	r0, #3
 8001a08:	e064      	b.n	8001ad4 <HAL_RCC_OscConfig+0x50c>
        __HAL_RCC_HSI48_DISABLE();
 8001a0a:	4a3b      	ldr	r2, [pc, #236]	@ (8001af8 <HAL_RCC_OscConfig+0x530>)
 8001a0c:	6b53      	ldr	r3, [r2, #52]	@ 0x34
 8001a0e:	493d      	ldr	r1, [pc, #244]	@ (8001b04 <HAL_RCC_OscConfig+0x53c>)
 8001a10:	400b      	ands	r3, r1
 8001a12:	6353      	str	r3, [r2, #52]	@ 0x34
        tickstart = HAL_GetTick();
 8001a14:	f7fe fc9e 	bl	8000354 <HAL_GetTick>
 8001a18:	0005      	movs	r5, r0
        while(__HAL_RCC_GET_FLAG(RCC_FLAG_HSI48RDY) != RESET)
 8001a1a:	4b37      	ldr	r3, [pc, #220]	@ (8001af8 <HAL_RCC_OscConfig+0x530>)
 8001a1c:	6b5b      	ldr	r3, [r3, #52]	@ 0x34
 8001a1e:	039b      	lsls	r3, r3, #14
 8001a20:	d5d4      	bpl.n	80019cc <HAL_RCC_OscConfig+0x404>
          if((HAL_GetTick() - tickstart) > HSI48_TIMEOUT_VALUE)
 8001a22:	f7fe fc97 	bl	8000354 <HAL_GetTick>
 8001a26:	1b40      	subs	r0, r0, r5
 8001a28:	2802      	cmp	r0, #2
 8001a2a:	d9f6      	bls.n	8001a1a <HAL_RCC_OscConfig+0x452>
            return HAL_TIMEOUT;
 8001a2c:	2003      	movs	r0, #3
 8001a2e:	e051      	b.n	8001ad4 <HAL_RCC_OscConfig+0x50c>
        __HAL_RCC_PLL_DISABLE();
 8001a30:	4a31      	ldr	r2, [pc, #196]	@ (8001af8 <HAL_RCC_OscConfig+0x530>)
 8001a32:	6813      	ldr	r3, [r2, #0]
 8001a34:	4932      	ldr	r1, [pc, #200]	@ (8001b00 <HAL_RCC_OscConfig+0x538>)
 8001a36:	400b      	ands	r3, r1
 8001a38:	6013      	str	r3, [r2, #0]
        tickstart = HAL_GetTick();
 8001a3a:	f7fe fc8b 	bl	8000354 <HAL_GetTick>
 8001a3e:	0005      	movs	r5, r0
        while(__HAL_RCC_GET_FLAG(RCC_FLAG_PLLRDY)  != RESET)
 8001a40:	4b2d      	ldr	r3, [pc, #180]	@ (8001af8 <HAL_RCC_OscConfig+0x530>)
 8001a42:	681b      	ldr	r3, [r3, #0]
 8001a44:	019b      	lsls	r3, r3, #6
 8001a46:	d506      	bpl.n	8001a56 <HAL_RCC_OscConfig+0x48e>
          if((HAL_GetTick() - tickstart ) > PLL_TIMEOUT_VALUE)
 8001a48:	f7fe fc84 	bl	8000354 <HAL_GetTick>
 8001a4c:	1b40      	subs	r0, r0, r5
 8001a4e:	2802      	cmp	r0, #2
 8001a50:	d9f6      	bls.n	8001a40 <HAL_RCC_OscConfig+0x478>
            return HAL_TIMEOUT;
 8001a52:	2003      	movs	r0, #3
 8001a54:	e03e      	b.n	8001ad4 <HAL_RCC_OscConfig+0x50c>
        __HAL_RCC_PLL_CONFIG(RCC_OscInitStruct->PLL.PLLSource,
 8001a56:	4b28      	ldr	r3, [pc, #160]	@ (8001af8 <HAL_RCC_OscConfig+0x530>)
 8001a58:	6ada      	ldr	r2, [r3, #44]	@ 0x2c
 8001a5a:	210f      	movs	r1, #15
 8001a5c:	438a      	bics	r2, r1
 8001a5e:	6b21      	ldr	r1, [r4, #48]	@ 0x30
 8001a60:	430a      	orrs	r2, r1
 8001a62:	62da      	str	r2, [r3, #44]	@ 0x2c
 8001a64:	685a      	ldr	r2, [r3, #4]
 8001a66:	4928      	ldr	r1, [pc, #160]	@ (8001b08 <HAL_RCC_OscConfig+0x540>)
 8001a68:	400a      	ands	r2, r1
 8001a6a:	6ae1      	ldr	r1, [r4, #44]	@ 0x2c
 8001a6c:	6aa0      	ldr	r0, [r4, #40]	@ 0x28
 8001a6e:	4301      	orrs	r1, r0
 8001a70:	430a      	orrs	r2, r1
 8001a72:	605a      	str	r2, [r3, #4]
        __HAL_RCC_PLL_ENABLE();
 8001a74:	6819      	ldr	r1, [r3, #0]
 8001a76:	2280      	movs	r2, #128	@ 0x80
 8001a78:	0452      	lsls	r2, r2, #17
 8001a7a:	430a      	orrs	r2, r1
 8001a7c:	601a      	str	r2, [r3, #0]
        tickstart = HAL_GetTick();
 8001a7e:	f7fe fc69 	bl	8000354 <HAL_GetTick>
 8001a82:	0004      	movs	r4, r0
        while(__HAL_RCC_GET_FLAG(RCC_FLAG_PLLRDY)  == RESET)
 8001a84:	4b1c      	ldr	r3, [pc, #112]	@ (8001af8 <HAL_RCC_OscConfig+0x530>)
 8001a86:	681b      	ldr	r3, [r3, #0]
 8001a88:	019b      	lsls	r3, r3, #6
 8001a8a:	d406      	bmi.n	8001a9a <HAL_RCC_OscConfig+0x4d2>
          if((HAL_GetTick() - tickstart ) > PLL_TIMEOUT_VALUE)
 8001a8c:	f7fe fc62 	bl	8000354 <HAL_GetTick>
 8001a90:	1b00      	subs	r0, r0, r4
 8001a92:	2802      	cmp	r0, #2
 8001a94:	d9f6      	bls.n	8001a84 <HAL_RCC_OscConfig+0x4bc>
            return HAL_TIMEOUT;
 8001a96:	2003      	movs	r0, #3
 8001a98:	e01c      	b.n	8001ad4 <HAL_RCC_OscConfig+0x50c>
        }
      }
    }
  }

  return HAL_OK;
 8001a9a:	2000      	movs	r0, #0
 8001a9c:	e01a      	b.n	8001ad4 <HAL_RCC_OscConfig+0x50c>
 8001a9e:	2000      	movs	r0, #0
 8001aa0:	e018      	b.n	8001ad4 <HAL_RCC_OscConfig+0x50c>
      if((RCC_OscInitStruct->PLL.PLLState) == RCC_PLL_OFF)
 8001aa2:	2b01      	cmp	r3, #1
 8001aa4:	d020      	beq.n	8001ae8 <HAL_RCC_OscConfig+0x520>
        pll_config  = RCC->CFGR;
 8001aa6:	4b14      	ldr	r3, [pc, #80]	@ (8001af8 <HAL_RCC_OscConfig+0x530>)
 8001aa8:	685a      	ldr	r2, [r3, #4]
        pll_config2 = RCC->CFGR2;
 8001aaa:	6ad8      	ldr	r0, [r3, #44]	@ 0x2c
        if((READ_BIT(pll_config,  RCC_CFGR_PLLSRC)  != RCC_OscInitStruct->PLL.PLLSource) ||
 8001aac:	23c0      	movs	r3, #192	@ 0xc0
 8001aae:	025b      	lsls	r3, r3, #9
 8001ab0:	4013      	ands	r3, r2
 8001ab2:	6aa1      	ldr	r1, [r4, #40]	@ 0x28
 8001ab4:	428b      	cmp	r3, r1
 8001ab6:	d119      	bne.n	8001aec <HAL_RCC_OscConfig+0x524>
           (READ_BIT(pll_config2, RCC_CFGR2_PREDIV) != RCC_OscInitStruct->PLL.PREDIV)    ||
 8001ab8:	230f      	movs	r3, #15
 8001aba:	4003      	ands	r3, r0
 8001abc:	6b21      	ldr	r1, [r4, #48]	@ 0x30
        if((READ_BIT(pll_config,  RCC_CFGR_PLLSRC)  != RCC_OscInitStruct->PLL.PLLSource) ||
 8001abe:	428b      	cmp	r3, r1
 8001ac0:	d116      	bne.n	8001af0 <HAL_RCC_OscConfig+0x528>
           (READ_BIT(pll_config,  RCC_CFGR_PLLMUL)  != RCC_OscInitStruct->PLL.PLLMUL))
 8001ac2:	23f0      	movs	r3, #240	@ 0xf0
 8001ac4:	039b      	lsls	r3, r3, #14
 8001ac6:	401a      	ands	r2, r3
 8001ac8:	6ae3      	ldr	r3, [r4, #44]	@ 0x2c
           (READ_BIT(pll_config2, RCC_CFGR2_PREDIV) != RCC_OscInitStruct->PLL.PREDIV)    ||
 8001aca:	429a      	cmp	r2, r3
 8001acc:	d112      	bne.n	8001af4 <HAL_RCC_OscConfig+0x52c>
  return HAL_OK;
 8001ace:	2000      	movs	r0, #0
 8001ad0:	e000      	b.n	8001ad4 <HAL_RCC_OscConfig+0x50c>
    return HAL_ERROR;
 8001ad2:	2001      	movs	r0, #1
}
 8001ad4:	b002      	add	sp, #8
 8001ad6:	bd70      	pop	{r4, r5, r6, pc}
        return HAL_ERROR;
 8001ad8:	2001      	movs	r0, #1
 8001ada:	e7fb      	b.n	8001ad4 <HAL_RCC_OscConfig+0x50c>
        return HAL_ERROR;
 8001adc:	2001      	movs	r0, #1
 8001ade:	e7f9      	b.n	8001ad4 <HAL_RCC_OscConfig+0x50c>
        return HAL_ERROR;
 8001ae0:	2001      	movs	r0, #1
 8001ae2:	e7f7      	b.n	8001ad4 <HAL_RCC_OscConfig+0x50c>
  return HAL_OK;
 8001ae4:	2000      	movs	r0, #0
 8001ae6:	e7f5      	b.n	8001ad4 <HAL_RCC_OscConfig+0x50c>
        return HAL_ERROR;
 8001ae8:	2001      	movs	r0, #1
 8001aea:	e7f3      	b.n	8001ad4 <HAL_RCC_OscConfig+0x50c>
          return HAL_ERROR;
 8001aec:	2001      	movs	r0, #1
 8001aee:	e7f1      	b.n	8001ad4 <HAL_RCC_OscConfig+0x50c>
 8001af0:	2001      	movs	r0, #1
 8001af2:	e7ef      	b.n	8001ad4 <HAL_RCC_OscConfig+0x50c>
 8001af4:	2001      	movs	r0, #1
 8001af6:	e7ed      	b.n	8001ad4 <HAL_RCC_OscConfig+0x50c>
 8001af8:	40021000 	.word	0x40021000
 8001afc:	efffffff 	.word	0xefffffff
 8001b00:	feffffff 	.word	0xfeffffff
 8001b04:	fffeffff 	.word	0xfffeffff
 8001b08:	ffc27fff 	.word	0xffc27fff

08001b0c <HAL_RCC_GetSysClockFreq>:
  *         right SYSCLK value. Otherwise, any configuration based on this function will be incorrect.
  *         
  * @retval SYSCLK frequency
  */
uint32_t HAL_RCC_GetSysClockFreq(void)
{
 8001b0c:	b510      	push	{r4, lr}
                                                   9U,10U, 11U, 12U, 13U, 14U, 15U, 16U};

  uint32_t tmpreg = 0U, prediv = 0U, pllclk = 0U, pllmul = 0U;
  uint32_t sysclockfreq = 0U;
  
  tmpreg = RCC->CFGR;
 8001b0e:	4b18      	ldr	r3, [pc, #96]	@ (8001b70 <HAL_RCC_GetSysClockFreq+0x64>)
 8001b10:	685a      	ldr	r2, [r3, #4]
  
  /* Get SYSCLK source -------------------------------------------------------*/
  switch (tmpreg & RCC_CFGR_SWS)
 8001b12:	230c      	movs	r3, #12
 8001b14:	4013      	ands	r3, r2
 8001b16:	2b08      	cmp	r3, #8
 8001b18:	d003      	beq.n	8001b22 <HAL_RCC_GetSysClockFreq+0x16>
 8001b1a:	2b0c      	cmp	r3, #12
 8001b1c:	d125      	bne.n	8001b6a <HAL_RCC_GetSysClockFreq+0x5e>
      break;
    }
#if defined(RCC_CFGR_SWS_HSI48)
    case RCC_SYSCLKSOURCE_STATUS_HSI48:    /* HSI48 used as system clock source */
    {
      sysclockfreq = HSI48_VALUE;
 8001b1e:	4815      	ldr	r0, [pc, #84]	@ (8001b74 <HAL_RCC_GetSysClockFreq+0x68>)
      sysclockfreq = HSI_VALUE;
      break;
    }
  }
  return sysclockfreq;
}
 8001b20:	bd10      	pop	{r4, pc}
      pllmul = aPLLMULFactorTable[(uint32_t)(tmpreg & RCC_CFGR_PLLMUL) >> RCC_CFGR_PLLMUL_BITNUMBER];
 8001b22:	0c91      	lsrs	r1, r2, #18
 8001b24:	230f      	movs	r3, #15
 8001b26:	4019      	ands	r1, r3
 8001b28:	4813      	ldr	r0, [pc, #76]	@ (8001b78 <HAL_RCC_GetSysClockFreq+0x6c>)
 8001b2a:	5c44      	ldrb	r4, [r0, r1]
      prediv = aPredivFactorTable[(uint32_t)(RCC->CFGR2 & RCC_CFGR2_PREDIV) >> RCC_CFGR2_PREDIV_BITNUMBER];
 8001b2c:	4910      	ldr	r1, [pc, #64]	@ (8001b70 <HAL_RCC_GetSysClockFreq+0x64>)
 8001b2e:	6ac9      	ldr	r1, [r1, #44]	@ 0x2c
 8001b30:	400b      	ands	r3, r1
 8001b32:	4912      	ldr	r1, [pc, #72]	@ (8001b7c <HAL_RCC_GetSysClockFreq+0x70>)
 8001b34:	5cc9      	ldrb	r1, [r1, r3]
      if ((tmpreg & RCC_CFGR_PLLSRC) == RCC_PLLSOURCE_HSE)
 8001b36:	23c0      	movs	r3, #192	@ 0xc0
 8001b38:	025b      	lsls	r3, r3, #9
 8001b3a:	401a      	ands	r2, r3
 8001b3c:	2380      	movs	r3, #128	@ 0x80
 8001b3e:	025b      	lsls	r3, r3, #9
 8001b40:	429a      	cmp	r2, r3
 8001b42:	d008      	beq.n	8001b56 <HAL_RCC_GetSysClockFreq+0x4a>
      else if ((tmpreg & RCC_CFGR_PLLSRC) == RCC_PLLSOURCE_HSI48)
 8001b44:	23c0      	movs	r3, #192	@ 0xc0
 8001b46:	025b      	lsls	r3, r3, #9
 8001b48:	429a      	cmp	r2, r3
 8001b4a:	d009      	beq.n	8001b60 <HAL_RCC_GetSysClockFreq+0x54>
        pllclk = (uint32_t)((uint64_t) HSI_VALUE / (uint64_t) (prediv)) * ((uint64_t) pllmul);
 8001b4c:	480c      	ldr	r0, [pc, #48]	@ (8001b80 <HAL_RCC_GetSysClockFreq+0x74>)
 8001b4e:	f7fe fab7 	bl	80000c0 <__udivsi3>
 8001b52:	4360      	muls	r0, r4
 8001b54:	e7e4      	b.n	8001b20 <HAL_RCC_GetSysClockFreq+0x14>
        pllclk = (uint32_t)((uint64_t) HSE_VALUE / (uint64_t) (prediv)) * ((uint64_t) pllmul);
 8001b56:	480a      	ldr	r0, [pc, #40]	@ (8001b80 <HAL_RCC_GetSysClockFreq+0x74>)
 8001b58:	f7fe fab2 	bl	80000c0 <__udivsi3>
 8001b5c:	4360      	muls	r0, r4
 8001b5e:	e7df      	b.n	8001b20 <HAL_RCC_GetSysClockFreq+0x14>
        pllclk = (uint32_t)((uint64_t) HSI48_VALUE / (uint64_t) (prediv)) * ((uint64_t) pllmul);
 8001b60:	4804      	ldr	r0, [pc, #16]	@ (8001b74 <HAL_RCC_GetSysClockFreq+0x68>)
 8001b62:	f7fe faad 	bl	80000c0 <__udivsi3>
 8001b66:	4360      	muls	r0, r4
 8001b68:	e7da      	b.n	8001b20 <HAL_RCC_GetSysClockFreq+0x14>
  switch (tmpreg & RCC_CFGR_SWS)
 8001b6a:	4805      	ldr	r0, [pc, #20]	@ (8001b80 <HAL_RCC_GetSysClockFreq+0x74>)
  return sysclockfreq;
 8001b6c:	e7d8      	b.n	8001b20 <HAL_RCC_GetSysClockFreq+0x14>
 8001b6e:	46c0      	nop			@ (mov r8, r8)
 8001b70:	40021000 	.word	0x40021000
 8001b74:	02dc6c00 	.word	0x02dc6c00
 8001b78:	08003d14 	.word	0x08003d14
 8001b7c:	08003d04 	.word	0x08003d04
 8001b80:	007a1200 	.word	0x007a1200

08001b84 <HAL_RCC_ClockConfig>:
{
 8001b84:	b570      	push	{r4, r5, r6, lr}
 8001b86:	0004      	movs	r4, r0
 8001b88:	000d      	movs	r5, r1
  if(RCC_ClkInitStruct == NULL)
 8001b8a:	2800      	cmp	r0, #0
 8001b8c:	d100      	bne.n	8001b90 <HAL_RCC_ClockConfig+0xc>
 8001b8e:	e086      	b.n	8001c9e <HAL_RCC_ClockConfig+0x11a>
  if(FLatency > __HAL_FLASH_GET_LATENCY())
 8001b90:	4b47      	ldr	r3, [pc, #284]	@ (8001cb0 <HAL_RCC_ClockConfig+0x12c>)
 8001b92:	681a      	ldr	r2, [r3, #0]
 8001b94:	2301      	movs	r3, #1
 8001b96:	4013      	ands	r3, r2
 8001b98:	428b      	cmp	r3, r1
 8001b9a:	d20a      	bcs.n	8001bb2 <HAL_RCC_ClockConfig+0x2e>
    __HAL_FLASH_SET_LATENCY(FLatency);
 8001b9c:	4944      	ldr	r1, [pc, #272]	@ (8001cb0 <HAL_RCC_ClockConfig+0x12c>)
 8001b9e:	680b      	ldr	r3, [r1, #0]
 8001ba0:	2201      	movs	r2, #1
 8001ba2:	4393      	bics	r3, r2
 8001ba4:	432b      	orrs	r3, r5
 8001ba6:	600b      	str	r3, [r1, #0]
    if(__HAL_FLASH_GET_LATENCY() != FLatency)
 8001ba8:	680b      	ldr	r3, [r1, #0]
 8001baa:	401a      	ands	r2, r3
 8001bac:	42aa      	cmp	r2, r5
 8001bae:	d000      	beq.n	8001bb2 <HAL_RCC_ClockConfig+0x2e>
 8001bb0:	e077      	b.n	8001ca2 <HAL_RCC_ClockConfig+0x11e>
  if(((RCC_ClkInitStruct->ClockType) & RCC_CLOCKTYPE_HCLK) == RCC_CLOCKTYPE_HCLK)
 8001bb2:	6823      	ldr	r3, [r4, #0]
 8001bb4:	079a      	lsls	r2, r3, #30
 8001bb6:	d50e      	bpl.n	8001bd6 <HAL_RCC_ClockConfig+0x52>
    if(((RCC_ClkInitStruct->ClockType) & RCC_CLOCKTYPE_PCLK1) == RCC_CLOCKTYPE_PCLK1)
 8001bb8:	075b      	lsls	r3, r3, #29
 8001bba:	d505      	bpl.n	8001bc8 <HAL_RCC_ClockConfig+0x44>
      MODIFY_REG(RCC->CFGR, RCC_CFGR_PPRE, RCC_HCLK_DIV16);
 8001bbc:	4a3d      	ldr	r2, [pc, #244]	@ (8001cb4 <HAL_RCC_ClockConfig+0x130>)
 8001bbe:	6851      	ldr	r1, [r2, #4]
 8001bc0:	23e0      	movs	r3, #224	@ 0xe0
 8001bc2:	00db      	lsls	r3, r3, #3
 8001bc4:	430b      	orrs	r3, r1
 8001bc6:	6053      	str	r3, [r2, #4]
    MODIFY_REG(RCC->CFGR, RCC_CFGR_HPRE, RCC_ClkInitStruct->AHBCLKDivider);
 8001bc8:	4a3a      	ldr	r2, [pc, #232]	@ (8001cb4 <HAL_RCC_ClockConfig+0x130>)
 8001bca:	6853      	ldr	r3, [r2, #4]
 8001bcc:	21f0      	movs	r1, #240	@ 0xf0
 8001bce:	438b      	bics	r3, r1
 8001bd0:	68a1      	ldr	r1, [r4, #8]
 8001bd2:	430b      	orrs	r3, r1
 8001bd4:	6053      	str	r3, [r2, #4]
  if(((RCC_ClkInitStruct->ClockType) & RCC_CLOCKTYPE_SYSCLK) == RCC_CLOCKTYPE_SYSCLK)
 8001bd6:	6823      	ldr	r3, [r4, #0]
 8001bd8:	07db      	lsls	r3, r3, #31
 8001bda:	d535      	bpl.n	8001c48 <HAL_RCC_ClockConfig+0xc4>
    if(RCC_ClkInitStruct->SYSCLKSource == RCC_SYSCLKSOURCE_HSE)
 8001bdc:	6863      	ldr	r3, [r4, #4]
 8001bde:	2b01      	cmp	r3, #1
 8001be0:	d009      	beq.n	8001bf6 <HAL_RCC_ClockConfig+0x72>
    else if(RCC_ClkInitStruct->SYSCLKSource == RCC_SYSCLKSOURCE_PLLCLK)
 8001be2:	2b02      	cmp	r3, #2
 8001be4:	d024      	beq.n	8001c30 <HAL_RCC_ClockConfig+0xac>
    else if(RCC_ClkInitStruct->SYSCLKSource == RCC_SYSCLKSOURCE_HSI48)
 8001be6:	2b03      	cmp	r3, #3
 8001be8:	d028      	beq.n	8001c3c <HAL_RCC_ClockConfig+0xb8>
      if(__HAL_RCC_GET_FLAG(RCC_FLAG_HSIRDY) == RESET)
 8001bea:	4a32      	ldr	r2, [pc, #200]	@ (8001cb4 <HAL_RCC_ClockConfig+0x130>)
 8001bec:	6812      	ldr	r2, [r2, #0]
 8001bee:	0792      	lsls	r2, r2, #30
 8001bf0:	d405      	bmi.n	8001bfe <HAL_RCC_ClockConfig+0x7a>
        return HAL_ERROR;
 8001bf2:	2001      	movs	r0, #1
 8001bf4:	e052      	b.n	8001c9c <HAL_RCC_ClockConfig+0x118>
      if(__HAL_RCC_GET_FLAG(RCC_FLAG_HSERDY) == RESET)
 8001bf6:	4a2f      	ldr	r2, [pc, #188]	@ (8001cb4 <HAL_RCC_ClockConfig+0x130>)
 8001bf8:	6812      	ldr	r2, [r2, #0]
 8001bfa:	0392      	lsls	r2, r2, #14
 8001bfc:	d553      	bpl.n	8001ca6 <HAL_RCC_ClockConfig+0x122>
    __HAL_RCC_SYSCLK_CONFIG(RCC_ClkInitStruct->SYSCLKSource);
 8001bfe:	492d      	ldr	r1, [pc, #180]	@ (8001cb4 <HAL_RCC_ClockConfig+0x130>)
 8001c00:	684a      	ldr	r2, [r1, #4]
 8001c02:	2003      	movs	r0, #3
 8001c04:	4382      	bics	r2, r0
 8001c06:	4313      	orrs	r3, r2
 8001c08:	604b      	str	r3, [r1, #4]
    tickstart = HAL_GetTick();
 8001c0a:	f7fe fba3 	bl	8000354 <HAL_GetTick>
 8001c0e:	0006      	movs	r6, r0
    while (__HAL_RCC_GET_SYSCLK_SOURCE() != (RCC_ClkInitStruct->SYSCLKSource << RCC_CFGR_SWS_Pos))
 8001c10:	4b28      	ldr	r3, [pc, #160]	@ (8001cb4 <HAL_RCC_ClockConfig+0x130>)
 8001c12:	685b      	ldr	r3, [r3, #4]
 8001c14:	220c      	movs	r2, #12
 8001c16:	401a      	ands	r2, r3
 8001c18:	6863      	ldr	r3, [r4, #4]
 8001c1a:	009b      	lsls	r3, r3, #2
 8001c1c:	429a      	cmp	r2, r3
 8001c1e:	d013      	beq.n	8001c48 <HAL_RCC_ClockConfig+0xc4>
      if((HAL_GetTick() - tickstart ) > CLOCKSWITCH_TIMEOUT_VALUE)
 8001c20:	f7fe fb98 	bl	8000354 <HAL_GetTick>
 8001c24:	1b80      	subs	r0, r0, r6
 8001c26:	4b24      	ldr	r3, [pc, #144]	@ (8001cb8 <HAL_RCC_ClockConfig+0x134>)
 8001c28:	4298      	cmp	r0, r3
 8001c2a:	d9f1      	bls.n	8001c10 <HAL_RCC_ClockConfig+0x8c>
        return HAL_TIMEOUT;
 8001c2c:	2003      	movs	r0, #3
 8001c2e:	e035      	b.n	8001c9c <HAL_RCC_ClockConfig+0x118>
      if(__HAL_RCC_GET_FLAG(RCC_FLAG_PLLRDY) == RESET)
 8001c30:	4a20      	ldr	r2, [pc, #128]	@ (8001cb4 <HAL_RCC_ClockConfig+0x130>)
 8001c32:	6812      	ldr	r2, [r2, #0]
 8001c34:	0192      	lsls	r2, r2, #6
 8001c36:	d4e2      	bmi.n	8001bfe <HAL_RCC_ClockConfig+0x7a>
        return HAL_ERROR;
 8001c38:	2001      	movs	r0, #1
 8001c3a:	e02f      	b.n	8001c9c <HAL_RCC_ClockConfig+0x118>
      if(__HAL_RCC_GET_FLAG(RCC_FLAG_HSI48RDY) == RESET)
 8001c3c:	4a1d      	ldr	r2, [pc, #116]	@ (8001cb4 <HAL_RCC_ClockConfig+0x130>)
 8001c3e:	6b52      	ldr	r2, [r2, #52]	@ 0x34
 8001c40:	0392      	lsls	r2, r2, #14
 8001c42:	d4dc      	bmi.n	8001bfe <HAL_RCC_ClockConfig+0x7a>
        return HAL_ERROR;
 8001c44:	2001      	movs	r0, #1
 8001c46:	e029      	b.n	8001c9c <HAL_RCC_ClockConfig+0x118>
  if(FLatency < __HAL_FLASH_GET_LATENCY())
 8001c48:	4b19      	ldr	r3, [pc, #100]	@ (8001cb0 <HAL_RCC_ClockConfig+0x12c>)
 8001c4a:	681a      	ldr	r2, [r3, #0]
 8001c4c:	2301      	movs	r3, #1
 8001c4e:	4013      	ands	r3, r2
 8001c50:	42ab      	cmp	r3, r5
 8001c52:	d909      	bls.n	8001c68 <HAL_RCC_ClockConfig+0xe4>
    __HAL_FLASH_SET_LATENCY(FLatency);
 8001c54:	4916      	ldr	r1, [pc, #88]	@ (8001cb0 <HAL_RCC_ClockConfig+0x12c>)
 8001c56:	680b      	ldr	r3, [r1, #0]
 8001c58:	2201      	movs	r2, #1
 8001c5a:	4393      	bics	r3, r2
 8001c5c:	432b      	orrs	r3, r5
 8001c5e:	600b      	str	r3, [r1, #0]
    if(__HAL_FLASH_GET_LATENCY() != FLatency)
 8001c60:	680b      	ldr	r3, [r1, #0]
 8001c62:	401a      	ands	r2, r3
 8001c64:	42aa      	cmp	r2, r5
 8001c66:	d120      	bne.n	8001caa <HAL_RCC_ClockConfig+0x126>
  if(((RCC_ClkInitStruct->ClockType) & RCC_CLOCKTYPE_PCLK1) == RCC_CLOCKTYPE_PCLK1)
 8001c68:	6823      	ldr	r3, [r4, #0]
 8001c6a:	075b      	lsls	r3, r3, #29
 8001c6c:	d506      	bpl.n	8001c7c <HAL_RCC_ClockConfig+0xf8>
    MODIFY_REG(RCC->CFGR, RCC_CFGR_PPRE, RCC_ClkInitStruct->APB1CLKDivider);
 8001c6e:	4a11      	ldr	r2, [pc, #68]	@ (8001cb4 <HAL_RCC_ClockConfig+0x130>)
 8001c70:	6853      	ldr	r3, [r2, #4]
 8001c72:	4912      	ldr	r1, [pc, #72]	@ (8001cbc <HAL_RCC_ClockConfig+0x138>)
 8001c74:	400b      	ands	r3, r1
 8001c76:	68e1      	ldr	r1, [r4, #12]
 8001c78:	430b      	orrs	r3, r1
 8001c7a:	6053      	str	r3, [r2, #4]
  SystemCoreClock = HAL_RCC_GetSysClockFreq() >> AHBPrescTable[(RCC->CFGR & RCC_CFGR_HPRE)>> RCC_CFGR_HPRE_BITNUMBER];
 8001c7c:	f7ff ff46 	bl	8001b0c <HAL_RCC_GetSysClockFreq>
 8001c80:	4b0c      	ldr	r3, [pc, #48]	@ (8001cb4 <HAL_RCC_ClockConfig+0x130>)
 8001c82:	685a      	ldr	r2, [r3, #4]
 8001c84:	0912      	lsrs	r2, r2, #4
 8001c86:	230f      	movs	r3, #15
 8001c88:	4013      	ands	r3, r2
 8001c8a:	4a0d      	ldr	r2, [pc, #52]	@ (8001cc0 <HAL_RCC_ClockConfig+0x13c>)
 8001c8c:	5cd3      	ldrb	r3, [r2, r3]
 8001c8e:	40d8      	lsrs	r0, r3
 8001c90:	4b0c      	ldr	r3, [pc, #48]	@ (8001cc4 <HAL_RCC_ClockConfig+0x140>)
 8001c92:	6018      	str	r0, [r3, #0]
  HAL_InitTick (TICK_INT_PRIORITY);
 8001c94:	2003      	movs	r0, #3
 8001c96:	f7fe fb19 	bl	80002cc <HAL_InitTick>
  return HAL_OK;
 8001c9a:	2000      	movs	r0, #0
}
 8001c9c:	bd70      	pop	{r4, r5, r6, pc}
    return HAL_ERROR;
 8001c9e:	2001      	movs	r0, #1
 8001ca0:	e7fc      	b.n	8001c9c <HAL_RCC_ClockConfig+0x118>
      return HAL_ERROR;
 8001ca2:	2001      	movs	r0, #1
 8001ca4:	e7fa      	b.n	8001c9c <HAL_RCC_ClockConfig+0x118>
        return HAL_ERROR;
 8001ca6:	2001      	movs	r0, #1
 8001ca8:	e7f8      	b.n	8001c9c <HAL_RCC_ClockConfig+0x118>
      return HAL_ERROR;
 8001caa:	2001      	movs	r0, #1
 8001cac:	e7f6      	b.n	8001c9c <HAL_RCC_ClockConfig+0x118>
 8001cae:	46c0      	nop			@ (mov r8, r8)
 8001cb0:	40022000 	.word	0x40022000
 8001cb4:	40021000 	.word	0x40021000
 8001cb8:	00001388 	.word	0x00001388
 8001cbc:	fffff8ff 	.word	0xfffff8ff
 8001cc0:	08003d24 	.word	0x08003d24
 8001cc4:	20000008 	.word	0x20000008

08001cc8 <HAL_RCCEx_PeriphCLKConfig>:
  *         the backup registers) and RCC_BDCR register are set to their reset values.
  *
  * @retval HAL status
  */
HAL_StatusTypeDef HAL_RCCEx_PeriphCLKConfig(RCC_PeriphCLKInitTypeDef  *PeriphClkInit)
{
 8001cc8:	b570      	push	{r4, r5, r6, lr}
 8001cca:	b082      	sub	sp, #8
 8001ccc:	0004      	movs	r4, r0

  /* Check the parameters */
  assert_param(IS_RCC_PERIPHCLOCK(PeriphClkInit->PeriphClockSelection));
  
  /*---------------------------- RTC configuration -------------------------------*/
  if(((PeriphClkInit->PeriphClockSelection) & RCC_PERIPHCLK_RTC) == (RCC_PERIPHCLK_RTC))
 8001cce:	6803      	ldr	r3, [r0, #0]
 8001cd0:	03db      	lsls	r3, r3, #15
 8001cd2:	d539      	bpl.n	8001d48 <HAL_RCCEx_PeriphCLKConfig+0x80>
    FlagStatus       pwrclkchanged = RESET;

    /* As soon as function is called to change RTC clock source, activation of the 
       power domain is done. */
    /* Requires to enable write access to Backup Domain of necessary */
    if(__HAL_RCC_PWR_IS_CLK_DISABLED())
 8001cd4:	4b48      	ldr	r3, [pc, #288]	@ (8001df8 <HAL_RCCEx_PeriphCLKConfig+0x130>)
 8001cd6:	69db      	ldr	r3, [r3, #28]
 8001cd8:	00db      	lsls	r3, r3, #3
 8001cda:	d460      	bmi.n	8001d9e <HAL_RCCEx_PeriphCLKConfig+0xd6>
    {
    __HAL_RCC_PWR_CLK_ENABLE();
 8001cdc:	4b46      	ldr	r3, [pc, #280]	@ (8001df8 <HAL_RCCEx_PeriphCLKConfig+0x130>)
 8001cde:	69da      	ldr	r2, [r3, #28]
 8001ce0:	2180      	movs	r1, #128	@ 0x80
 8001ce2:	0549      	lsls	r1, r1, #21
 8001ce4:	430a      	orrs	r2, r1
 8001ce6:	61da      	str	r2, [r3, #28]
 8001ce8:	69db      	ldr	r3, [r3, #28]
 8001cea:	400b      	ands	r3, r1
 8001cec:	9301      	str	r3, [sp, #4]
 8001cee:	9b01      	ldr	r3, [sp, #4]
      pwrclkchanged = SET;
 8001cf0:	2501      	movs	r5, #1
    }
    
    if(HAL_IS_BIT_CLR(PWR->CR, PWR_CR_DBP))
 8001cf2:	4b42      	ldr	r3, [pc, #264]	@ (8001dfc <HAL_RCCEx_PeriphCLKConfig+0x134>)
 8001cf4:	681b      	ldr	r3, [r3, #0]
 8001cf6:	05db      	lsls	r3, r3, #23
 8001cf8:	d553      	bpl.n	8001da2 <HAL_RCCEx_PeriphCLKConfig+0xda>
        }
      }
    }
    
    /* Reset the Backup domain only if the RTC Clock source selection is modified from reset value */ 
    temp_reg = (RCC->BDCR & RCC_BDCR_RTCSEL);
 8001cfa:	4b3f      	ldr	r3, [pc, #252]	@ (8001df8 <HAL_RCCEx_PeriphCLKConfig+0x130>)
 8001cfc:	6a1a      	ldr	r2, [r3, #32]
 8001cfe:	23c0      	movs	r3, #192	@ 0xc0
 8001d00:	009b      	lsls	r3, r3, #2
 8001d02:	0011      	movs	r1, r2
 8001d04:	4019      	ands	r1, r3
    if((temp_reg != 0x00000000U) && (temp_reg != (PeriphClkInit->RTCClockSelection & RCC_BDCR_RTCSEL)))
 8001d06:	421a      	tst	r2, r3
 8001d08:	d015      	beq.n	8001d36 <HAL_RCCEx_PeriphCLKConfig+0x6e>
 8001d0a:	6863      	ldr	r3, [r4, #4]
 8001d0c:	22c0      	movs	r2, #192	@ 0xc0
 8001d0e:	0092      	lsls	r2, r2, #2
 8001d10:	4013      	ands	r3, r2
 8001d12:	428b      	cmp	r3, r1
 8001d14:	d00f      	beq.n	8001d36 <HAL_RCCEx_PeriphCLKConfig+0x6e>
    {
      /* Store the content of BDCR register before the reset of Backup Domain */
      temp_reg = (RCC->BDCR & ~(RCC_BDCR_RTCSEL));
 8001d16:	4b38      	ldr	r3, [pc, #224]	@ (8001df8 <HAL_RCCEx_PeriphCLKConfig+0x130>)
 8001d18:	6a1a      	ldr	r2, [r3, #32]
 8001d1a:	4939      	ldr	r1, [pc, #228]	@ (8001e00 <HAL_RCCEx_PeriphCLKConfig+0x138>)
 8001d1c:	4011      	ands	r1, r2
      /* RTC Clock selection can be changed only if the Backup Domain is reset */
      __HAL_RCC_BACKUPRESET_FORCE();
 8001d1e:	6a1e      	ldr	r6, [r3, #32]
 8001d20:	2080      	movs	r0, #128	@ 0x80
 8001d22:	0240      	lsls	r0, r0, #9
 8001d24:	4330      	orrs	r0, r6
 8001d26:	6218      	str	r0, [r3, #32]
      __HAL_RCC_BACKUPRESET_RELEASE();
 8001d28:	6a18      	ldr	r0, [r3, #32]
 8001d2a:	4e36      	ldr	r6, [pc, #216]	@ (8001e04 <HAL_RCCEx_PeriphCLKConfig+0x13c>)
 8001d2c:	4030      	ands	r0, r6
 8001d2e:	6218      	str	r0, [r3, #32]
      /* Restore the Content of BDCR register */
      RCC->BDCR = temp_reg;
 8001d30:	6219      	str	r1, [r3, #32]
      
      /* Wait for LSERDY if LSE was enabled */
      if (HAL_IS_BIT_SET(temp_reg, RCC_BDCR_LSEON))
 8001d32:	07d2      	lsls	r2, r2, #31
 8001d34:	d449      	bmi.n	8001dca <HAL_RCCEx_PeriphCLKConfig+0x102>
            return HAL_TIMEOUT;
          }
        }
      }
    }
    __HAL_RCC_RTC_CONFIG(PeriphClkInit->RTCClockSelection);
 8001d36:	4a30      	ldr	r2, [pc, #192]	@ (8001df8 <HAL_RCCEx_PeriphCLKConfig+0x130>)
 8001d38:	6a13      	ldr	r3, [r2, #32]
 8001d3a:	4931      	ldr	r1, [pc, #196]	@ (8001e00 <HAL_RCCEx_PeriphCLKConfig+0x138>)
 8001d3c:	400b      	ands	r3, r1
 8001d3e:	6861      	ldr	r1, [r4, #4]
 8001d40:	430b      	orrs	r3, r1
 8001d42:	6213      	str	r3, [r2, #32]

    /* Require to disable power clock if necessary */
    if(pwrclkchanged == SET)
 8001d44:	2d01      	cmp	r5, #1
 8001d46:	d04f      	beq.n	8001de8 <HAL_RCCEx_PeriphCLKConfig+0x120>
      __HAL_RCC_PWR_CLK_DISABLE();
    }
  }

  /*------------------------------- USART1 Configuration ------------------------*/ 
  if(((PeriphClkInit->PeriphClockSelection) & RCC_PERIPHCLK_USART1) == RCC_PERIPHCLK_USART1)
 8001d48:	6823      	ldr	r3, [r4, #0]
 8001d4a:	07db      	lsls	r3, r3, #31
 8001d4c:	d506      	bpl.n	8001d5c <HAL_RCCEx_PeriphCLKConfig+0x94>
  {
    /* Check the parameters */
    assert_param(IS_RCC_USART1CLKSOURCE(PeriphClkInit->Usart1ClockSelection));
    
    /* Configure the USART1 clock source */
    __HAL_RCC_USART1_CONFIG(PeriphClkInit->Usart1ClockSelection);
 8001d4e:	4a2a      	ldr	r2, [pc, #168]	@ (8001df8 <HAL_RCCEx_PeriphCLKConfig+0x130>)
 8001d50:	6b13      	ldr	r3, [r2, #48]	@ 0x30
 8001d52:	2103      	movs	r1, #3
 8001d54:	438b      	bics	r3, r1
 8001d56:	68a1      	ldr	r1, [r4, #8]
 8001d58:	430b      	orrs	r3, r1
 8001d5a:	6313      	str	r3, [r2, #48]	@ 0x30
    __HAL_RCC_USART3_CONFIG(PeriphClkInit->Usart3ClockSelection);
  }
#endif /* STM32F091xC || STM32F098xx */  

  /*------------------------------ I2C1 Configuration ------------------------*/ 
  if(((PeriphClkInit->PeriphClockSelection) & RCC_PERIPHCLK_I2C1) == RCC_PERIPHCLK_I2C1)
 8001d5c:	6823      	ldr	r3, [r4, #0]
 8001d5e:	069b      	lsls	r3, r3, #26
 8001d60:	d506      	bpl.n	8001d70 <HAL_RCCEx_PeriphCLKConfig+0xa8>
  {
    /* Check the parameters */
    assert_param(IS_RCC_I2C1CLKSOURCE(PeriphClkInit->I2c1ClockSelection));
    
    /* Configure the I2C1 clock source */
    __HAL_RCC_I2C1_CONFIG(PeriphClkInit->I2c1ClockSelection);
 8001d62:	4a25      	ldr	r2, [pc, #148]	@ (8001df8 <HAL_RCCEx_PeriphCLKConfig+0x130>)
 8001d64:	6b13      	ldr	r3, [r2, #48]	@ 0x30
 8001d66:	2110      	movs	r1, #16
 8001d68:	438b      	bics	r3, r1
 8001d6a:	68e1      	ldr	r1, [r4, #12]
 8001d6c:	430b      	orrs	r3, r1
 8001d6e:	6313      	str	r3, [r2, #48]	@ 0x30
  }

#if defined(STM32F042x6) || defined(STM32F048xx) || defined(STM32F072xB) || defined(STM32F078xx) || defined(STM32F070xB) || defined(STM32F070x6)
  /*------------------------------ USB Configuration ------------------------*/ 
  if(((PeriphClkInit->PeriphClockSelection) & RCC_PERIPHCLK_USB) == RCC_PERIPHCLK_USB)
 8001d70:	6823      	ldr	r3, [r4, #0]
 8001d72:	039b      	lsls	r3, r3, #14
 8001d74:	d506      	bpl.n	8001d84 <HAL_RCCEx_PeriphCLKConfig+0xbc>
  {
    /* Check the parameters */
    assert_param(IS_RCC_USBCLKSOURCE(PeriphClkInit->UsbClockSelection));
    
    /* Configure the USB clock source */
    __HAL_RCC_USB_CONFIG(PeriphClkInit->UsbClockSelection);
 8001d76:	4a20      	ldr	r2, [pc, #128]	@ (8001df8 <HAL_RCCEx_PeriphCLKConfig+0x130>)
 8001d78:	6b13      	ldr	r3, [r2, #48]	@ 0x30
 8001d7a:	2180      	movs	r1, #128	@ 0x80
 8001d7c:	438b      	bics	r3, r1
 8001d7e:	6961      	ldr	r1, [r4, #20]
 8001d80:	430b      	orrs	r3, r1
 8001d82:	6313      	str	r3, [r2, #48]	@ 0x30
#if defined(STM32F042x6) || defined(STM32F048xx)\
 || defined(STM32F051x8) || defined(STM32F058xx)\
 || defined(STM32F071xB) || defined(STM32F072xB) || defined(STM32F078xx)\
 || defined(STM32F091xC) || defined(STM32F098xx)
  /*------------------------------ CEC clock Configuration -------------------*/ 
  if(((PeriphClkInit->PeriphClockSelection) & RCC_PERIPHCLK_CEC) == RCC_PERIPHCLK_CEC)
 8001d84:	6823      	ldr	r3, [r4, #0]
 8001d86:	055b      	lsls	r3, r3, #21
 8001d88:	d533      	bpl.n	8001df2 <HAL_RCCEx_PeriphCLKConfig+0x12a>
  {
    /* Check the parameters */
    assert_param(IS_RCC_CECCLKSOURCE(PeriphClkInit->CecClockSelection));
    
    /* Configure the CEC clock source */
    __HAL_RCC_CEC_CONFIG(PeriphClkInit->CecClockSelection);
 8001d8a:	4a1b      	ldr	r2, [pc, #108]	@ (8001df8 <HAL_RCCEx_PeriphCLKConfig+0x130>)
 8001d8c:	6b13      	ldr	r3, [r2, #48]	@ 0x30
 8001d8e:	2140      	movs	r1, #64	@ 0x40
 8001d90:	438b      	bics	r3, r1
 8001d92:	6921      	ldr	r1, [r4, #16]
 8001d94:	430b      	orrs	r3, r1
 8001d96:	6313      	str	r3, [r2, #48]	@ 0x30
#endif /* STM32F042x6 || STM32F048xx ||                */
       /* STM32F051x8 || STM32F058xx ||                */
       /* STM32F071xB || STM32F072xB || STM32F078xx || */
       /* STM32F091xC || STM32F098xx */
  
  return HAL_OK;
 8001d98:	2000      	movs	r0, #0
}
 8001d9a:	b002      	add	sp, #8
 8001d9c:	bd70      	pop	{r4, r5, r6, pc}
    FlagStatus       pwrclkchanged = RESET;
 8001d9e:	2500      	movs	r5, #0
 8001da0:	e7a7      	b.n	8001cf2 <HAL_RCCEx_PeriphCLKConfig+0x2a>
      SET_BIT(PWR->CR, PWR_CR_DBP);
 8001da2:	4a16      	ldr	r2, [pc, #88]	@ (8001dfc <HAL_RCCEx_PeriphCLKConfig+0x134>)
 8001da4:	6811      	ldr	r1, [r2, #0]
 8001da6:	2380      	movs	r3, #128	@ 0x80
 8001da8:	005b      	lsls	r3, r3, #1
 8001daa:	430b      	orrs	r3, r1
 8001dac:	6013      	str	r3, [r2, #0]
      tickstart = HAL_GetTick();
 8001dae:	f7fe fad1 	bl	8000354 <HAL_GetTick>
 8001db2:	0006      	movs	r6, r0
      while(HAL_IS_BIT_CLR(PWR->CR, PWR_CR_DBP))
 8001db4:	4b11      	ldr	r3, [pc, #68]	@ (8001dfc <HAL_RCCEx_PeriphCLKConfig+0x134>)
 8001db6:	681b      	ldr	r3, [r3, #0]
 8001db8:	05db      	lsls	r3, r3, #23
 8001dba:	d49e      	bmi.n	8001cfa <HAL_RCCEx_PeriphCLKConfig+0x32>
        if((HAL_GetTick() - tickstart) > RCC_DBP_TIMEOUT_VALUE)
 8001dbc:	f7fe faca 	bl	8000354 <HAL_GetTick>
 8001dc0:	1b80      	subs	r0, r0, r6
 8001dc2:	2864      	cmp	r0, #100	@ 0x64
 8001dc4:	d9f6      	bls.n	8001db4 <HAL_RCCEx_PeriphCLKConfig+0xec>
          return HAL_TIMEOUT;
 8001dc6:	2003      	movs	r0, #3
 8001dc8:	e7e7      	b.n	8001d9a <HAL_RCCEx_PeriphCLKConfig+0xd2>
        tickstart = HAL_GetTick();
 8001dca:	f7fe fac3 	bl	8000354 <HAL_GetTick>
 8001dce:	0006      	movs	r6, r0
        while(__HAL_RCC_GET_FLAG(RCC_FLAG_LSERDY) == RESET)
 8001dd0:	4b09      	ldr	r3, [pc, #36]	@ (8001df8 <HAL_RCCEx_PeriphCLKConfig+0x130>)
 8001dd2:	6a1b      	ldr	r3, [r3, #32]
 8001dd4:	079b      	lsls	r3, r3, #30
 8001dd6:	d4ae      	bmi.n	8001d36 <HAL_RCCEx_PeriphCLKConfig+0x6e>
          if((HAL_GetTick() - tickstart) > RCC_LSE_TIMEOUT_VALUE)
 8001dd8:	f7fe fabc 	bl	8000354 <HAL_GetTick>
 8001ddc:	1b80      	subs	r0, r0, r6
 8001dde:	4b0a      	ldr	r3, [pc, #40]	@ (8001e08 <HAL_RCCEx_PeriphCLKConfig+0x140>)
 8001de0:	4298      	cmp	r0, r3
 8001de2:	d9f5      	bls.n	8001dd0 <HAL_RCCEx_PeriphCLKConfig+0x108>
            return HAL_TIMEOUT;
 8001de4:	2003      	movs	r0, #3
 8001de6:	e7d8      	b.n	8001d9a <HAL_RCCEx_PeriphCLKConfig+0xd2>
      __HAL_RCC_PWR_CLK_DISABLE();
 8001de8:	69d3      	ldr	r3, [r2, #28]
 8001dea:	4908      	ldr	r1, [pc, #32]	@ (8001e0c <HAL_RCCEx_PeriphCLKConfig+0x144>)
 8001dec:	400b      	ands	r3, r1
 8001dee:	61d3      	str	r3, [r2, #28]
 8001df0:	e7aa      	b.n	8001d48 <HAL_RCCEx_PeriphCLKConfig+0x80>
  return HAL_OK;
 8001df2:	2000      	movs	r0, #0
 8001df4:	e7d1      	b.n	8001d9a <HAL_RCCEx_PeriphCLKConfig+0xd2>
 8001df6:	46c0      	nop			@ (mov r8, r8)
 8001df8:	40021000 	.word	0x40021000
 8001dfc:	40007000 	.word	0x40007000
 8001e00:	fffffcff 	.word	0xfffffcff
 8001e04:	fffeffff 	.word	0xfffeffff
 8001e08:	00001388 	.word	0x00001388
 8001e0c:	efffffff 	.word	0xefffffff

08001e10 <NMI_Handler>:
{
  /* USER CODE BEGIN NonMaskableInt_IRQn 0 */

  /* USER CODE END NonMaskableInt_IRQn 0 */
  /* USER CODE BEGIN NonMaskableInt_IRQn 1 */
   while (1)
 8001e10:	e7fe      	b.n	8001e10 <NMI_Handler>

08001e12 <HardFault_Handler>:
void HardFault_Handler(void)
{
  /* USER CODE BEGIN HardFault_IRQn 0 */

  /* USER CODE END HardFault_IRQn 0 */
  while (1)
 8001e12:	e7fe      	b.n	8001e12 <HardFault_Handler>

08001e14 <SVC_Handler>:

  /* USER CODE END SVC_IRQn 0 */
  /* USER CODE BEGIN SVC_IRQn 1 */

  /* USER CODE END SVC_IRQn 1 */
}
 8001e14:	4770      	bx	lr

08001e16 <PendSV_Handler>:

  /* USER CODE END PendSV_IRQn 0 */
  /* USER CODE BEGIN PendSV_IRQn 1 */

  /* USER CODE END PendSV_IRQn 1 */
}
 8001e16:	4770      	bx	lr

08001e18 <SysTick_Handler>:

/**
  * @brief This function handles System tick timer.
  */
void SysTick_Handler(void)
{
 8001e18:	b510      	push	{r4, lr}
  /* USER CODE BEGIN SysTick_IRQn 0 */

  /* USER CODE END SysTick_IRQn 0 */
  HAL_IncTick();
 8001e1a:	f7fe fa8f 	bl	800033c <HAL_IncTick>
  /* USER CODE BEGIN SysTick_IRQn 1 */

  /* USER CODE END SysTick_IRQn 1 */
}
 8001e1e:	bd10      	pop	{r4, pc}

08001e20 <USB_IRQHandler>:

/**
  * @brief This function handles USB global Interrupt / USB wake-up interrupt through EXTI line 18.
  */
void USB_IRQHandler(void)
{
 8001e20:	b510      	push	{r4, lr}
  /* USER CODE BEGIN USB_IRQn 0 */

  /* USER CODE END USB_IRQn 0 */
  HAL_PCD_IRQHandler(&hpcd_USB_FS);
 8001e22:	4802      	ldr	r0, [pc, #8]	@ (8001e2c <USB_IRQHandler+0xc>)
 8001e24:	f7ff f996 	bl	8001154 <HAL_PCD_IRQHandler>
  /* USER CODE BEGIN USB_IRQn 1 */

  /* USER CODE END USB_IRQn 1 */
}
 8001e28:	bd10      	pop	{r4, pc}
 8001e2a:	46c0      	nop			@ (mov r8, r8)
 8001e2c:	20000450 	.word	0x20000450

08001e30 <USB_EnableGlobalInt>:
HAL_StatusTypeDef USB_EnableGlobalInt(USB_TypeDef *USBx)
{
  uint32_t winterruptmask;

  /* Clear pending interrupts */
  USBx->ISTR = 0U;
 8001e30:	2344      	movs	r3, #68	@ 0x44
 8001e32:	2200      	movs	r2, #0
 8001e34:	52c2      	strh	r2, [r0, r3]
                   USB_CNTR_SUSPM | USB_CNTR_ERRM |
                   USB_CNTR_SOFM | USB_CNTR_ESOFM |
                   USB_CNTR_RESETM | USB_CNTR_L1REQM;

  /* Set interrupt mask */
  USBx->CNTR = (uint16_t)winterruptmask;
 8001e36:	3b04      	subs	r3, #4
 8001e38:	4a01      	ldr	r2, [pc, #4]	@ (8001e40 <USB_EnableGlobalInt+0x10>)
 8001e3a:	52c2      	strh	r2, [r0, r3]

  return HAL_OK;
}
 8001e3c:	2000      	movs	r0, #0
 8001e3e:	4770      	bx	lr
 8001e40:	ffffbf80 	.word	0xffffbf80

08001e44 <USB_DisableGlobalInt>:
                   USB_CNTR_SUSPM | USB_CNTR_ERRM |
                   USB_CNTR_SOFM | USB_CNTR_ESOFM |
                   USB_CNTR_RESETM | USB_CNTR_L1REQM;

  /* Clear interrupt mask */
  USBx->CNTR &= (uint16_t)(~winterruptmask);
 8001e44:	2240      	movs	r2, #64	@ 0x40
 8001e46:	5a83      	ldrh	r3, [r0, r2]
 8001e48:	4902      	ldr	r1, [pc, #8]	@ (8001e54 <USB_DisableGlobalInt+0x10>)
 8001e4a:	400b      	ands	r3, r1
 8001e4c:	5283      	strh	r3, [r0, r2]

  return HAL_OK;
}
 8001e4e:	2000      	movs	r0, #0
 8001e50:	4770      	bx	lr
 8001e52:	46c0      	nop			@ (mov r8, r8)
 8001e54:	0000407f 	.word	0x0000407f

08001e58 <USB_DevInit>:
  * @param  cfg  pointer to a USB_CfgTypeDef structure that contains
  *         the configuration information for the specified USBx peripheral.
  * @retval HAL status
  */
HAL_StatusTypeDef USB_DevInit(USB_TypeDef *USBx, USB_CfgTypeDef cfg)
{
 8001e58:	b082      	sub	sp, #8
 8001e5a:	9100      	str	r1, [sp, #0]
 8001e5c:	9201      	str	r2, [sp, #4]
  /* Prevent unused argument(s) compilation warning */
  UNUSED(cfg);

  /* Init Device */
  /* CNTR_FRES = 1 */
  USBx->CNTR = (uint16_t)USB_CNTR_FRES;
 8001e5e:	2240      	movs	r2, #64	@ 0x40
 8001e60:	2301      	movs	r3, #1
 8001e62:	5283      	strh	r3, [r0, r2]

  /* CNTR_FRES = 0 */
  USBx->CNTR = 0U;
 8001e64:	2300      	movs	r3, #0
 8001e66:	5283      	strh	r3, [r0, r2]

  /* Clear pending interrupts */
  USBx->ISTR = 0U;
 8001e68:	3204      	adds	r2, #4
 8001e6a:	5283      	strh	r3, [r0, r2]

  /*Set Btable Address*/
  USBx->BTABLE = BTABLE_ADDRESS;
 8001e6c:	320c      	adds	r2, #12
 8001e6e:	5283      	strh	r3, [r0, r2]

  return HAL_OK;
}
 8001e70:	2000      	movs	r0, #0
 8001e72:	b002      	add	sp, #8
 8001e74:	4770      	bx	lr
	...

08001e78 <USB_ActivateEndpoint>:
  * @param  USBx Selected device
  * @param  ep pointer to endpoint structure
  * @retval HAL status
  */
HAL_StatusTypeDef USB_ActivateEndpoint(USB_TypeDef *USBx, USB_EPTypeDef *ep)
{
 8001e78:	b5f0      	push	{r4, r5, r6, r7, lr}
 8001e7a:	0003      	movs	r3, r0
  HAL_StatusTypeDef ret = HAL_OK;
  uint16_t wEpRegVal;

  wEpRegVal = PCD_GET_ENDPOINT(USBx, ep->num) & USB_EP_T_MASK;
 8001e7c:	780d      	ldrb	r5, [r1, #0]
 8001e7e:	00ad      	lsls	r5, r5, #2
 8001e80:	1945      	adds	r5, r0, r5
 8001e82:	882a      	ldrh	r2, [r5, #0]
 8001e84:	48b9      	ldr	r0, [pc, #740]	@ (800216c <USB_ActivateEndpoint+0x2f4>)
 8001e86:	4002      	ands	r2, r0

  /* initialize Endpoint */
  switch (ep->type)
 8001e88:	78c8      	ldrb	r0, [r1, #3]
 8001e8a:	2802      	cmp	r0, #2
 8001e8c:	d057      	beq.n	8001f3e <USB_ActivateEndpoint+0xc6>
 8001e8e:	d80a      	bhi.n	8001ea6 <USB_ActivateEndpoint+0x2e>
 8001e90:	2800      	cmp	r0, #0
 8001e92:	d011      	beq.n	8001eb8 <USB_ActivateEndpoint+0x40>
 8001e94:	2801      	cmp	r0, #1
 8001e96:	d104      	bne.n	8001ea2 <USB_ActivateEndpoint+0x2a>
    case EP_TYPE_INTR:
      wEpRegVal |= USB_EP_INTERRUPT;
      break;

    case EP_TYPE_ISOC:
      wEpRegVal |= USB_EP_ISOCHRONOUS;
 8001e98:	2080      	movs	r0, #128	@ 0x80
 8001e9a:	00c0      	lsls	r0, r0, #3
 8001e9c:	4302      	orrs	r2, r0
  HAL_StatusTypeDef ret = HAL_OK;
 8001e9e:	2000      	movs	r0, #0
      break;
 8001ea0:	e00d      	b.n	8001ebe <USB_ActivateEndpoint+0x46>

    default:
      ret = HAL_ERROR;
 8001ea2:	2001      	movs	r0, #1
 8001ea4:	e00b      	b.n	8001ebe <USB_ActivateEndpoint+0x46>
  switch (ep->type)
 8001ea6:	2803      	cmp	r0, #3
 8001ea8:	d104      	bne.n	8001eb4 <USB_ActivateEndpoint+0x3c>
      wEpRegVal |= USB_EP_INTERRUPT;
 8001eaa:	20c0      	movs	r0, #192	@ 0xc0
 8001eac:	00c0      	lsls	r0, r0, #3
 8001eae:	4302      	orrs	r2, r0
  HAL_StatusTypeDef ret = HAL_OK;
 8001eb0:	2000      	movs	r0, #0
      break;
 8001eb2:	e004      	b.n	8001ebe <USB_ActivateEndpoint+0x46>
      ret = HAL_ERROR;
 8001eb4:	2001      	movs	r0, #1
 8001eb6:	e002      	b.n	8001ebe <USB_ActivateEndpoint+0x46>
      wEpRegVal |= USB_EP_CONTROL;
 8001eb8:	2480      	movs	r4, #128	@ 0x80
 8001eba:	00a4      	lsls	r4, r4, #2
 8001ebc:	4322      	orrs	r2, r4
      break;
  }

  PCD_SET_ENDPOINT(USBx, ep->num, (wEpRegVal | USB_EP_CTR_RX | USB_EP_CTR_TX));
 8001ebe:	4cac      	ldr	r4, [pc, #688]	@ (8002170 <USB_ActivateEndpoint+0x2f8>)
 8001ec0:	4322      	orrs	r2, r4
 8001ec2:	b292      	uxth	r2, r2
 8001ec4:	802a      	strh	r2, [r5, #0]

  PCD_SET_EP_ADDRESS(USBx, ep->num, ep->num);
 8001ec6:	780d      	ldrb	r5, [r1, #0]
 8001ec8:	00aa      	lsls	r2, r5, #2
 8001eca:	189a      	adds	r2, r3, r2
 8001ecc:	8816      	ldrh	r6, [r2, #0]
 8001ece:	4fa9      	ldr	r7, [pc, #676]	@ (8002174 <USB_ActivateEndpoint+0x2fc>)
 8001ed0:	403e      	ands	r6, r7
 8001ed2:	4335      	orrs	r5, r6
 8001ed4:	432c      	orrs	r4, r5
 8001ed6:	b2a4      	uxth	r4, r4
 8001ed8:	8014      	strh	r4, [r2, #0]

  if (ep->doublebuffer == 0U)
 8001eda:	7b0a      	ldrb	r2, [r1, #12]
 8001edc:	2a00      	cmp	r2, #0
 8001ede:	d000      	beq.n	8001ee2 <USB_ActivateEndpoint+0x6a>
 8001ee0:	e09e      	b.n	8002020 <USB_ActivateEndpoint+0x1a8>
  {
    if (ep->is_in != 0U)
 8001ee2:	784a      	ldrb	r2, [r1, #1]
 8001ee4:	2a00      	cmp	r2, #0
 8001ee6:	d037      	beq.n	8001f58 <USB_ActivateEndpoint+0xe0>
    {
      /*Set the endpoint Transmit buffer address */
      PCD_SET_EP_TX_ADDRESS(USBx, ep->num, ep->pmaadress);
 8001ee8:	2250      	movs	r2, #80	@ 0x50
 8001eea:	5a9c      	ldrh	r4, [r3, r2]
 8001eec:	191c      	adds	r4, r3, r4
 8001eee:	780a      	ldrb	r2, [r1, #0]
 8001ef0:	00d2      	lsls	r2, r2, #3
 8001ef2:	1912      	adds	r2, r2, r4
 8001ef4:	2480      	movs	r4, #128	@ 0x80
 8001ef6:	00e4      	lsls	r4, r4, #3
 8001ef8:	46a4      	mov	ip, r4
 8001efa:	4462      	add	r2, ip
 8001efc:	88cc      	ldrh	r4, [r1, #6]
 8001efe:	0864      	lsrs	r4, r4, #1
 8001f00:	0064      	lsls	r4, r4, #1
 8001f02:	8014      	strh	r4, [r2, #0]
      PCD_CLEAR_TX_DTOG(USBx, ep->num);
 8001f04:	780a      	ldrb	r2, [r1, #0]
 8001f06:	0092      	lsls	r2, r2, #2
 8001f08:	189a      	adds	r2, r3, r2
 8001f0a:	8814      	ldrh	r4, [r2, #0]
 8001f0c:	0664      	lsls	r4, r4, #25
 8001f0e:	d505      	bpl.n	8001f1c <USB_ActivateEndpoint+0xa4>
 8001f10:	8815      	ldrh	r5, [r2, #0]
 8001f12:	403d      	ands	r5, r7
 8001f14:	4c98      	ldr	r4, [pc, #608]	@ (8002178 <USB_ActivateEndpoint+0x300>)
 8001f16:	432c      	orrs	r4, r5
 8001f18:	b2a4      	uxth	r4, r4
 8001f1a:	8014      	strh	r4, [r2, #0]

      if (ep->type != EP_TYPE_ISOC)
 8001f1c:	78ca      	ldrb	r2, [r1, #3]
 8001f1e:	2a01      	cmp	r2, #1
 8001f20:	d00f      	beq.n	8001f42 <USB_ActivateEndpoint+0xca>
      {
        /* Configure NAK status for the Endpoint */
        PCD_SET_EP_TX_STATUS(USBx, ep->num, USB_EP_TX_NAK);
 8001f22:	780a      	ldrb	r2, [r1, #0]
 8001f24:	0092      	lsls	r2, r2, #2
 8001f26:	189a      	adds	r2, r3, r2
 8001f28:	8813      	ldrh	r3, [r2, #0]
 8001f2a:	4994      	ldr	r1, [pc, #592]	@ (800217c <USB_ActivateEndpoint+0x304>)
 8001f2c:	400b      	ands	r3, r1
 8001f2e:	2120      	movs	r1, #32
 8001f30:	404b      	eors	r3, r1
 8001f32:	b29b      	uxth	r3, r3
 8001f34:	498e      	ldr	r1, [pc, #568]	@ (8002170 <USB_ActivateEndpoint+0x2f8>)
 8001f36:	430b      	orrs	r3, r1
 8001f38:	b29b      	uxth	r3, r3
 8001f3a:	8013      	strh	r3, [r2, #0]
 8001f3c:	e0ca      	b.n	80020d4 <USB_ActivateEndpoint+0x25c>
  switch (ep->type)
 8001f3e:	2000      	movs	r0, #0
 8001f40:	e7bd      	b.n	8001ebe <USB_ActivateEndpoint+0x46>
      }
      else
      {
        /* Configure TX Endpoint to disabled state */
        PCD_SET_EP_TX_STATUS(USBx, ep->num, USB_EP_TX_DIS);
 8001f42:	780a      	ldrb	r2, [r1, #0]
 8001f44:	0092      	lsls	r2, r2, #2
 8001f46:	189b      	adds	r3, r3, r2
 8001f48:	8819      	ldrh	r1, [r3, #0]
 8001f4a:	4a8c      	ldr	r2, [pc, #560]	@ (800217c <USB_ActivateEndpoint+0x304>)
 8001f4c:	4011      	ands	r1, r2
 8001f4e:	4a88      	ldr	r2, [pc, #544]	@ (8002170 <USB_ActivateEndpoint+0x2f8>)
 8001f50:	430a      	orrs	r2, r1
 8001f52:	b292      	uxth	r2, r2
 8001f54:	801a      	strh	r2, [r3, #0]
 8001f56:	e0bd      	b.n	80020d4 <USB_ActivateEndpoint+0x25c>
      }
    }
    else
    {
      /* Set the endpoint Receive buffer address */
      PCD_SET_EP_RX_ADDRESS(USBx, ep->num, ep->pmaadress);
 8001f58:	2550      	movs	r5, #80	@ 0x50
 8001f5a:	5b5c      	ldrh	r4, [r3, r5]
 8001f5c:	191c      	adds	r4, r3, r4
 8001f5e:	780a      	ldrb	r2, [r1, #0]
 8001f60:	00d2      	lsls	r2, r2, #3
 8001f62:	1912      	adds	r2, r2, r4
 8001f64:	4c86      	ldr	r4, [pc, #536]	@ (8002180 <USB_ActivateEndpoint+0x308>)
 8001f66:	46a4      	mov	ip, r4
 8001f68:	4462      	add	r2, ip
 8001f6a:	88cc      	ldrh	r4, [r1, #6]
 8001f6c:	0864      	lsrs	r4, r4, #1
 8001f6e:	0064      	lsls	r4, r4, #1
 8001f70:	8014      	strh	r4, [r2, #0]

      /* Set the endpoint Receive buffer counter */
      PCD_SET_EP_RX_CNT(USBx, ep->num, ep->maxpacket);
 8001f72:	5b5c      	ldrh	r4, [r3, r5]
 8001f74:	191c      	adds	r4, r3, r4
 8001f76:	780a      	ldrb	r2, [r1, #0]
 8001f78:	00d2      	lsls	r2, r2, #3
 8001f7a:	1912      	adds	r2, r2, r4
 8001f7c:	4c81      	ldr	r4, [pc, #516]	@ (8002184 <USB_ActivateEndpoint+0x30c>)
 8001f7e:	46a4      	mov	ip, r4
 8001f80:	4462      	add	r2, ip
 8001f82:	8814      	ldrh	r4, [r2, #0]
 8001f84:	05a4      	lsls	r4, r4, #22
 8001f86:	0da4      	lsrs	r4, r4, #22
 8001f88:	8014      	strh	r4, [r2, #0]
 8001f8a:	690c      	ldr	r4, [r1, #16]
 8001f8c:	2c00      	cmp	r4, #0
 8001f8e:	d121      	bne.n	8001fd4 <USB_ActivateEndpoint+0x15c>
 8001f90:	8814      	ldrh	r4, [r2, #0]
 8001f92:	4d7d      	ldr	r5, [pc, #500]	@ (8002188 <USB_ActivateEndpoint+0x310>)
 8001f94:	432c      	orrs	r4, r5
 8001f96:	b2a4      	uxth	r4, r4
 8001f98:	8014      	strh	r4, [r2, #0]
      PCD_CLEAR_RX_DTOG(USBx, ep->num);
 8001f9a:	780a      	ldrb	r2, [r1, #0]
 8001f9c:	0092      	lsls	r2, r2, #2
 8001f9e:	189a      	adds	r2, r3, r2
 8001fa0:	8814      	ldrh	r4, [r2, #0]
 8001fa2:	0464      	lsls	r4, r4, #17
 8001fa4:	d506      	bpl.n	8001fb4 <USB_ActivateEndpoint+0x13c>
 8001fa6:	8815      	ldrh	r5, [r2, #0]
 8001fa8:	4c72      	ldr	r4, [pc, #456]	@ (8002174 <USB_ActivateEndpoint+0x2fc>)
 8001faa:	4025      	ands	r5, r4
 8001fac:	4c77      	ldr	r4, [pc, #476]	@ (800218c <USB_ActivateEndpoint+0x314>)
 8001fae:	432c      	orrs	r4, r5
 8001fb0:	b2a4      	uxth	r4, r4
 8001fb2:	8014      	strh	r4, [r2, #0]

      if (ep->num == 0U)
 8001fb4:	780a      	ldrb	r2, [r1, #0]
 8001fb6:	2a00      	cmp	r2, #0
 8001fb8:	d125      	bne.n	8002006 <USB_ActivateEndpoint+0x18e>
      {
        /* Configure VALID status for EP0 */
        PCD_SET_EP_RX_STATUS(USBx, ep->num, USB_EP_RX_VALID);
 8001fba:	0092      	lsls	r2, r2, #2
 8001fbc:	189a      	adds	r2, r3, r2
 8001fbe:	8813      	ldrh	r3, [r2, #0]
 8001fc0:	4973      	ldr	r1, [pc, #460]	@ (8002190 <USB_ActivateEndpoint+0x318>)
 8001fc2:	400b      	ands	r3, r1
 8001fc4:	21c0      	movs	r1, #192	@ 0xc0
 8001fc6:	0189      	lsls	r1, r1, #6
 8001fc8:	4059      	eors	r1, r3
 8001fca:	4b69      	ldr	r3, [pc, #420]	@ (8002170 <USB_ActivateEndpoint+0x2f8>)
 8001fcc:	430b      	orrs	r3, r1
 8001fce:	b29b      	uxth	r3, r3
 8001fd0:	8013      	strh	r3, [r2, #0]
 8001fd2:	e07f      	b.n	80020d4 <USB_ActivateEndpoint+0x25c>
      PCD_SET_EP_RX_CNT(USBx, ep->num, ep->maxpacket);
 8001fd4:	2c3e      	cmp	r4, #62	@ 0x3e
 8001fd6:	d809      	bhi.n	8001fec <USB_ActivateEndpoint+0x174>
 8001fd8:	0865      	lsrs	r5, r4, #1
 8001fda:	07e4      	lsls	r4, r4, #31
 8001fdc:	d500      	bpl.n	8001fe0 <USB_ActivateEndpoint+0x168>
 8001fde:	3501      	adds	r5, #1
 8001fe0:	8814      	ldrh	r4, [r2, #0]
 8001fe2:	02ad      	lsls	r5, r5, #10
 8001fe4:	b2ad      	uxth	r5, r5
 8001fe6:	432c      	orrs	r4, r5
 8001fe8:	8014      	strh	r4, [r2, #0]
 8001fea:	e7d6      	b.n	8001f9a <USB_ActivateEndpoint+0x122>
 8001fec:	0965      	lsrs	r5, r4, #5
 8001fee:	06e4      	lsls	r4, r4, #27
 8001ff0:	d100      	bne.n	8001ff4 <USB_ActivateEndpoint+0x17c>
 8001ff2:	3d01      	subs	r5, #1
 8001ff4:	8814      	ldrh	r4, [r2, #0]
 8001ff6:	02ad      	lsls	r5, r5, #10
 8001ff8:	b2ad      	uxth	r5, r5
 8001ffa:	4325      	orrs	r5, r4
 8001ffc:	4c62      	ldr	r4, [pc, #392]	@ (8002188 <USB_ActivateEndpoint+0x310>)
 8001ffe:	432c      	orrs	r4, r5
 8002000:	b2a4      	uxth	r4, r4
 8002002:	8014      	strh	r4, [r2, #0]
 8002004:	e7c9      	b.n	8001f9a <USB_ActivateEndpoint+0x122>
      }
      else
      {
        /* Configure NAK status for OUT Endpoint */
        PCD_SET_EP_RX_STATUS(USBx, ep->num, USB_EP_RX_NAK);
 8002006:	0092      	lsls	r2, r2, #2
 8002008:	189a      	adds	r2, r3, r2
 800200a:	8813      	ldrh	r3, [r2, #0]
 800200c:	4960      	ldr	r1, [pc, #384]	@ (8002190 <USB_ActivateEndpoint+0x318>)
 800200e:	400b      	ands	r3, r1
 8002010:	2180      	movs	r1, #128	@ 0x80
 8002012:	0189      	lsls	r1, r1, #6
 8002014:	4059      	eors	r1, r3
 8002016:	4b56      	ldr	r3, [pc, #344]	@ (8002170 <USB_ActivateEndpoint+0x2f8>)
 8002018:	430b      	orrs	r3, r1
 800201a:	b29b      	uxth	r3, r3
 800201c:	8013      	strh	r3, [r2, #0]
 800201e:	e059      	b.n	80020d4 <USB_ActivateEndpoint+0x25c>
  }
#if (USE_USB_DOUBLE_BUFFER == 1U)
  /* Double Buffer */
  else
  {
    if (ep->type == EP_TYPE_BULK)
 8002020:	78ca      	ldrb	r2, [r1, #3]
 8002022:	2a02      	cmp	r2, #2
 8002024:	d057      	beq.n	80020d6 <USB_ActivateEndpoint+0x25e>
      PCD_SET_BULK_EP_DBUF(USBx, ep->num);
    }
    else
    {
      /* Set the ISOC endpoint in double buffer mode */
      PCD_CLEAR_EP_KIND(USBx, ep->num);
 8002026:	780a      	ldrb	r2, [r1, #0]
 8002028:	0092      	lsls	r2, r2, #2
 800202a:	189a      	adds	r2, r3, r2
 800202c:	8815      	ldrh	r5, [r2, #0]
 800202e:	4c59      	ldr	r4, [pc, #356]	@ (8002194 <USB_ActivateEndpoint+0x31c>)
 8002030:	4025      	ands	r5, r4
 8002032:	4c4f      	ldr	r4, [pc, #316]	@ (8002170 <USB_ActivateEndpoint+0x2f8>)
 8002034:	432c      	orrs	r4, r5
 8002036:	b2a4      	uxth	r4, r4
 8002038:	8014      	strh	r4, [r2, #0]
    }

    /* Set buffer address for double buffered mode */
    PCD_SET_EP_DBUF_ADDR(USBx, ep->num, ep->pmaaddr0, ep->pmaaddr1);
 800203a:	2550      	movs	r5, #80	@ 0x50
 800203c:	5b5c      	ldrh	r4, [r3, r5]
 800203e:	191c      	adds	r4, r3, r4
 8002040:	780a      	ldrb	r2, [r1, #0]
 8002042:	00d2      	lsls	r2, r2, #3
 8002044:	1912      	adds	r2, r2, r4
 8002046:	2480      	movs	r4, #128	@ 0x80
 8002048:	00e4      	lsls	r4, r4, #3
 800204a:	46a4      	mov	ip, r4
 800204c:	4462      	add	r2, ip
 800204e:	890c      	ldrh	r4, [r1, #8]
 8002050:	0864      	lsrs	r4, r4, #1
 8002052:	0064      	lsls	r4, r4, #1
 8002054:	8014      	strh	r4, [r2, #0]
 8002056:	5b5c      	ldrh	r4, [r3, r5]
 8002058:	191c      	adds	r4, r3, r4
 800205a:	780a      	ldrb	r2, [r1, #0]
 800205c:	00d2      	lsls	r2, r2, #3
 800205e:	1912      	adds	r2, r2, r4
 8002060:	4c47      	ldr	r4, [pc, #284]	@ (8002180 <USB_ActivateEndpoint+0x308>)
 8002062:	46a4      	mov	ip, r4
 8002064:	4462      	add	r2, ip
 8002066:	894c      	ldrh	r4, [r1, #10]
 8002068:	0864      	lsrs	r4, r4, #1
 800206a:	0064      	lsls	r4, r4, #1
 800206c:	8014      	strh	r4, [r2, #0]

    if (ep->is_in == 0U)
 800206e:	784a      	ldrb	r2, [r1, #1]
 8002070:	2a00      	cmp	r2, #0
 8002072:	d13b      	bne.n	80020ec <USB_ActivateEndpoint+0x274>
    {
      /* Clear the data toggle bits for the endpoint IN/OUT */
      PCD_CLEAR_RX_DTOG(USBx, ep->num);
 8002074:	780a      	ldrb	r2, [r1, #0]
 8002076:	0092      	lsls	r2, r2, #2
 8002078:	189a      	adds	r2, r3, r2
 800207a:	8814      	ldrh	r4, [r2, #0]
 800207c:	0464      	lsls	r4, r4, #17
 800207e:	d506      	bpl.n	800208e <USB_ActivateEndpoint+0x216>
 8002080:	8815      	ldrh	r5, [r2, #0]
 8002082:	4c3c      	ldr	r4, [pc, #240]	@ (8002174 <USB_ActivateEndpoint+0x2fc>)
 8002084:	4025      	ands	r5, r4
 8002086:	4c41      	ldr	r4, [pc, #260]	@ (800218c <USB_ActivateEndpoint+0x314>)
 8002088:	432c      	orrs	r4, r5
 800208a:	b2a4      	uxth	r4, r4
 800208c:	8014      	strh	r4, [r2, #0]
      PCD_CLEAR_TX_DTOG(USBx, ep->num);
 800208e:	780a      	ldrb	r2, [r1, #0]
 8002090:	0092      	lsls	r2, r2, #2
 8002092:	189a      	adds	r2, r3, r2
 8002094:	8814      	ldrh	r4, [r2, #0]
 8002096:	0664      	lsls	r4, r4, #25
 8002098:	d506      	bpl.n	80020a8 <USB_ActivateEndpoint+0x230>
 800209a:	8815      	ldrh	r5, [r2, #0]
 800209c:	4c35      	ldr	r4, [pc, #212]	@ (8002174 <USB_ActivateEndpoint+0x2fc>)
 800209e:	4025      	ands	r5, r4
 80020a0:	4c35      	ldr	r4, [pc, #212]	@ (8002178 <USB_ActivateEndpoint+0x300>)
 80020a2:	432c      	orrs	r4, r5
 80020a4:	b2a4      	uxth	r4, r4
 80020a6:	8014      	strh	r4, [r2, #0]

      PCD_SET_EP_RX_STATUS(USBx, ep->num, USB_EP_RX_VALID);
 80020a8:	780c      	ldrb	r4, [r1, #0]
 80020aa:	00a4      	lsls	r4, r4, #2
 80020ac:	191c      	adds	r4, r3, r4
 80020ae:	8825      	ldrh	r5, [r4, #0]
 80020b0:	4a37      	ldr	r2, [pc, #220]	@ (8002190 <USB_ActivateEndpoint+0x318>)
 80020b2:	4015      	ands	r5, r2
 80020b4:	22c0      	movs	r2, #192	@ 0xc0
 80020b6:	0192      	lsls	r2, r2, #6
 80020b8:	406a      	eors	r2, r5
 80020ba:	4d2d      	ldr	r5, [pc, #180]	@ (8002170 <USB_ActivateEndpoint+0x2f8>)
 80020bc:	432a      	orrs	r2, r5
 80020be:	b292      	uxth	r2, r2
 80020c0:	8022      	strh	r2, [r4, #0]
      PCD_SET_EP_TX_STATUS(USBx, ep->num, USB_EP_TX_DIS);
 80020c2:	780a      	ldrb	r2, [r1, #0]
 80020c4:	0092      	lsls	r2, r2, #2
 80020c6:	189b      	adds	r3, r3, r2
 80020c8:	881a      	ldrh	r2, [r3, #0]
 80020ca:	492c      	ldr	r1, [pc, #176]	@ (800217c <USB_ActivateEndpoint+0x304>)
 80020cc:	400a      	ands	r2, r1
 80020ce:	432a      	orrs	r2, r5
 80020d0:	b292      	uxth	r2, r2
 80020d2:	801a      	strh	r2, [r3, #0]
    }
  }
#endif /* (USE_USB_DOUBLE_BUFFER == 1U) */

  return ret;
}
 80020d4:	bdf0      	pop	{r4, r5, r6, r7, pc}
      PCD_SET_BULK_EP_DBUF(USBx, ep->num);
 80020d6:	780a      	ldrb	r2, [r1, #0]
 80020d8:	0092      	lsls	r2, r2, #2
 80020da:	189a      	adds	r2, r3, r2
 80020dc:	8815      	ldrh	r5, [r2, #0]
 80020de:	4c25      	ldr	r4, [pc, #148]	@ (8002174 <USB_ActivateEndpoint+0x2fc>)
 80020e0:	4025      	ands	r5, r4
 80020e2:	4c2d      	ldr	r4, [pc, #180]	@ (8002198 <USB_ActivateEndpoint+0x320>)
 80020e4:	432c      	orrs	r4, r5
 80020e6:	b2a4      	uxth	r4, r4
 80020e8:	8014      	strh	r4, [r2, #0]
 80020ea:	e7a6      	b.n	800203a <USB_ActivateEndpoint+0x1c2>
      PCD_CLEAR_RX_DTOG(USBx, ep->num);
 80020ec:	780a      	ldrb	r2, [r1, #0]
 80020ee:	0092      	lsls	r2, r2, #2
 80020f0:	189a      	adds	r2, r3, r2
 80020f2:	8814      	ldrh	r4, [r2, #0]
 80020f4:	0464      	lsls	r4, r4, #17
 80020f6:	d506      	bpl.n	8002106 <USB_ActivateEndpoint+0x28e>
 80020f8:	8815      	ldrh	r5, [r2, #0]
 80020fa:	4c1e      	ldr	r4, [pc, #120]	@ (8002174 <USB_ActivateEndpoint+0x2fc>)
 80020fc:	4025      	ands	r5, r4
 80020fe:	4c23      	ldr	r4, [pc, #140]	@ (800218c <USB_ActivateEndpoint+0x314>)
 8002100:	432c      	orrs	r4, r5
 8002102:	b2a4      	uxth	r4, r4
 8002104:	8014      	strh	r4, [r2, #0]
      PCD_CLEAR_TX_DTOG(USBx, ep->num);
 8002106:	780a      	ldrb	r2, [r1, #0]
 8002108:	0092      	lsls	r2, r2, #2
 800210a:	189a      	adds	r2, r3, r2
 800210c:	8814      	ldrh	r4, [r2, #0]
 800210e:	0664      	lsls	r4, r4, #25
 8002110:	d506      	bpl.n	8002120 <USB_ActivateEndpoint+0x2a8>
 8002112:	8815      	ldrh	r5, [r2, #0]
 8002114:	4c17      	ldr	r4, [pc, #92]	@ (8002174 <USB_ActivateEndpoint+0x2fc>)
 8002116:	4025      	ands	r5, r4
 8002118:	4c17      	ldr	r4, [pc, #92]	@ (8002178 <USB_ActivateEndpoint+0x300>)
 800211a:	432c      	orrs	r4, r5
 800211c:	b2a4      	uxth	r4, r4
 800211e:	8014      	strh	r4, [r2, #0]
      if (ep->type != EP_TYPE_ISOC)
 8002120:	78ca      	ldrb	r2, [r1, #3]
 8002122:	2a01      	cmp	r2, #1
 8002124:	d017      	beq.n	8002156 <USB_ActivateEndpoint+0x2de>
        PCD_SET_EP_TX_STATUS(USBx, ep->num, USB_EP_TX_NAK);
 8002126:	780c      	ldrb	r4, [r1, #0]
 8002128:	00a4      	lsls	r4, r4, #2
 800212a:	191c      	adds	r4, r3, r4
 800212c:	8822      	ldrh	r2, [r4, #0]
 800212e:	4d13      	ldr	r5, [pc, #76]	@ (800217c <USB_ActivateEndpoint+0x304>)
 8002130:	402a      	ands	r2, r5
 8002132:	2520      	movs	r5, #32
 8002134:	406a      	eors	r2, r5
 8002136:	b292      	uxth	r2, r2
 8002138:	4d0d      	ldr	r5, [pc, #52]	@ (8002170 <USB_ActivateEndpoint+0x2f8>)
 800213a:	432a      	orrs	r2, r5
 800213c:	b292      	uxth	r2, r2
 800213e:	8022      	strh	r2, [r4, #0]
      PCD_SET_EP_RX_STATUS(USBx, ep->num, USB_EP_RX_DIS);
 8002140:	780a      	ldrb	r2, [r1, #0]
 8002142:	0092      	lsls	r2, r2, #2
 8002144:	189b      	adds	r3, r3, r2
 8002146:	8819      	ldrh	r1, [r3, #0]
 8002148:	4a11      	ldr	r2, [pc, #68]	@ (8002190 <USB_ActivateEndpoint+0x318>)
 800214a:	4011      	ands	r1, r2
 800214c:	4a08      	ldr	r2, [pc, #32]	@ (8002170 <USB_ActivateEndpoint+0x2f8>)
 800214e:	430a      	orrs	r2, r1
 8002150:	b292      	uxth	r2, r2
 8002152:	801a      	strh	r2, [r3, #0]
 8002154:	e7be      	b.n	80020d4 <USB_ActivateEndpoint+0x25c>
        PCD_SET_EP_TX_STATUS(USBx, ep->num, USB_EP_TX_DIS);
 8002156:	780a      	ldrb	r2, [r1, #0]
 8002158:	0092      	lsls	r2, r2, #2
 800215a:	189a      	adds	r2, r3, r2
 800215c:	8815      	ldrh	r5, [r2, #0]
 800215e:	4c07      	ldr	r4, [pc, #28]	@ (800217c <USB_ActivateEndpoint+0x304>)
 8002160:	4025      	ands	r5, r4
 8002162:	4c03      	ldr	r4, [pc, #12]	@ (8002170 <USB_ActivateEndpoint+0x2f8>)
 8002164:	432c      	orrs	r4, r5
 8002166:	b2a4      	uxth	r4, r4
 8002168:	8014      	strh	r4, [r2, #0]
 800216a:	e7e9      	b.n	8002140 <USB_ActivateEndpoint+0x2c8>
 800216c:	ffff898f 	.word	0xffff898f
 8002170:	ffff8080 	.word	0xffff8080
 8002174:	ffff8f8f 	.word	0xffff8f8f
 8002178:	ffff80c0 	.word	0xffff80c0
 800217c:	ffff8fbf 	.word	0xffff8fbf
 8002180:	00000404 	.word	0x00000404
 8002184:	00000406 	.word	0x00000406
 8002188:	ffff8000 	.word	0xffff8000
 800218c:	ffffc080 	.word	0xffffc080
 8002190:	ffffbf8f 	.word	0xffffbf8f
 8002194:	ffff8e8f 	.word	0xffff8e8f
 8002198:	ffff8180 	.word	0xffff8180

0800219c <USB_DeactivateEndpoint>:
  * @param  USBx Selected device
  * @param  ep pointer to endpoint structure
  * @retval HAL status
  */
HAL_StatusTypeDef USB_DeactivateEndpoint(USB_TypeDef *USBx, USB_EPTypeDef *ep)
{
 800219c:	b510      	push	{r4, lr}
  if (ep->doublebuffer == 0U)
 800219e:	7b0b      	ldrb	r3, [r1, #12]
 80021a0:	2b00      	cmp	r3, #0
 80021a2:	d133      	bne.n	800220c <USB_DeactivateEndpoint+0x70>
  {
    if (ep->is_in != 0U)
 80021a4:	784b      	ldrb	r3, [r1, #1]
 80021a6:	2b00      	cmp	r3, #0
 80021a8:	d018      	beq.n	80021dc <USB_DeactivateEndpoint+0x40>
    {
      PCD_CLEAR_TX_DTOG(USBx, ep->num);
 80021aa:	780b      	ldrb	r3, [r1, #0]
 80021ac:	009b      	lsls	r3, r3, #2
 80021ae:	18c3      	adds	r3, r0, r3
 80021b0:	881a      	ldrh	r2, [r3, #0]
 80021b2:	0652      	lsls	r2, r2, #25
 80021b4:	d506      	bpl.n	80021c4 <USB_DeactivateEndpoint+0x28>
 80021b6:	881c      	ldrh	r4, [r3, #0]
 80021b8:	4a4e      	ldr	r2, [pc, #312]	@ (80022f4 <USB_DeactivateEndpoint+0x158>)
 80021ba:	4014      	ands	r4, r2
 80021bc:	4a4e      	ldr	r2, [pc, #312]	@ (80022f8 <USB_DeactivateEndpoint+0x15c>)
 80021be:	4322      	orrs	r2, r4
 80021c0:	b292      	uxth	r2, r2
 80021c2:	801a      	strh	r2, [r3, #0]

      /* Configure DISABLE status for the Endpoint */
      PCD_SET_EP_TX_STATUS(USBx, ep->num, USB_EP_TX_DIS);
 80021c4:	780b      	ldrb	r3, [r1, #0]
 80021c6:	009b      	lsls	r3, r3, #2
 80021c8:	18c3      	adds	r3, r0, r3
 80021ca:	8819      	ldrh	r1, [r3, #0]
 80021cc:	4a4b      	ldr	r2, [pc, #300]	@ (80022fc <USB_DeactivateEndpoint+0x160>)
 80021ce:	4011      	ands	r1, r2
 80021d0:	4a4b      	ldr	r2, [pc, #300]	@ (8002300 <USB_DeactivateEndpoint+0x164>)
 80021d2:	430a      	orrs	r2, r1
 80021d4:	b292      	uxth	r2, r2
 80021d6:	801a      	strh	r2, [r3, #0]
    }
  }
#endif /* (USE_USB_DOUBLE_BUFFER == 1U) */

  return HAL_OK;
}
 80021d8:	2000      	movs	r0, #0
 80021da:	bd10      	pop	{r4, pc}
      PCD_CLEAR_RX_DTOG(USBx, ep->num);
 80021dc:	780b      	ldrb	r3, [r1, #0]
 80021de:	009b      	lsls	r3, r3, #2
 80021e0:	18c3      	adds	r3, r0, r3
 80021e2:	881a      	ldrh	r2, [r3, #0]
 80021e4:	0452      	lsls	r2, r2, #17
 80021e6:	d506      	bpl.n	80021f6 <USB_DeactivateEndpoint+0x5a>
 80021e8:	881c      	ldrh	r4, [r3, #0]
 80021ea:	4a42      	ldr	r2, [pc, #264]	@ (80022f4 <USB_DeactivateEndpoint+0x158>)
 80021ec:	4014      	ands	r4, r2
 80021ee:	4a45      	ldr	r2, [pc, #276]	@ (8002304 <USB_DeactivateEndpoint+0x168>)
 80021f0:	4322      	orrs	r2, r4
 80021f2:	b292      	uxth	r2, r2
 80021f4:	801a      	strh	r2, [r3, #0]
      PCD_SET_EP_RX_STATUS(USBx, ep->num, USB_EP_RX_DIS);
 80021f6:	780b      	ldrb	r3, [r1, #0]
 80021f8:	009b      	lsls	r3, r3, #2
 80021fa:	18c3      	adds	r3, r0, r3
 80021fc:	8819      	ldrh	r1, [r3, #0]
 80021fe:	4a42      	ldr	r2, [pc, #264]	@ (8002308 <USB_DeactivateEndpoint+0x16c>)
 8002200:	4011      	ands	r1, r2
 8002202:	4a3f      	ldr	r2, [pc, #252]	@ (8002300 <USB_DeactivateEndpoint+0x164>)
 8002204:	430a      	orrs	r2, r1
 8002206:	b292      	uxth	r2, r2
 8002208:	801a      	strh	r2, [r3, #0]
 800220a:	e7e5      	b.n	80021d8 <USB_DeactivateEndpoint+0x3c>
    if (ep->is_in == 0U)
 800220c:	784b      	ldrb	r3, [r1, #1]
 800220e:	2b00      	cmp	r3, #0
 8002210:	d137      	bne.n	8002282 <USB_DeactivateEndpoint+0xe6>
      PCD_CLEAR_RX_DTOG(USBx, ep->num);
 8002212:	780b      	ldrb	r3, [r1, #0]
 8002214:	009b      	lsls	r3, r3, #2
 8002216:	18c3      	adds	r3, r0, r3
 8002218:	881a      	ldrh	r2, [r3, #0]
 800221a:	0452      	lsls	r2, r2, #17
 800221c:	d506      	bpl.n	800222c <USB_DeactivateEndpoint+0x90>
 800221e:	881c      	ldrh	r4, [r3, #0]
 8002220:	4a34      	ldr	r2, [pc, #208]	@ (80022f4 <USB_DeactivateEndpoint+0x158>)
 8002222:	4014      	ands	r4, r2
 8002224:	4a37      	ldr	r2, [pc, #220]	@ (8002304 <USB_DeactivateEndpoint+0x168>)
 8002226:	4322      	orrs	r2, r4
 8002228:	b292      	uxth	r2, r2
 800222a:	801a      	strh	r2, [r3, #0]
      PCD_CLEAR_TX_DTOG(USBx, ep->num);
 800222c:	780b      	ldrb	r3, [r1, #0]
 800222e:	009b      	lsls	r3, r3, #2
 8002230:	18c3      	adds	r3, r0, r3
 8002232:	881a      	ldrh	r2, [r3, #0]
 8002234:	0652      	lsls	r2, r2, #25
 8002236:	d506      	bpl.n	8002246 <USB_DeactivateEndpoint+0xaa>
 8002238:	881c      	ldrh	r4, [r3, #0]
 800223a:	4a2e      	ldr	r2, [pc, #184]	@ (80022f4 <USB_DeactivateEndpoint+0x158>)
 800223c:	4014      	ands	r4, r2
 800223e:	4a2e      	ldr	r2, [pc, #184]	@ (80022f8 <USB_DeactivateEndpoint+0x15c>)
 8002240:	4322      	orrs	r2, r4
 8002242:	b292      	uxth	r2, r2
 8002244:	801a      	strh	r2, [r3, #0]
      PCD_TX_DTOG(USBx, ep->num);
 8002246:	780b      	ldrb	r3, [r1, #0]
 8002248:	009b      	lsls	r3, r3, #2
 800224a:	18c3      	adds	r3, r0, r3
 800224c:	881c      	ldrh	r4, [r3, #0]
 800224e:	4a29      	ldr	r2, [pc, #164]	@ (80022f4 <USB_DeactivateEndpoint+0x158>)
 8002250:	4014      	ands	r4, r2
 8002252:	4a29      	ldr	r2, [pc, #164]	@ (80022f8 <USB_DeactivateEndpoint+0x15c>)
 8002254:	4322      	orrs	r2, r4
 8002256:	b292      	uxth	r2, r2
 8002258:	801a      	strh	r2, [r3, #0]
      PCD_SET_EP_RX_STATUS(USBx, ep->num, USB_EP_RX_DIS);
 800225a:	780c      	ldrb	r4, [r1, #0]
 800225c:	00a4      	lsls	r4, r4, #2
 800225e:	1904      	adds	r4, r0, r4
 8002260:	8823      	ldrh	r3, [r4, #0]
 8002262:	4a29      	ldr	r2, [pc, #164]	@ (8002308 <USB_DeactivateEndpoint+0x16c>)
 8002264:	4013      	ands	r3, r2
 8002266:	4a26      	ldr	r2, [pc, #152]	@ (8002300 <USB_DeactivateEndpoint+0x164>)
 8002268:	4313      	orrs	r3, r2
 800226a:	b29b      	uxth	r3, r3
 800226c:	8023      	strh	r3, [r4, #0]
      PCD_SET_EP_TX_STATUS(USBx, ep->num, USB_EP_TX_DIS);
 800226e:	780b      	ldrb	r3, [r1, #0]
 8002270:	009b      	lsls	r3, r3, #2
 8002272:	18c3      	adds	r3, r0, r3
 8002274:	8819      	ldrh	r1, [r3, #0]
 8002276:	4821      	ldr	r0, [pc, #132]	@ (80022fc <USB_DeactivateEndpoint+0x160>)
 8002278:	4001      	ands	r1, r0
 800227a:	430a      	orrs	r2, r1
 800227c:	b292      	uxth	r2, r2
 800227e:	801a      	strh	r2, [r3, #0]
 8002280:	e7aa      	b.n	80021d8 <USB_DeactivateEndpoint+0x3c>
      PCD_CLEAR_RX_DTOG(USBx, ep->num);
 8002282:	780b      	ldrb	r3, [r1, #0]
 8002284:	009b      	lsls	r3, r3, #2
 8002286:	18c3      	adds	r3, r0, r3
 8002288:	881a      	ldrh	r2, [r3, #0]
 800228a:	0452      	lsls	r2, r2, #17
 800228c:	d506      	bpl.n	800229c <USB_DeactivateEndpoint+0x100>
 800228e:	881c      	ldrh	r4, [r3, #0]
 8002290:	4a18      	ldr	r2, [pc, #96]	@ (80022f4 <USB_DeactivateEndpoint+0x158>)
 8002292:	4014      	ands	r4, r2
 8002294:	4a1b      	ldr	r2, [pc, #108]	@ (8002304 <USB_DeactivateEndpoint+0x168>)
 8002296:	4322      	orrs	r2, r4
 8002298:	b292      	uxth	r2, r2
 800229a:	801a      	strh	r2, [r3, #0]
      PCD_CLEAR_TX_DTOG(USBx, ep->num);
 800229c:	780b      	ldrb	r3, [r1, #0]
 800229e:	009b      	lsls	r3, r3, #2
 80022a0:	18c3      	adds	r3, r0, r3
 80022a2:	881a      	ldrh	r2, [r3, #0]
 80022a4:	0652      	lsls	r2, r2, #25
 80022a6:	d506      	bpl.n	80022b6 <USB_DeactivateEndpoint+0x11a>
 80022a8:	881c      	ldrh	r4, [r3, #0]
 80022aa:	4a12      	ldr	r2, [pc, #72]	@ (80022f4 <USB_DeactivateEndpoint+0x158>)
 80022ac:	4014      	ands	r4, r2
 80022ae:	4a12      	ldr	r2, [pc, #72]	@ (80022f8 <USB_DeactivateEndpoint+0x15c>)
 80022b0:	4322      	orrs	r2, r4
 80022b2:	b292      	uxth	r2, r2
 80022b4:	801a      	strh	r2, [r3, #0]
      PCD_RX_DTOG(USBx, ep->num);
 80022b6:	780b      	ldrb	r3, [r1, #0]
 80022b8:	009b      	lsls	r3, r3, #2
 80022ba:	18c3      	adds	r3, r0, r3
 80022bc:	881c      	ldrh	r4, [r3, #0]
 80022be:	4a0d      	ldr	r2, [pc, #52]	@ (80022f4 <USB_DeactivateEndpoint+0x158>)
 80022c0:	4014      	ands	r4, r2
 80022c2:	4a10      	ldr	r2, [pc, #64]	@ (8002304 <USB_DeactivateEndpoint+0x168>)
 80022c4:	4322      	orrs	r2, r4
 80022c6:	b292      	uxth	r2, r2
 80022c8:	801a      	strh	r2, [r3, #0]
      PCD_SET_EP_TX_STATUS(USBx, ep->num, USB_EP_TX_DIS);
 80022ca:	780c      	ldrb	r4, [r1, #0]
 80022cc:	00a4      	lsls	r4, r4, #2
 80022ce:	1904      	adds	r4, r0, r4
 80022d0:	8823      	ldrh	r3, [r4, #0]
 80022d2:	4a0a      	ldr	r2, [pc, #40]	@ (80022fc <USB_DeactivateEndpoint+0x160>)
 80022d4:	4013      	ands	r3, r2
 80022d6:	4a0a      	ldr	r2, [pc, #40]	@ (8002300 <USB_DeactivateEndpoint+0x164>)
 80022d8:	4313      	orrs	r3, r2
 80022da:	b29b      	uxth	r3, r3
 80022dc:	8023      	strh	r3, [r4, #0]
      PCD_SET_EP_RX_STATUS(USBx, ep->num, USB_EP_RX_DIS);
 80022de:	780b      	ldrb	r3, [r1, #0]
 80022e0:	009b      	lsls	r3, r3, #2
 80022e2:	18c0      	adds	r0, r0, r3
 80022e4:	8803      	ldrh	r3, [r0, #0]
 80022e6:	4908      	ldr	r1, [pc, #32]	@ (8002308 <USB_DeactivateEndpoint+0x16c>)
 80022e8:	400b      	ands	r3, r1
 80022ea:	431a      	orrs	r2, r3
 80022ec:	b292      	uxth	r2, r2
 80022ee:	8002      	strh	r2, [r0, #0]
 80022f0:	e772      	b.n	80021d8 <USB_DeactivateEndpoint+0x3c>
 80022f2:	46c0      	nop			@ (mov r8, r8)
 80022f4:	ffff8f8f 	.word	0xffff8f8f
 80022f8:	ffff80c0 	.word	0xffff80c0
 80022fc:	ffff8fbf 	.word	0xffff8fbf
 8002300:	ffff8080 	.word	0xffff8080
 8002304:	ffffc080 	.word	0xffffc080
 8002308:	ffffbf8f 	.word	0xffffbf8f

0800230c <USB_EPSetStall>:
  * @param  ep pointer to endpoint structure
  * @retval HAL status
  */
HAL_StatusTypeDef USB_EPSetStall(USB_TypeDef *USBx, USB_EPTypeDef *ep)
{
  if (ep->is_in != 0U)
 800230c:	784b      	ldrb	r3, [r1, #1]
 800230e:	2b00      	cmp	r3, #0
 8002310:	d00e      	beq.n	8002330 <USB_EPSetStall+0x24>
  {
    PCD_SET_EP_TX_STATUS(USBx, ep->num, USB_EP_TX_STALL);
 8002312:	780b      	ldrb	r3, [r1, #0]
 8002314:	009b      	lsls	r3, r3, #2
 8002316:	18c0      	adds	r0, r0, r3
 8002318:	8803      	ldrh	r3, [r0, #0]
 800231a:	4a0c      	ldr	r2, [pc, #48]	@ (800234c <USB_EPSetStall+0x40>)
 800231c:	4013      	ands	r3, r2
 800231e:	2210      	movs	r2, #16
 8002320:	4053      	eors	r3, r2
 8002322:	b29b      	uxth	r3, r3
 8002324:	4a0a      	ldr	r2, [pc, #40]	@ (8002350 <USB_EPSetStall+0x44>)
 8002326:	4313      	orrs	r3, r2
 8002328:	b29b      	uxth	r3, r3
 800232a:	8003      	strh	r3, [r0, #0]
  {
    PCD_SET_EP_RX_STATUS(USBx, ep->num, USB_EP_RX_STALL);
  }

  return HAL_OK;
}
 800232c:	2000      	movs	r0, #0
 800232e:	4770      	bx	lr
    PCD_SET_EP_RX_STATUS(USBx, ep->num, USB_EP_RX_STALL);
 8002330:	780b      	ldrb	r3, [r1, #0]
 8002332:	009b      	lsls	r3, r3, #2
 8002334:	18c0      	adds	r0, r0, r3
 8002336:	8803      	ldrh	r3, [r0, #0]
 8002338:	4a06      	ldr	r2, [pc, #24]	@ (8002354 <USB_EPSetStall+0x48>)
 800233a:	4013      	ands	r3, r2
 800233c:	2280      	movs	r2, #128	@ 0x80
 800233e:	0152      	lsls	r2, r2, #5
 8002340:	405a      	eors	r2, r3
 8002342:	4b03      	ldr	r3, [pc, #12]	@ (8002350 <USB_EPSetStall+0x44>)
 8002344:	4313      	orrs	r3, r2
 8002346:	b29b      	uxth	r3, r3
 8002348:	8003      	strh	r3, [r0, #0]
 800234a:	e7ef      	b.n	800232c <USB_EPSetStall+0x20>
 800234c:	ffff8fbf 	.word	0xffff8fbf
 8002350:	ffff8080 	.word	0xffff8080
 8002354:	ffffbf8f 	.word	0xffffbf8f

08002358 <USB_EPClearStall>:
  * @param  USBx Selected device
  * @param  ep pointer to endpoint structure
  * @retval HAL status
  */
HAL_StatusTypeDef USB_EPClearStall(USB_TypeDef *USBx, USB_EPTypeDef *ep)
{
 8002358:	b510      	push	{r4, lr}
  if (ep->doublebuffer == 0U)
 800235a:	7b0b      	ldrb	r3, [r1, #12]
 800235c:	2b00      	cmp	r3, #0
 800235e:	d13a      	bne.n	80023d6 <USB_EPClearStall+0x7e>
  {
    if (ep->is_in != 0U)
 8002360:	784b      	ldrb	r3, [r1, #1]
 8002362:	2b00      	cmp	r3, #0
 8002364:	d01d      	beq.n	80023a2 <USB_EPClearStall+0x4a>
    {
      PCD_CLEAR_TX_DTOG(USBx, ep->num);
 8002366:	780b      	ldrb	r3, [r1, #0]
 8002368:	009b      	lsls	r3, r3, #2
 800236a:	18c3      	adds	r3, r0, r3
 800236c:	881a      	ldrh	r2, [r3, #0]
 800236e:	0652      	lsls	r2, r2, #25
 8002370:	d506      	bpl.n	8002380 <USB_EPClearStall+0x28>
 8002372:	881c      	ldrh	r4, [r3, #0]
 8002374:	4a19      	ldr	r2, [pc, #100]	@ (80023dc <USB_EPClearStall+0x84>)
 8002376:	4014      	ands	r4, r2
 8002378:	4a19      	ldr	r2, [pc, #100]	@ (80023e0 <USB_EPClearStall+0x88>)
 800237a:	4322      	orrs	r2, r4
 800237c:	b292      	uxth	r2, r2
 800237e:	801a      	strh	r2, [r3, #0]

      if (ep->type != EP_TYPE_ISOC)
 8002380:	78cb      	ldrb	r3, [r1, #3]
 8002382:	2b01      	cmp	r3, #1
 8002384:	d027      	beq.n	80023d6 <USB_EPClearStall+0x7e>
      {
        /* Configure NAK status for the Endpoint */
        PCD_SET_EP_TX_STATUS(USBx, ep->num, USB_EP_TX_NAK);
 8002386:	780a      	ldrb	r2, [r1, #0]
 8002388:	0092      	lsls	r2, r2, #2
 800238a:	1882      	adds	r2, r0, r2
 800238c:	8813      	ldrh	r3, [r2, #0]
 800238e:	4915      	ldr	r1, [pc, #84]	@ (80023e4 <USB_EPClearStall+0x8c>)
 8002390:	400b      	ands	r3, r1
 8002392:	2120      	movs	r1, #32
 8002394:	404b      	eors	r3, r1
 8002396:	b29b      	uxth	r3, r3
 8002398:	4913      	ldr	r1, [pc, #76]	@ (80023e8 <USB_EPClearStall+0x90>)
 800239a:	430b      	orrs	r3, r1
 800239c:	b29b      	uxth	r3, r3
 800239e:	8013      	strh	r3, [r2, #0]
 80023a0:	e019      	b.n	80023d6 <USB_EPClearStall+0x7e>
      }
    }
    else
    {
      PCD_CLEAR_RX_DTOG(USBx, ep->num);
 80023a2:	780b      	ldrb	r3, [r1, #0]
 80023a4:	009b      	lsls	r3, r3, #2
 80023a6:	18c3      	adds	r3, r0, r3
 80023a8:	881a      	ldrh	r2, [r3, #0]
 80023aa:	0452      	lsls	r2, r2, #17
 80023ac:	d506      	bpl.n	80023bc <USB_EPClearStall+0x64>
 80023ae:	881c      	ldrh	r4, [r3, #0]
 80023b0:	4a0a      	ldr	r2, [pc, #40]	@ (80023dc <USB_EPClearStall+0x84>)
 80023b2:	4014      	ands	r4, r2
 80023b4:	4a0d      	ldr	r2, [pc, #52]	@ (80023ec <USB_EPClearStall+0x94>)
 80023b6:	4322      	orrs	r2, r4
 80023b8:	b292      	uxth	r2, r2
 80023ba:	801a      	strh	r2, [r3, #0]

      /* Configure VALID status for the Endpoint */
      PCD_SET_EP_RX_STATUS(USBx, ep->num, USB_EP_RX_VALID);
 80023bc:	780b      	ldrb	r3, [r1, #0]
 80023be:	009b      	lsls	r3, r3, #2
 80023c0:	18c0      	adds	r0, r0, r3
 80023c2:	8803      	ldrh	r3, [r0, #0]
 80023c4:	4a0a      	ldr	r2, [pc, #40]	@ (80023f0 <USB_EPClearStall+0x98>)
 80023c6:	4013      	ands	r3, r2
 80023c8:	22c0      	movs	r2, #192	@ 0xc0
 80023ca:	0192      	lsls	r2, r2, #6
 80023cc:	405a      	eors	r2, r3
 80023ce:	4b06      	ldr	r3, [pc, #24]	@ (80023e8 <USB_EPClearStall+0x90>)
 80023d0:	4313      	orrs	r3, r2
 80023d2:	b29b      	uxth	r3, r3
 80023d4:	8003      	strh	r3, [r0, #0]
    }
  }

  return HAL_OK;
}
 80023d6:	2000      	movs	r0, #0
 80023d8:	bd10      	pop	{r4, pc}
 80023da:	46c0      	nop			@ (mov r8, r8)
 80023dc:	ffff8f8f 	.word	0xffff8f8f
 80023e0:	ffff80c0 	.word	0xffff80c0
 80023e4:	ffff8fbf 	.word	0xffff8fbf
 80023e8:	ffff8080 	.word	0xffff8080
 80023ec:	ffffc080 	.word	0xffffc080
 80023f0:	ffffbf8f 	.word	0xffffbf8f

080023f4 <USB_SetDevAddress>:
  *          This parameter can be a value from 0 to 255
  * @retval HAL status
  */
HAL_StatusTypeDef  USB_SetDevAddress(USB_TypeDef *USBx, uint8_t address)
{
  if (address == 0U)
 80023f4:	2900      	cmp	r1, #0
 80023f6:	d102      	bne.n	80023fe <USB_SetDevAddress+0xa>
  {
    /* set device address and enable function */
    USBx->DADDR = (uint16_t)USB_DADDR_EF;
 80023f8:	234c      	movs	r3, #76	@ 0x4c
 80023fa:	2280      	movs	r2, #128	@ 0x80
 80023fc:	52c2      	strh	r2, [r0, r3]
  }

  return HAL_OK;
}
 80023fe:	2000      	movs	r0, #0
 8002400:	4770      	bx	lr
	...

08002404 <USB_DevConnect>:
  * @retval HAL status
  */
HAL_StatusTypeDef  USB_DevConnect(USB_TypeDef *USBx)
{
  /* Enabling DP Pull-UP bit to Connect internal PU resistor on USB DP line */
  USBx->BCDR |= (uint16_t)USB_BCDR_DPPU;
 8002404:	2258      	movs	r2, #88	@ 0x58
 8002406:	5a83      	ldrh	r3, [r0, r2]
 8002408:	4902      	ldr	r1, [pc, #8]	@ (8002414 <USB_DevConnect+0x10>)
 800240a:	430b      	orrs	r3, r1
 800240c:	b29b      	uxth	r3, r3
 800240e:	5283      	strh	r3, [r0, r2]

  return HAL_OK;
}
 8002410:	2000      	movs	r0, #0
 8002412:	4770      	bx	lr
 8002414:	ffff8000 	.word	0xffff8000

08002418 <USB_ReadInterrupts>:
  */
uint32_t USB_ReadInterrupts(USB_TypeDef const *USBx)
{
  uint32_t tmpreg;

  tmpreg = USBx->ISTR;
 8002418:	2344      	movs	r3, #68	@ 0x44
 800241a:	5ac0      	ldrh	r0, [r0, r3]
 800241c:	b280      	uxth	r0, r0
  return tmpreg;
}
 800241e:	4770      	bx	lr

08002420 <USB_WritePMA>:
  * @param   wPMABufAddr address into PMA.
  * @param   wNBytes no. of bytes to be copied.
  * @retval None
  */
void USB_WritePMA(USB_TypeDef const *USBx, uint8_t *pbUsrBuf, uint16_t wPMABufAddr, uint16_t wNBytes)
{
 8002420:	b510      	push	{r4, lr}
  uint32_t n = ((uint32_t)wNBytes + 1U) >> 1;
 8002422:	3301      	adds	r3, #1
 8002424:	085b      	lsrs	r3, r3, #1
  uint32_t count;
  uint16_t WrVal;
  __IO uint16_t *pdwVal;
  uint8_t *pBuf = pbUsrBuf;

  pdwVal = (__IO uint16_t *)(BaseAddr + 0x400U + ((uint32_t)wPMABufAddr * PMA_ACCESS));
 8002426:	1812      	adds	r2, r2, r0
 8002428:	2080      	movs	r0, #128	@ 0x80
 800242a:	00c0      	lsls	r0, r0, #3
 800242c:	4684      	mov	ip, r0
 800242e:	4462      	add	r2, ip

  for (count = n; count != 0U; count--)
 8002430:	e007      	b.n	8002442 <USB_WritePMA+0x22>
  {
    WrVal = pBuf[0];
 8002432:	780c      	ldrb	r4, [r1, #0]
    WrVal |= (uint16_t)pBuf[1] << 8;
 8002434:	7848      	ldrb	r0, [r1, #1]
 8002436:	0200      	lsls	r0, r0, #8
 8002438:	4320      	orrs	r0, r4
    *pdwVal = (WrVal & 0xFFFFU);
 800243a:	8010      	strh	r0, [r2, #0]
    pdwVal++;
 800243c:	3202      	adds	r2, #2
#if PMA_ACCESS > 1U
    pdwVal++;
#endif /* PMA_ACCESS */

    pBuf++;
    pBuf++;
 800243e:	3102      	adds	r1, #2
  for (count = n; count != 0U; count--)
 8002440:	3b01      	subs	r3, #1
 8002442:	2b00      	cmp	r3, #0
 8002444:	d1f5      	bne.n	8002432 <USB_WritePMA+0x12>
  }
}
 8002446:	bd10      	pop	{r4, pc}

08002448 <USB_EPStartXfer>:
{
 8002448:	b570      	push	{r4, r5, r6, lr}
 800244a:	0005      	movs	r5, r0
 800244c:	000c      	movs	r4, r1
  if (ep->is_in == 1U)
 800244e:	784b      	ldrb	r3, [r1, #1]
 8002450:	2b01      	cmp	r3, #1
 8002452:	d02e      	beq.n	80024b2 <USB_EPStartXfer+0x6a>
    if (ep->doublebuffer == 0U)
 8002454:	7b0a      	ldrb	r2, [r1, #12]
 8002456:	2a00      	cmp	r2, #0
 8002458:	d000      	beq.n	800245c <USB_EPStartXfer+0x14>
 800245a:	e26e      	b.n	800293a <USB_EPStartXfer+0x4f2>
      if (ep->xfer_len > ep->maxpacket)
 800245c:	698b      	ldr	r3, [r1, #24]
 800245e:	6909      	ldr	r1, [r1, #16]
 8002460:	428b      	cmp	r3, r1
 8002462:	d800      	bhi.n	8002466 <USB_EPStartXfer+0x1e>
 8002464:	e24c      	b.n	8002900 <USB_EPStartXfer+0x4b8>
        ep->xfer_len -= len;
 8002466:	1a5b      	subs	r3, r3, r1
 8002468:	61a3      	str	r3, [r4, #24]
      PCD_SET_EP_RX_CNT(USBx, ep->num, len);
 800246a:	2350      	movs	r3, #80	@ 0x50
 800246c:	5aea      	ldrh	r2, [r5, r3]
 800246e:	18aa      	adds	r2, r5, r2
 8002470:	7823      	ldrb	r3, [r4, #0]
 8002472:	00db      	lsls	r3, r3, #3
 8002474:	189b      	adds	r3, r3, r2
 8002476:	4ab9      	ldr	r2, [pc, #740]	@ (800275c <USB_EPStartXfer+0x314>)
 8002478:	4694      	mov	ip, r2
 800247a:	4463      	add	r3, ip
 800247c:	881a      	ldrh	r2, [r3, #0]
 800247e:	0592      	lsls	r2, r2, #22
 8002480:	0d92      	lsrs	r2, r2, #22
 8002482:	801a      	strh	r2, [r3, #0]
 8002484:	2900      	cmp	r1, #0
 8002486:	d000      	beq.n	800248a <USB_EPStartXfer+0x42>
 8002488:	e23e      	b.n	8002908 <USB_EPStartXfer+0x4c0>
 800248a:	881a      	ldrh	r2, [r3, #0]
 800248c:	49b4      	ldr	r1, [pc, #720]	@ (8002760 <USB_EPStartXfer+0x318>)
 800248e:	430a      	orrs	r2, r1
 8002490:	b292      	uxth	r2, r2
 8002492:	801a      	strh	r2, [r3, #0]
    PCD_SET_EP_RX_STATUS(USBx, ep->num, USB_EP_RX_VALID);
 8002494:	7823      	ldrb	r3, [r4, #0]
 8002496:	009b      	lsls	r3, r3, #2
 8002498:	18ed      	adds	r5, r5, r3
 800249a:	882b      	ldrh	r3, [r5, #0]
 800249c:	4ab1      	ldr	r2, [pc, #708]	@ (8002764 <USB_EPStartXfer+0x31c>)
 800249e:	4013      	ands	r3, r2
 80024a0:	22c0      	movs	r2, #192	@ 0xc0
 80024a2:	0192      	lsls	r2, r2, #6
 80024a4:	405a      	eors	r2, r3
 80024a6:	4bb0      	ldr	r3, [pc, #704]	@ (8002768 <USB_EPStartXfer+0x320>)
 80024a8:	4313      	orrs	r3, r2
 80024aa:	b29b      	uxth	r3, r3
 80024ac:	802b      	strh	r3, [r5, #0]
  return HAL_OK;
 80024ae:	2000      	movs	r0, #0
}
 80024b0:	bd70      	pop	{r4, r5, r6, pc}
    if (ep->xfer_len > ep->maxpacket)
 80024b2:	698e      	ldr	r6, [r1, #24]
 80024b4:	690a      	ldr	r2, [r1, #16]
 80024b6:	4296      	cmp	r6, r2
 80024b8:	d900      	bls.n	80024bc <USB_EPStartXfer+0x74>
      len = ep->maxpacket;
 80024ba:	0016      	movs	r6, r2
    if (ep->doublebuffer == 0U)
 80024bc:	7b21      	ldrb	r1, [r4, #12]
 80024be:	2900      	cmp	r1, #0
 80024c0:	d024      	beq.n	800250c <USB_EPStartXfer+0xc4>
      if (ep->type == EP_TYPE_BULK)
 80024c2:	78e1      	ldrb	r1, [r4, #3]
 80024c4:	2902      	cmp	r1, #2
 80024c6:	d041      	beq.n	800254c <USB_EPStartXfer+0x104>
        ep->xfer_len_db -= len;
 80024c8:	6a22      	ldr	r2, [r4, #32]
 80024ca:	1b92      	subs	r2, r2, r6
 80024cc:	6222      	str	r2, [r4, #32]
        if ((PCD_GET_ENDPOINT(USBx, ep->num) & USB_EP_DTOG_TX) != 0U)
 80024ce:	7822      	ldrb	r2, [r4, #0]
 80024d0:	0091      	lsls	r1, r2, #2
 80024d2:	1869      	adds	r1, r5, r1
 80024d4:	8809      	ldrh	r1, [r1, #0]
 80024d6:	0649      	lsls	r1, r1, #25
 80024d8:	d400      	bmi.n	80024dc <USB_EPStartXfer+0x94>
 80024da:	e1d1      	b.n	8002880 <USB_EPStartXfer+0x438>
          PCD_SET_EP_DBUF1_CNT(USBx, ep->num, ep->is_in, len);
 80024dc:	2b00      	cmp	r3, #0
 80024de:	d000      	beq.n	80024e2 <USB_EPStartXfer+0x9a>
 80024e0:	e1bd      	b.n	800285e <USB_EPStartXfer+0x416>
 80024e2:	3350      	adds	r3, #80	@ 0x50
 80024e4:	5aeb      	ldrh	r3, [r5, r3]
 80024e6:	18eb      	adds	r3, r5, r3
 80024e8:	00d2      	lsls	r2, r2, #3
 80024ea:	18d2      	adds	r2, r2, r3
 80024ec:	4b9b      	ldr	r3, [pc, #620]	@ (800275c <USB_EPStartXfer+0x314>)
 80024ee:	469c      	mov	ip, r3
 80024f0:	4462      	add	r2, ip
 80024f2:	8813      	ldrh	r3, [r2, #0]
 80024f4:	059b      	lsls	r3, r3, #22
 80024f6:	0d9b      	lsrs	r3, r3, #22
 80024f8:	8013      	strh	r3, [r2, #0]
 80024fa:	2e00      	cmp	r6, #0
 80024fc:	d000      	beq.n	8002500 <USB_EPStartXfer+0xb8>
 80024fe:	e195      	b.n	800282c <USB_EPStartXfer+0x3e4>
 8002500:	8813      	ldrh	r3, [r2, #0]
 8002502:	4997      	ldr	r1, [pc, #604]	@ (8002760 <USB_EPStartXfer+0x318>)
 8002504:	430b      	orrs	r3, r1
 8002506:	b29b      	uxth	r3, r3
 8002508:	8013      	strh	r3, [r2, #0]
 800250a:	e1b2      	b.n	8002872 <USB_EPStartXfer+0x42a>
      USB_WritePMA(USBx, ep->xfer_buff, ep->pmaadress, (uint16_t)len);
 800250c:	b2b6      	uxth	r6, r6
 800250e:	88e2      	ldrh	r2, [r4, #6]
 8002510:	6961      	ldr	r1, [r4, #20]
 8002512:	0033      	movs	r3, r6
 8002514:	0028      	movs	r0, r5
 8002516:	f7ff ff83 	bl	8002420 <USB_WritePMA>
      PCD_SET_EP_TX_CNT(USBx, ep->num, len);
 800251a:	2350      	movs	r3, #80	@ 0x50
 800251c:	5aea      	ldrh	r2, [r5, r3]
 800251e:	18aa      	adds	r2, r5, r2
 8002520:	7823      	ldrb	r3, [r4, #0]
 8002522:	00db      	lsls	r3, r3, #3
 8002524:	189b      	adds	r3, r3, r2
 8002526:	4a91      	ldr	r2, [pc, #580]	@ (800276c <USB_EPStartXfer+0x324>)
 8002528:	4694      	mov	ip, r2
 800252a:	4463      	add	r3, ip
 800252c:	801e      	strh	r6, [r3, #0]
    PCD_SET_EP_TX_STATUS(USBx, ep->num, USB_EP_TX_VALID);
 800252e:	7822      	ldrb	r2, [r4, #0]
 8002530:	0092      	lsls	r2, r2, #2
 8002532:	18aa      	adds	r2, r5, r2
 8002534:	8813      	ldrh	r3, [r2, #0]
 8002536:	498e      	ldr	r1, [pc, #568]	@ (8002770 <USB_EPStartXfer+0x328>)
 8002538:	400b      	ands	r3, r1
 800253a:	2130      	movs	r1, #48	@ 0x30
 800253c:	404b      	eors	r3, r1
 800253e:	b29b      	uxth	r3, r3
 8002540:	4989      	ldr	r1, [pc, #548]	@ (8002768 <USB_EPStartXfer+0x320>)
 8002542:	430b      	orrs	r3, r1
 8002544:	b29b      	uxth	r3, r3
 8002546:	8013      	strh	r3, [r2, #0]
  return HAL_OK;
 8002548:	2000      	movs	r0, #0
 800254a:	e7b1      	b.n	80024b0 <USB_EPStartXfer+0x68>
        if (ep->xfer_len_db > ep->maxpacket)
 800254c:	6a23      	ldr	r3, [r4, #32]
 800254e:	429a      	cmp	r2, r3
 8002550:	d300      	bcc.n	8002554 <USB_EPStartXfer+0x10c>
 8002552:	e150      	b.n	80027f6 <USB_EPStartXfer+0x3ae>
          PCD_SET_BULK_EP_DBUF(USBx, ep->num);
 8002554:	7823      	ldrb	r3, [r4, #0]
 8002556:	009b      	lsls	r3, r3, #2
 8002558:	18eb      	adds	r3, r5, r3
 800255a:	8819      	ldrh	r1, [r3, #0]
 800255c:	4a85      	ldr	r2, [pc, #532]	@ (8002774 <USB_EPStartXfer+0x32c>)
 800255e:	4011      	ands	r1, r2
 8002560:	4a85      	ldr	r2, [pc, #532]	@ (8002778 <USB_EPStartXfer+0x330>)
 8002562:	430a      	orrs	r2, r1
 8002564:	b292      	uxth	r2, r2
 8002566:	801a      	strh	r2, [r3, #0]
          ep->xfer_len_db -= len;
 8002568:	6a23      	ldr	r3, [r4, #32]
 800256a:	1b9b      	subs	r3, r3, r6
 800256c:	6223      	str	r3, [r4, #32]
          if ((PCD_GET_ENDPOINT(USBx, ep->num) & USB_EP_DTOG_TX) != 0U)
 800256e:	7823      	ldrb	r3, [r4, #0]
 8002570:	009a      	lsls	r2, r3, #2
 8002572:	18aa      	adds	r2, r5, r2
 8002574:	8812      	ldrh	r2, [r2, #0]
 8002576:	0652      	lsls	r2, r2, #25
 8002578:	d400      	bmi.n	800257c <USB_EPStartXfer+0x134>
 800257a:	e095      	b.n	80026a8 <USB_EPStartXfer+0x260>
            PCD_SET_EP_DBUF1_CNT(USBx, ep->num, ep->is_in, len);
 800257c:	7862      	ldrb	r2, [r4, #1]
 800257e:	2a00      	cmp	r2, #0
 8002580:	d12c      	bne.n	80025dc <USB_EPStartXfer+0x194>
 8002582:	3250      	adds	r2, #80	@ 0x50
 8002584:	5aaa      	ldrh	r2, [r5, r2]
 8002586:	18aa      	adds	r2, r5, r2
 8002588:	00db      	lsls	r3, r3, #3
 800258a:	189b      	adds	r3, r3, r2
 800258c:	4a73      	ldr	r2, [pc, #460]	@ (800275c <USB_EPStartXfer+0x314>)
 800258e:	4694      	mov	ip, r2
 8002590:	4463      	add	r3, ip
 8002592:	881a      	ldrh	r2, [r3, #0]
 8002594:	0592      	lsls	r2, r2, #22
 8002596:	0d92      	lsrs	r2, r2, #22
 8002598:	801a      	strh	r2, [r3, #0]
 800259a:	2e00      	cmp	r6, #0
 800259c:	d105      	bne.n	80025aa <USB_EPStartXfer+0x162>
 800259e:	881a      	ldrh	r2, [r3, #0]
 80025a0:	496f      	ldr	r1, [pc, #444]	@ (8002760 <USB_EPStartXfer+0x318>)
 80025a2:	430a      	orrs	r2, r1
 80025a4:	b292      	uxth	r2, r2
 80025a6:	801a      	strh	r2, [r3, #0]
 80025a8:	e01a      	b.n	80025e0 <USB_EPStartXfer+0x198>
 80025aa:	2e3e      	cmp	r6, #62	@ 0x3e
 80025ac:	d809      	bhi.n	80025c2 <USB_EPStartXfer+0x17a>
 80025ae:	0872      	lsrs	r2, r6, #1
 80025b0:	07f1      	lsls	r1, r6, #31
 80025b2:	d500      	bpl.n	80025b6 <USB_EPStartXfer+0x16e>
 80025b4:	3201      	adds	r2, #1
 80025b6:	8819      	ldrh	r1, [r3, #0]
 80025b8:	0292      	lsls	r2, r2, #10
 80025ba:	b292      	uxth	r2, r2
 80025bc:	430a      	orrs	r2, r1
 80025be:	801a      	strh	r2, [r3, #0]
 80025c0:	e00e      	b.n	80025e0 <USB_EPStartXfer+0x198>
 80025c2:	0972      	lsrs	r2, r6, #5
 80025c4:	06f1      	lsls	r1, r6, #27
 80025c6:	d100      	bne.n	80025ca <USB_EPStartXfer+0x182>
 80025c8:	3a01      	subs	r2, #1
 80025ca:	8819      	ldrh	r1, [r3, #0]
 80025cc:	0292      	lsls	r2, r2, #10
 80025ce:	b292      	uxth	r2, r2
 80025d0:	4311      	orrs	r1, r2
 80025d2:	4a63      	ldr	r2, [pc, #396]	@ (8002760 <USB_EPStartXfer+0x318>)
 80025d4:	430a      	orrs	r2, r1
 80025d6:	b292      	uxth	r2, r2
 80025d8:	801a      	strh	r2, [r3, #0]
 80025da:	e001      	b.n	80025e0 <USB_EPStartXfer+0x198>
 80025dc:	2a01      	cmp	r2, #1
 80025de:	d026      	beq.n	800262e <USB_EPStartXfer+0x1e6>
            pmabuffer = ep->pmaaddr1;
 80025e0:	8962      	ldrh	r2, [r4, #10]
            USB_WritePMA(USBx, ep->xfer_buff, pmabuffer, (uint16_t)len);
 80025e2:	b2b3      	uxth	r3, r6
 80025e4:	6961      	ldr	r1, [r4, #20]
 80025e6:	0028      	movs	r0, r5
 80025e8:	f7ff ff1a 	bl	8002420 <USB_WritePMA>
            ep->xfer_buff += len;
 80025ec:	6963      	ldr	r3, [r4, #20]
 80025ee:	199b      	adds	r3, r3, r6
 80025f0:	6163      	str	r3, [r4, #20]
            if (ep->xfer_len_db > ep->maxpacket)
 80025f2:	6a23      	ldr	r3, [r4, #32]
 80025f4:	6922      	ldr	r2, [r4, #16]
 80025f6:	4293      	cmp	r3, r2
 80025f8:	d924      	bls.n	8002644 <USB_EPStartXfer+0x1fc>
              ep->xfer_len_db -= len;
 80025fa:	1b9b      	subs	r3, r3, r6
 80025fc:	6223      	str	r3, [r4, #32]
            PCD_SET_EP_DBUF0_CNT(USBx, ep->num, ep->is_in, len);
 80025fe:	7863      	ldrb	r3, [r4, #1]
 8002600:	2b00      	cmp	r3, #0
 8002602:	d13c      	bne.n	800267e <USB_EPStartXfer+0x236>
 8002604:	3350      	adds	r3, #80	@ 0x50
 8002606:	5aea      	ldrh	r2, [r5, r3]
 8002608:	18aa      	adds	r2, r5, r2
 800260a:	7823      	ldrb	r3, [r4, #0]
 800260c:	00db      	lsls	r3, r3, #3
 800260e:	189b      	adds	r3, r3, r2
 8002610:	4a56      	ldr	r2, [pc, #344]	@ (800276c <USB_EPStartXfer+0x324>)
 8002612:	4694      	mov	ip, r2
 8002614:	4463      	add	r3, ip
 8002616:	881a      	ldrh	r2, [r3, #0]
 8002618:	0592      	lsls	r2, r2, #22
 800261a:	0d92      	lsrs	r2, r2, #22
 800261c:	801a      	strh	r2, [r3, #0]
 800261e:	2e00      	cmp	r6, #0
 8002620:	d114      	bne.n	800264c <USB_EPStartXfer+0x204>
 8002622:	881a      	ldrh	r2, [r3, #0]
 8002624:	494e      	ldr	r1, [pc, #312]	@ (8002760 <USB_EPStartXfer+0x318>)
 8002626:	430a      	orrs	r2, r1
 8002628:	b292      	uxth	r2, r2
 800262a:	801a      	strh	r2, [r3, #0]
 800262c:	e029      	b.n	8002682 <USB_EPStartXfer+0x23a>
            PCD_SET_EP_DBUF1_CNT(USBx, ep->num, ep->is_in, len);
 800262e:	324f      	adds	r2, #79	@ 0x4f
 8002630:	5aaa      	ldrh	r2, [r5, r2]
 8002632:	18aa      	adds	r2, r5, r2
 8002634:	00db      	lsls	r3, r3, #3
 8002636:	189b      	adds	r3, r3, r2
 8002638:	4a48      	ldr	r2, [pc, #288]	@ (800275c <USB_EPStartXfer+0x314>)
 800263a:	4694      	mov	ip, r2
 800263c:	4463      	add	r3, ip
 800263e:	b2b2      	uxth	r2, r6
 8002640:	801a      	strh	r2, [r3, #0]
 8002642:	e7cd      	b.n	80025e0 <USB_EPStartXfer+0x198>
              ep->xfer_len_db = 0U;
 8002644:	2200      	movs	r2, #0
 8002646:	6222      	str	r2, [r4, #32]
              len = ep->xfer_len_db;
 8002648:	001e      	movs	r6, r3
 800264a:	e7d8      	b.n	80025fe <USB_EPStartXfer+0x1b6>
            PCD_SET_EP_DBUF0_CNT(USBx, ep->num, ep->is_in, len);
 800264c:	2e3e      	cmp	r6, #62	@ 0x3e
 800264e:	d809      	bhi.n	8002664 <USB_EPStartXfer+0x21c>
 8002650:	0872      	lsrs	r2, r6, #1
 8002652:	07f1      	lsls	r1, r6, #31
 8002654:	d500      	bpl.n	8002658 <USB_EPStartXfer+0x210>
 8002656:	3201      	adds	r2, #1
 8002658:	8819      	ldrh	r1, [r3, #0]
 800265a:	0292      	lsls	r2, r2, #10
 800265c:	b292      	uxth	r2, r2
 800265e:	430a      	orrs	r2, r1
 8002660:	801a      	strh	r2, [r3, #0]
 8002662:	e00e      	b.n	8002682 <USB_EPStartXfer+0x23a>
 8002664:	0972      	lsrs	r2, r6, #5
 8002666:	06f1      	lsls	r1, r6, #27
 8002668:	d100      	bne.n	800266c <USB_EPStartXfer+0x224>
 800266a:	3a01      	subs	r2, #1
 800266c:	8819      	ldrh	r1, [r3, #0]
 800266e:	0292      	lsls	r2, r2, #10
 8002670:	b292      	uxth	r2, r2
 8002672:	4311      	orrs	r1, r2
 8002674:	4a3a      	ldr	r2, [pc, #232]	@ (8002760 <USB_EPStartXfer+0x318>)
 8002676:	430a      	orrs	r2, r1
 8002678:	b292      	uxth	r2, r2
 800267a:	801a      	strh	r2, [r3, #0]
 800267c:	e001      	b.n	8002682 <USB_EPStartXfer+0x23a>
 800267e:	2b01      	cmp	r3, #1
 8002680:	d006      	beq.n	8002690 <USB_EPStartXfer+0x248>
            pmabuffer = ep->pmaaddr0;
 8002682:	8922      	ldrh	r2, [r4, #8]
            USB_WritePMA(USBx, ep->xfer_buff, pmabuffer, (uint16_t)len);
 8002684:	b2b3      	uxth	r3, r6
 8002686:	6961      	ldr	r1, [r4, #20]
 8002688:	0028      	movs	r0, r5
 800268a:	f7ff fec9 	bl	8002420 <USB_WritePMA>
 800268e:	e74e      	b.n	800252e <USB_EPStartXfer+0xe6>
            PCD_SET_EP_DBUF0_CNT(USBx, ep->num, ep->is_in, len);
 8002690:	334f      	adds	r3, #79	@ 0x4f
 8002692:	5aea      	ldrh	r2, [r5, r3]
 8002694:	18aa      	adds	r2, r5, r2
 8002696:	7823      	ldrb	r3, [r4, #0]
 8002698:	00db      	lsls	r3, r3, #3
 800269a:	189b      	adds	r3, r3, r2
 800269c:	4a33      	ldr	r2, [pc, #204]	@ (800276c <USB_EPStartXfer+0x324>)
 800269e:	4694      	mov	ip, r2
 80026a0:	4463      	add	r3, ip
 80026a2:	b2b2      	uxth	r2, r6
 80026a4:	801a      	strh	r2, [r3, #0]
 80026a6:	e7ec      	b.n	8002682 <USB_EPStartXfer+0x23a>
            PCD_SET_EP_DBUF0_CNT(USBx, ep->num, ep->is_in, len);
 80026a8:	7862      	ldrb	r2, [r4, #1]
 80026aa:	2a00      	cmp	r2, #0
 80026ac:	d12c      	bne.n	8002708 <USB_EPStartXfer+0x2c0>
 80026ae:	3250      	adds	r2, #80	@ 0x50
 80026b0:	5aa9      	ldrh	r1, [r5, r2]
 80026b2:	1869      	adds	r1, r5, r1
 80026b4:	00da      	lsls	r2, r3, #3
 80026b6:	1852      	adds	r2, r2, r1
 80026b8:	4b2c      	ldr	r3, [pc, #176]	@ (800276c <USB_EPStartXfer+0x324>)
 80026ba:	469c      	mov	ip, r3
 80026bc:	4462      	add	r2, ip
 80026be:	8813      	ldrh	r3, [r2, #0]
 80026c0:	059b      	lsls	r3, r3, #22
 80026c2:	0d9b      	lsrs	r3, r3, #22
 80026c4:	8013      	strh	r3, [r2, #0]
 80026c6:	2e00      	cmp	r6, #0
 80026c8:	d105      	bne.n	80026d6 <USB_EPStartXfer+0x28e>
 80026ca:	8813      	ldrh	r3, [r2, #0]
 80026cc:	4924      	ldr	r1, [pc, #144]	@ (8002760 <USB_EPStartXfer+0x318>)
 80026ce:	430b      	orrs	r3, r1
 80026d0:	b29b      	uxth	r3, r3
 80026d2:	8013      	strh	r3, [r2, #0]
 80026d4:	e01a      	b.n	800270c <USB_EPStartXfer+0x2c4>
 80026d6:	2e3e      	cmp	r6, #62	@ 0x3e
 80026d8:	d809      	bhi.n	80026ee <USB_EPStartXfer+0x2a6>
 80026da:	0873      	lsrs	r3, r6, #1
 80026dc:	07f1      	lsls	r1, r6, #31
 80026de:	d500      	bpl.n	80026e2 <USB_EPStartXfer+0x29a>
 80026e0:	3301      	adds	r3, #1
 80026e2:	8811      	ldrh	r1, [r2, #0]
 80026e4:	029b      	lsls	r3, r3, #10
 80026e6:	b29b      	uxth	r3, r3
 80026e8:	430b      	orrs	r3, r1
 80026ea:	8013      	strh	r3, [r2, #0]
 80026ec:	e00e      	b.n	800270c <USB_EPStartXfer+0x2c4>
 80026ee:	0973      	lsrs	r3, r6, #5
 80026f0:	06f1      	lsls	r1, r6, #27
 80026f2:	d100      	bne.n	80026f6 <USB_EPStartXfer+0x2ae>
 80026f4:	3b01      	subs	r3, #1
 80026f6:	8811      	ldrh	r1, [r2, #0]
 80026f8:	029b      	lsls	r3, r3, #10
 80026fa:	b29b      	uxth	r3, r3
 80026fc:	4319      	orrs	r1, r3
 80026fe:	4b18      	ldr	r3, [pc, #96]	@ (8002760 <USB_EPStartXfer+0x318>)
 8002700:	430b      	orrs	r3, r1
 8002702:	b29b      	uxth	r3, r3
 8002704:	8013      	strh	r3, [r2, #0]
 8002706:	e001      	b.n	800270c <USB_EPStartXfer+0x2c4>
 8002708:	2a01      	cmp	r2, #1
 800270a:	d037      	beq.n	800277c <USB_EPStartXfer+0x334>
            pmabuffer = ep->pmaaddr0;
 800270c:	8922      	ldrh	r2, [r4, #8]
            USB_WritePMA(USBx, ep->xfer_buff, pmabuffer, (uint16_t)len);
 800270e:	b2b3      	uxth	r3, r6
 8002710:	6961      	ldr	r1, [r4, #20]
 8002712:	0028      	movs	r0, r5
 8002714:	f7ff fe84 	bl	8002420 <USB_WritePMA>
            ep->xfer_buff += len;
 8002718:	6963      	ldr	r3, [r4, #20]
 800271a:	199b      	adds	r3, r3, r6
 800271c:	6163      	str	r3, [r4, #20]
            if (ep->xfer_len_db > ep->maxpacket)
 800271e:	6a23      	ldr	r3, [r4, #32]
 8002720:	6922      	ldr	r2, [r4, #16]
 8002722:	4293      	cmp	r3, r2
 8002724:	d935      	bls.n	8002792 <USB_EPStartXfer+0x34a>
              ep->xfer_len_db -= len;
 8002726:	1b9b      	subs	r3, r3, r6
 8002728:	6223      	str	r3, [r4, #32]
            PCD_SET_EP_DBUF1_CNT(USBx, ep->num, ep->is_in, len);
 800272a:	7863      	ldrb	r3, [r4, #1]
 800272c:	2b00      	cmp	r3, #0
 800272e:	d14d      	bne.n	80027cc <USB_EPStartXfer+0x384>
 8002730:	3350      	adds	r3, #80	@ 0x50
 8002732:	5aea      	ldrh	r2, [r5, r3]
 8002734:	18aa      	adds	r2, r5, r2
 8002736:	7823      	ldrb	r3, [r4, #0]
 8002738:	00db      	lsls	r3, r3, #3
 800273a:	189b      	adds	r3, r3, r2
 800273c:	4a07      	ldr	r2, [pc, #28]	@ (800275c <USB_EPStartXfer+0x314>)
 800273e:	4694      	mov	ip, r2
 8002740:	4463      	add	r3, ip
 8002742:	881a      	ldrh	r2, [r3, #0]
 8002744:	0592      	lsls	r2, r2, #22
 8002746:	0d92      	lsrs	r2, r2, #22
 8002748:	801a      	strh	r2, [r3, #0]
 800274a:	2e00      	cmp	r6, #0
 800274c:	d125      	bne.n	800279a <USB_EPStartXfer+0x352>
 800274e:	881a      	ldrh	r2, [r3, #0]
 8002750:	4903      	ldr	r1, [pc, #12]	@ (8002760 <USB_EPStartXfer+0x318>)
 8002752:	430a      	orrs	r2, r1
 8002754:	b292      	uxth	r2, r2
 8002756:	801a      	strh	r2, [r3, #0]
 8002758:	e03a      	b.n	80027d0 <USB_EPStartXfer+0x388>
 800275a:	46c0      	nop			@ (mov r8, r8)
 800275c:	00000406 	.word	0x00000406
 8002760:	ffff8000 	.word	0xffff8000
 8002764:	ffffbf8f 	.word	0xffffbf8f
 8002768:	ffff8080 	.word	0xffff8080
 800276c:	00000402 	.word	0x00000402
 8002770:	ffff8fbf 	.word	0xffff8fbf
 8002774:	ffff8f8f 	.word	0xffff8f8f
 8002778:	ffff8180 	.word	0xffff8180
            PCD_SET_EP_DBUF0_CNT(USBx, ep->num, ep->is_in, len);
 800277c:	324f      	adds	r2, #79	@ 0x4f
 800277e:	5aaa      	ldrh	r2, [r5, r2]
 8002780:	18aa      	adds	r2, r5, r2
 8002782:	00db      	lsls	r3, r3, #3
 8002784:	189b      	adds	r3, r3, r2
 8002786:	4abd      	ldr	r2, [pc, #756]	@ (8002a7c <USB_EPStartXfer+0x634>)
 8002788:	4694      	mov	ip, r2
 800278a:	4463      	add	r3, ip
 800278c:	b2b2      	uxth	r2, r6
 800278e:	801a      	strh	r2, [r3, #0]
 8002790:	e7bc      	b.n	800270c <USB_EPStartXfer+0x2c4>
              ep->xfer_len_db = 0U;
 8002792:	2200      	movs	r2, #0
 8002794:	6222      	str	r2, [r4, #32]
              len = ep->xfer_len_db;
 8002796:	001e      	movs	r6, r3
 8002798:	e7c7      	b.n	800272a <USB_EPStartXfer+0x2e2>
            PCD_SET_EP_DBUF1_CNT(USBx, ep->num, ep->is_in, len);
 800279a:	2e3e      	cmp	r6, #62	@ 0x3e
 800279c:	d809      	bhi.n	80027b2 <USB_EPStartXfer+0x36a>
 800279e:	0872      	lsrs	r2, r6, #1
 80027a0:	07f1      	lsls	r1, r6, #31
 80027a2:	d500      	bpl.n	80027a6 <USB_EPStartXfer+0x35e>
 80027a4:	3201      	adds	r2, #1
 80027a6:	8819      	ldrh	r1, [r3, #0]
 80027a8:	0292      	lsls	r2, r2, #10
 80027aa:	b292      	uxth	r2, r2
 80027ac:	430a      	orrs	r2, r1
 80027ae:	801a      	strh	r2, [r3, #0]
 80027b0:	e00e      	b.n	80027d0 <USB_EPStartXfer+0x388>
 80027b2:	0972      	lsrs	r2, r6, #5
 80027b4:	06f1      	lsls	r1, r6, #27
 80027b6:	d100      	bne.n	80027ba <USB_EPStartXfer+0x372>
 80027b8:	3a01      	subs	r2, #1
 80027ba:	8819      	ldrh	r1, [r3, #0]
 80027bc:	0292      	lsls	r2, r2, #10
 80027be:	b292      	uxth	r2, r2
 80027c0:	4311      	orrs	r1, r2
 80027c2:	4aaf      	ldr	r2, [pc, #700]	@ (8002a80 <USB_EPStartXfer+0x638>)
 80027c4:	430a      	orrs	r2, r1
 80027c6:	b292      	uxth	r2, r2
 80027c8:	801a      	strh	r2, [r3, #0]
 80027ca:	e001      	b.n	80027d0 <USB_EPStartXfer+0x388>
 80027cc:	2b01      	cmp	r3, #1
 80027ce:	d006      	beq.n	80027de <USB_EPStartXfer+0x396>
            pmabuffer = ep->pmaaddr1;
 80027d0:	8962      	ldrh	r2, [r4, #10]
            USB_WritePMA(USBx, ep->xfer_buff, pmabuffer, (uint16_t)len);
 80027d2:	b2b3      	uxth	r3, r6
 80027d4:	6961      	ldr	r1, [r4, #20]
 80027d6:	0028      	movs	r0, r5
 80027d8:	f7ff fe22 	bl	8002420 <USB_WritePMA>
 80027dc:	e6a7      	b.n	800252e <USB_EPStartXfer+0xe6>
            PCD_SET_EP_DBUF1_CNT(USBx, ep->num, ep->is_in, len);
 80027de:	334f      	adds	r3, #79	@ 0x4f
 80027e0:	5aea      	ldrh	r2, [r5, r3]
 80027e2:	18aa      	adds	r2, r5, r2
 80027e4:	7823      	ldrb	r3, [r4, #0]
 80027e6:	00db      	lsls	r3, r3, #3
 80027e8:	189b      	adds	r3, r3, r2
 80027ea:	4aa6      	ldr	r2, [pc, #664]	@ (8002a84 <USB_EPStartXfer+0x63c>)
 80027ec:	4694      	mov	ip, r2
 80027ee:	4463      	add	r3, ip
 80027f0:	b2b2      	uxth	r2, r6
 80027f2:	801a      	strh	r2, [r3, #0]
 80027f4:	e7ec      	b.n	80027d0 <USB_EPStartXfer+0x388>
          PCD_CLEAR_BULK_EP_DBUF(USBx, ep->num);
 80027f6:	7822      	ldrb	r2, [r4, #0]
 80027f8:	0092      	lsls	r2, r2, #2
 80027fa:	18aa      	adds	r2, r5, r2
 80027fc:	8810      	ldrh	r0, [r2, #0]
 80027fe:	49a2      	ldr	r1, [pc, #648]	@ (8002a88 <USB_EPStartXfer+0x640>)
 8002800:	4008      	ands	r0, r1
 8002802:	49a2      	ldr	r1, [pc, #648]	@ (8002a8c <USB_EPStartXfer+0x644>)
 8002804:	4301      	orrs	r1, r0
 8002806:	b289      	uxth	r1, r1
 8002808:	8011      	strh	r1, [r2, #0]
          PCD_SET_EP_TX_CNT(USBx, ep->num, len);
 800280a:	2250      	movs	r2, #80	@ 0x50
 800280c:	5aa9      	ldrh	r1, [r5, r2]
 800280e:	1869      	adds	r1, r5, r1
 8002810:	7822      	ldrb	r2, [r4, #0]
 8002812:	00d2      	lsls	r2, r2, #3
 8002814:	1852      	adds	r2, r2, r1
 8002816:	4999      	ldr	r1, [pc, #612]	@ (8002a7c <USB_EPStartXfer+0x634>)
 8002818:	468c      	mov	ip, r1
 800281a:	4462      	add	r2, ip
 800281c:	b29b      	uxth	r3, r3
 800281e:	8013      	strh	r3, [r2, #0]
          pmabuffer = ep->pmaaddr0;
 8002820:	8922      	ldrh	r2, [r4, #8]
          USB_WritePMA(USBx, ep->xfer_buff, pmabuffer, (uint16_t)len);
 8002822:	6961      	ldr	r1, [r4, #20]
 8002824:	0028      	movs	r0, r5
 8002826:	f7ff fdfb 	bl	8002420 <USB_WritePMA>
 800282a:	e680      	b.n	800252e <USB_EPStartXfer+0xe6>
          PCD_SET_EP_DBUF1_CNT(USBx, ep->num, ep->is_in, len);
 800282c:	2e3e      	cmp	r6, #62	@ 0x3e
 800282e:	d809      	bhi.n	8002844 <USB_EPStartXfer+0x3fc>
 8002830:	0873      	lsrs	r3, r6, #1
 8002832:	07f1      	lsls	r1, r6, #31
 8002834:	d500      	bpl.n	8002838 <USB_EPStartXfer+0x3f0>
 8002836:	3301      	adds	r3, #1
 8002838:	8811      	ldrh	r1, [r2, #0]
 800283a:	029b      	lsls	r3, r3, #10
 800283c:	b29b      	uxth	r3, r3
 800283e:	430b      	orrs	r3, r1
 8002840:	8013      	strh	r3, [r2, #0]
 8002842:	e016      	b.n	8002872 <USB_EPStartXfer+0x42a>
 8002844:	0973      	lsrs	r3, r6, #5
 8002846:	06f1      	lsls	r1, r6, #27
 8002848:	d100      	bne.n	800284c <USB_EPStartXfer+0x404>
 800284a:	3b01      	subs	r3, #1
 800284c:	8811      	ldrh	r1, [r2, #0]
 800284e:	029b      	lsls	r3, r3, #10
 8002850:	b29b      	uxth	r3, r3
 8002852:	4319      	orrs	r1, r3
 8002854:	4b8a      	ldr	r3, [pc, #552]	@ (8002a80 <USB_EPStartXfer+0x638>)
 8002856:	430b      	orrs	r3, r1
 8002858:	b29b      	uxth	r3, r3
 800285a:	8013      	strh	r3, [r2, #0]
 800285c:	e009      	b.n	8002872 <USB_EPStartXfer+0x42a>
 800285e:	2350      	movs	r3, #80	@ 0x50
 8002860:	5aeb      	ldrh	r3, [r5, r3]
 8002862:	18eb      	adds	r3, r5, r3
 8002864:	00d2      	lsls	r2, r2, #3
 8002866:	18d2      	adds	r2, r2, r3
 8002868:	4b86      	ldr	r3, [pc, #536]	@ (8002a84 <USB_EPStartXfer+0x63c>)
 800286a:	469c      	mov	ip, r3
 800286c:	4462      	add	r2, ip
 800286e:	b2b3      	uxth	r3, r6
 8002870:	8013      	strh	r3, [r2, #0]
          pmabuffer = ep->pmaaddr1;
 8002872:	8962      	ldrh	r2, [r4, #10]
          USB_WritePMA(USBx, ep->xfer_buff, pmabuffer, (uint16_t)len);
 8002874:	b2b3      	uxth	r3, r6
 8002876:	6961      	ldr	r1, [r4, #20]
 8002878:	0028      	movs	r0, r5
 800287a:	f7ff fdd1 	bl	8002420 <USB_WritePMA>
 800287e:	e656      	b.n	800252e <USB_EPStartXfer+0xe6>
          PCD_SET_EP_DBUF0_CNT(USBx, ep->num, ep->is_in, len);
 8002880:	2b00      	cmp	r3, #0
 8002882:	d12c      	bne.n	80028de <USB_EPStartXfer+0x496>
 8002884:	3350      	adds	r3, #80	@ 0x50
 8002886:	5aeb      	ldrh	r3, [r5, r3]
 8002888:	18eb      	adds	r3, r5, r3
 800288a:	00d2      	lsls	r2, r2, #3
 800288c:	18d2      	adds	r2, r2, r3
 800288e:	4b7b      	ldr	r3, [pc, #492]	@ (8002a7c <USB_EPStartXfer+0x634>)
 8002890:	469c      	mov	ip, r3
 8002892:	4462      	add	r2, ip
 8002894:	8813      	ldrh	r3, [r2, #0]
 8002896:	059b      	lsls	r3, r3, #22
 8002898:	0d9b      	lsrs	r3, r3, #22
 800289a:	8013      	strh	r3, [r2, #0]
 800289c:	2e00      	cmp	r6, #0
 800289e:	d105      	bne.n	80028ac <USB_EPStartXfer+0x464>
 80028a0:	8813      	ldrh	r3, [r2, #0]
 80028a2:	4977      	ldr	r1, [pc, #476]	@ (8002a80 <USB_EPStartXfer+0x638>)
 80028a4:	430b      	orrs	r3, r1
 80028a6:	b29b      	uxth	r3, r3
 80028a8:	8013      	strh	r3, [r2, #0]
 80028aa:	e022      	b.n	80028f2 <USB_EPStartXfer+0x4aa>
 80028ac:	2e3e      	cmp	r6, #62	@ 0x3e
 80028ae:	d809      	bhi.n	80028c4 <USB_EPStartXfer+0x47c>
 80028b0:	0873      	lsrs	r3, r6, #1
 80028b2:	07f1      	lsls	r1, r6, #31
 80028b4:	d500      	bpl.n	80028b8 <USB_EPStartXfer+0x470>
 80028b6:	3301      	adds	r3, #1
 80028b8:	8811      	ldrh	r1, [r2, #0]
 80028ba:	029b      	lsls	r3, r3, #10
 80028bc:	b29b      	uxth	r3, r3
 80028be:	430b      	orrs	r3, r1
 80028c0:	8013      	strh	r3, [r2, #0]
 80028c2:	e016      	b.n	80028f2 <USB_EPStartXfer+0x4aa>
 80028c4:	0973      	lsrs	r3, r6, #5
 80028c6:	06f1      	lsls	r1, r6, #27
 80028c8:	d100      	bne.n	80028cc <USB_EPStartXfer+0x484>
 80028ca:	3b01      	subs	r3, #1
 80028cc:	8811      	ldrh	r1, [r2, #0]
 80028ce:	029b      	lsls	r3, r3, #10
 80028d0:	b29b      	uxth	r3, r3
 80028d2:	4319      	orrs	r1, r3
 80028d4:	4b6a      	ldr	r3, [pc, #424]	@ (8002a80 <USB_EPStartXfer+0x638>)
 80028d6:	430b      	orrs	r3, r1
 80028d8:	b29b      	uxth	r3, r3
 80028da:	8013      	strh	r3, [r2, #0]
 80028dc:	e009      	b.n	80028f2 <USB_EPStartXfer+0x4aa>
 80028de:	2350      	movs	r3, #80	@ 0x50
 80028e0:	5aeb      	ldrh	r3, [r5, r3]
 80028e2:	18eb      	adds	r3, r5, r3
 80028e4:	00d2      	lsls	r2, r2, #3
 80028e6:	18d2      	adds	r2, r2, r3
 80028e8:	4b64      	ldr	r3, [pc, #400]	@ (8002a7c <USB_EPStartXfer+0x634>)
 80028ea:	469c      	mov	ip, r3
 80028ec:	4462      	add	r2, ip
 80028ee:	b2b3      	uxth	r3, r6
 80028f0:	8013      	strh	r3, [r2, #0]
          pmabuffer = ep->pmaaddr0;
 80028f2:	8922      	ldrh	r2, [r4, #8]
          USB_WritePMA(USBx, ep->xfer_buff, pmabuffer, (uint16_t)len);
 80028f4:	b2b3      	uxth	r3, r6
 80028f6:	6961      	ldr	r1, [r4, #20]
 80028f8:	0028      	movs	r0, r5
 80028fa:	f7ff fd91 	bl	8002420 <USB_WritePMA>
 80028fe:	e616      	b.n	800252e <USB_EPStartXfer+0xe6>
        ep->xfer_len = 0U;
 8002900:	2200      	movs	r2, #0
 8002902:	61a2      	str	r2, [r4, #24]
        len = ep->xfer_len;
 8002904:	0019      	movs	r1, r3
 8002906:	e5b0      	b.n	800246a <USB_EPStartXfer+0x22>
      PCD_SET_EP_RX_CNT(USBx, ep->num, len);
 8002908:	293e      	cmp	r1, #62	@ 0x3e
 800290a:	d809      	bhi.n	8002920 <USB_EPStartXfer+0x4d8>
 800290c:	084a      	lsrs	r2, r1, #1
 800290e:	07c9      	lsls	r1, r1, #31
 8002910:	d500      	bpl.n	8002914 <USB_EPStartXfer+0x4cc>
 8002912:	3201      	adds	r2, #1
 8002914:	8819      	ldrh	r1, [r3, #0]
 8002916:	0292      	lsls	r2, r2, #10
 8002918:	b292      	uxth	r2, r2
 800291a:	430a      	orrs	r2, r1
 800291c:	801a      	strh	r2, [r3, #0]
 800291e:	e5b9      	b.n	8002494 <USB_EPStartXfer+0x4c>
 8002920:	094a      	lsrs	r2, r1, #5
 8002922:	06c9      	lsls	r1, r1, #27
 8002924:	d100      	bne.n	8002928 <USB_EPStartXfer+0x4e0>
 8002926:	3a01      	subs	r2, #1
 8002928:	8819      	ldrh	r1, [r3, #0]
 800292a:	0292      	lsls	r2, r2, #10
 800292c:	b292      	uxth	r2, r2
 800292e:	4311      	orrs	r1, r2
 8002930:	4a53      	ldr	r2, [pc, #332]	@ (8002a80 <USB_EPStartXfer+0x638>)
 8002932:	430a      	orrs	r2, r1
 8002934:	b292      	uxth	r2, r2
 8002936:	801a      	strh	r2, [r3, #0]
 8002938:	e5ac      	b.n	8002494 <USB_EPStartXfer+0x4c>
      if (ep->type == EP_TYPE_BULK)
 800293a:	78ca      	ldrb	r2, [r1, #3]
 800293c:	2a02      	cmp	r2, #2
 800293e:	d03a      	beq.n	80029b6 <USB_EPStartXfer+0x56e>
      else if (ep->type == EP_TYPE_ISOC)
 8002940:	2a01      	cmp	r2, #1
 8002942:	d000      	beq.n	8002946 <USB_EPStartXfer+0x4fe>
 8002944:	e10e      	b.n	8002b64 <USB_EPStartXfer+0x71c>
        if (ep->xfer_len > ep->maxpacket)
 8002946:	6989      	ldr	r1, [r1, #24]
 8002948:	6922      	ldr	r2, [r4, #16]
 800294a:	4291      	cmp	r1, r2
 800294c:	d800      	bhi.n	8002950 <USB_EPStartXfer+0x508>
 800294e:	e0c4      	b.n	8002ada <USB_EPStartXfer+0x692>
          ep->xfer_len -= len;
 8002950:	1a89      	subs	r1, r1, r2
 8002952:	61a1      	str	r1, [r4, #24]
        PCD_SET_EP_DBUF_CNT(USBx, ep->num, ep->is_in, len);
 8002954:	2b00      	cmp	r3, #0
 8002956:	d114      	bne.n	8002982 <USB_EPStartXfer+0x53a>
 8002958:	3350      	adds	r3, #80	@ 0x50
 800295a:	5ae9      	ldrh	r1, [r5, r3]
 800295c:	1869      	adds	r1, r5, r1
 800295e:	7823      	ldrb	r3, [r4, #0]
 8002960:	00db      	lsls	r3, r3, #3
 8002962:	185b      	adds	r3, r3, r1
 8002964:	4945      	ldr	r1, [pc, #276]	@ (8002a7c <USB_EPStartXfer+0x634>)
 8002966:	468c      	mov	ip, r1
 8002968:	4463      	add	r3, ip
 800296a:	8819      	ldrh	r1, [r3, #0]
 800296c:	0589      	lsls	r1, r1, #22
 800296e:	0d89      	lsrs	r1, r1, #22
 8002970:	8019      	strh	r1, [r3, #0]
 8002972:	2a00      	cmp	r2, #0
 8002974:	d000      	beq.n	8002978 <USB_EPStartXfer+0x530>
 8002976:	e0b4      	b.n	8002ae2 <USB_EPStartXfer+0x69a>
 8002978:	8819      	ldrh	r1, [r3, #0]
 800297a:	4841      	ldr	r0, [pc, #260]	@ (8002a80 <USB_EPStartXfer+0x638>)
 800297c:	4301      	orrs	r1, r0
 800297e:	b289      	uxth	r1, r1
 8002980:	8019      	strh	r1, [r3, #0]
 8002982:	7863      	ldrb	r3, [r4, #1]
 8002984:	2b00      	cmp	r3, #0
 8002986:	d000      	beq.n	800298a <USB_EPStartXfer+0x542>
 8002988:	e0dd      	b.n	8002b46 <USB_EPStartXfer+0x6fe>
 800298a:	3350      	adds	r3, #80	@ 0x50
 800298c:	5ae9      	ldrh	r1, [r5, r3]
 800298e:	1869      	adds	r1, r5, r1
 8002990:	7823      	ldrb	r3, [r4, #0]
 8002992:	00db      	lsls	r3, r3, #3
 8002994:	185b      	adds	r3, r3, r1
 8002996:	493b      	ldr	r1, [pc, #236]	@ (8002a84 <USB_EPStartXfer+0x63c>)
 8002998:	468c      	mov	ip, r1
 800299a:	4463      	add	r3, ip
 800299c:	8819      	ldrh	r1, [r3, #0]
 800299e:	0589      	lsls	r1, r1, #22
 80029a0:	0d89      	lsrs	r1, r1, #22
 80029a2:	8019      	strh	r1, [r3, #0]
 80029a4:	2a00      	cmp	r2, #0
 80029a6:	d000      	beq.n	80029aa <USB_EPStartXfer+0x562>
 80029a8:	e0b4      	b.n	8002b14 <USB_EPStartXfer+0x6cc>
 80029aa:	881a      	ldrh	r2, [r3, #0]
 80029ac:	4934      	ldr	r1, [pc, #208]	@ (8002a80 <USB_EPStartXfer+0x638>)
 80029ae:	430a      	orrs	r2, r1
 80029b0:	b292      	uxth	r2, r2
 80029b2:	801a      	strh	r2, [r3, #0]
 80029b4:	e56e      	b.n	8002494 <USB_EPStartXfer+0x4c>
        PCD_SET_EP_DBUF_CNT(USBx, ep->num, ep->is_in, ep->maxpacket);
 80029b6:	2b00      	cmp	r3, #0
 80029b8:	d114      	bne.n	80029e4 <USB_EPStartXfer+0x59c>
 80029ba:	3350      	adds	r3, #80	@ 0x50
 80029bc:	5ac2      	ldrh	r2, [r0, r3]
 80029be:	1882      	adds	r2, r0, r2
 80029c0:	780b      	ldrb	r3, [r1, #0]
 80029c2:	00db      	lsls	r3, r3, #3
 80029c4:	189b      	adds	r3, r3, r2
 80029c6:	4a2d      	ldr	r2, [pc, #180]	@ (8002a7c <USB_EPStartXfer+0x634>)
 80029c8:	4694      	mov	ip, r2
 80029ca:	4463      	add	r3, ip
 80029cc:	881a      	ldrh	r2, [r3, #0]
 80029ce:	0592      	lsls	r2, r2, #22
 80029d0:	0d92      	lsrs	r2, r2, #22
 80029d2:	801a      	strh	r2, [r3, #0]
 80029d4:	690a      	ldr	r2, [r1, #16]
 80029d6:	2a00      	cmp	r2, #0
 80029d8:	d11d      	bne.n	8002a16 <USB_EPStartXfer+0x5ce>
 80029da:	881a      	ldrh	r2, [r3, #0]
 80029dc:	4928      	ldr	r1, [pc, #160]	@ (8002a80 <USB_EPStartXfer+0x638>)
 80029de:	430a      	orrs	r2, r1
 80029e0:	b292      	uxth	r2, r2
 80029e2:	801a      	strh	r2, [r3, #0]
 80029e4:	7863      	ldrb	r3, [r4, #1]
 80029e6:	2b00      	cmp	r3, #0
 80029e8:	d152      	bne.n	8002a90 <USB_EPStartXfer+0x648>
 80029ea:	3350      	adds	r3, #80	@ 0x50
 80029ec:	5aea      	ldrh	r2, [r5, r3]
 80029ee:	18aa      	adds	r2, r5, r2
 80029f0:	7823      	ldrb	r3, [r4, #0]
 80029f2:	00db      	lsls	r3, r3, #3
 80029f4:	189b      	adds	r3, r3, r2
 80029f6:	4a23      	ldr	r2, [pc, #140]	@ (8002a84 <USB_EPStartXfer+0x63c>)
 80029f8:	4694      	mov	ip, r2
 80029fa:	4463      	add	r3, ip
 80029fc:	881a      	ldrh	r2, [r3, #0]
 80029fe:	0592      	lsls	r2, r2, #22
 8002a00:	0d92      	lsrs	r2, r2, #22
 8002a02:	801a      	strh	r2, [r3, #0]
 8002a04:	6922      	ldr	r2, [r4, #16]
 8002a06:	2a00      	cmp	r2, #0
 8002a08:	d11e      	bne.n	8002a48 <USB_EPStartXfer+0x600>
 8002a0a:	881a      	ldrh	r2, [r3, #0]
 8002a0c:	491c      	ldr	r1, [pc, #112]	@ (8002a80 <USB_EPStartXfer+0x638>)
 8002a0e:	430a      	orrs	r2, r1
 8002a10:	b292      	uxth	r2, r2
 8002a12:	801a      	strh	r2, [r3, #0]
 8002a14:	e03e      	b.n	8002a94 <USB_EPStartXfer+0x64c>
 8002a16:	2a3e      	cmp	r2, #62	@ 0x3e
 8002a18:	d809      	bhi.n	8002a2e <USB_EPStartXfer+0x5e6>
 8002a1a:	0851      	lsrs	r1, r2, #1
 8002a1c:	07d2      	lsls	r2, r2, #31
 8002a1e:	d500      	bpl.n	8002a22 <USB_EPStartXfer+0x5da>
 8002a20:	3101      	adds	r1, #1
 8002a22:	881a      	ldrh	r2, [r3, #0]
 8002a24:	0289      	lsls	r1, r1, #10
 8002a26:	b289      	uxth	r1, r1
 8002a28:	430a      	orrs	r2, r1
 8002a2a:	801a      	strh	r2, [r3, #0]
 8002a2c:	e7da      	b.n	80029e4 <USB_EPStartXfer+0x59c>
 8002a2e:	0951      	lsrs	r1, r2, #5
 8002a30:	06d2      	lsls	r2, r2, #27
 8002a32:	d100      	bne.n	8002a36 <USB_EPStartXfer+0x5ee>
 8002a34:	3901      	subs	r1, #1
 8002a36:	881a      	ldrh	r2, [r3, #0]
 8002a38:	0289      	lsls	r1, r1, #10
 8002a3a:	b289      	uxth	r1, r1
 8002a3c:	4311      	orrs	r1, r2
 8002a3e:	4a10      	ldr	r2, [pc, #64]	@ (8002a80 <USB_EPStartXfer+0x638>)
 8002a40:	430a      	orrs	r2, r1
 8002a42:	b292      	uxth	r2, r2
 8002a44:	801a      	strh	r2, [r3, #0]
 8002a46:	e7cd      	b.n	80029e4 <USB_EPStartXfer+0x59c>
 8002a48:	2a3e      	cmp	r2, #62	@ 0x3e
 8002a4a:	d809      	bhi.n	8002a60 <USB_EPStartXfer+0x618>
 8002a4c:	0851      	lsrs	r1, r2, #1
 8002a4e:	07d2      	lsls	r2, r2, #31
 8002a50:	d500      	bpl.n	8002a54 <USB_EPStartXfer+0x60c>
 8002a52:	3101      	adds	r1, #1
 8002a54:	881a      	ldrh	r2, [r3, #0]
 8002a56:	0289      	lsls	r1, r1, #10
 8002a58:	b289      	uxth	r1, r1
 8002a5a:	430a      	orrs	r2, r1
 8002a5c:	801a      	strh	r2, [r3, #0]
 8002a5e:	e019      	b.n	8002a94 <USB_EPStartXfer+0x64c>
 8002a60:	0951      	lsrs	r1, r2, #5
 8002a62:	06d2      	lsls	r2, r2, #27
 8002a64:	d100      	bne.n	8002a68 <USB_EPStartXfer+0x620>
 8002a66:	3901      	subs	r1, #1
 8002a68:	881a      	ldrh	r2, [r3, #0]
 8002a6a:	0289      	lsls	r1, r1, #10
 8002a6c:	b289      	uxth	r1, r1
 8002a6e:	4311      	orrs	r1, r2
 8002a70:	4a03      	ldr	r2, [pc, #12]	@ (8002a80 <USB_EPStartXfer+0x638>)
 8002a72:	430a      	orrs	r2, r1
 8002a74:	b292      	uxth	r2, r2
 8002a76:	801a      	strh	r2, [r3, #0]
 8002a78:	e00c      	b.n	8002a94 <USB_EPStartXfer+0x64c>
 8002a7a:	46c0      	nop			@ (mov r8, r8)
 8002a7c:	00000402 	.word	0x00000402
 8002a80:	ffff8000 	.word	0xffff8000
 8002a84:	00000406 	.word	0x00000406
 8002a88:	ffff8e8f 	.word	0xffff8e8f
 8002a8c:	ffff8080 	.word	0xffff8080
 8002a90:	2b01      	cmp	r3, #1
 8002a92:	d016      	beq.n	8002ac2 <USB_EPStartXfer+0x67a>
        if (ep->xfer_count != 0U)
 8002a94:	69e3      	ldr	r3, [r4, #28]
 8002a96:	2b00      	cmp	r3, #0
 8002a98:	d100      	bne.n	8002a9c <USB_EPStartXfer+0x654>
 8002a9a:	e4fb      	b.n	8002494 <USB_EPStartXfer+0x4c>
          wEPVal = PCD_GET_ENDPOINT(USBx, ep->num);
 8002a9c:	7823      	ldrb	r3, [r4, #0]
 8002a9e:	009b      	lsls	r3, r3, #2
 8002aa0:	18eb      	adds	r3, r5, r3
 8002aa2:	881a      	ldrh	r2, [r3, #0]
          if ((((wEPVal & USB_EP_DTOG_RX) != 0U) && ((wEPVal & USB_EP_DTOG_TX) != 0U)) ||
 8002aa4:	4930      	ldr	r1, [pc, #192]	@ (8002b68 <USB_EPStartXfer+0x720>)
 8002aa6:	400a      	ands	r2, r1
 8002aa8:	428a      	cmp	r2, r1
 8002aaa:	d002      	beq.n	8002ab2 <USB_EPStartXfer+0x66a>
 8002aac:	2a00      	cmp	r2, #0
 8002aae:	d000      	beq.n	8002ab2 <USB_EPStartXfer+0x66a>
 8002ab0:	e4f0      	b.n	8002494 <USB_EPStartXfer+0x4c>
            PCD_FREE_USER_BUFFER(USBx, ep->num, 0U);
 8002ab2:	8819      	ldrh	r1, [r3, #0]
 8002ab4:	4a2d      	ldr	r2, [pc, #180]	@ (8002b6c <USB_EPStartXfer+0x724>)
 8002ab6:	4011      	ands	r1, r2
 8002ab8:	4a2d      	ldr	r2, [pc, #180]	@ (8002b70 <USB_EPStartXfer+0x728>)
 8002aba:	430a      	orrs	r2, r1
 8002abc:	b292      	uxth	r2, r2
 8002abe:	801a      	strh	r2, [r3, #0]
 8002ac0:	e4e8      	b.n	8002494 <USB_EPStartXfer+0x4c>
        PCD_SET_EP_DBUF_CNT(USBx, ep->num, ep->is_in, ep->maxpacket);
 8002ac2:	334f      	adds	r3, #79	@ 0x4f
 8002ac4:	5aea      	ldrh	r2, [r5, r3]
 8002ac6:	18aa      	adds	r2, r5, r2
 8002ac8:	7823      	ldrb	r3, [r4, #0]
 8002aca:	00db      	lsls	r3, r3, #3
 8002acc:	189b      	adds	r3, r3, r2
 8002ace:	4a29      	ldr	r2, [pc, #164]	@ (8002b74 <USB_EPStartXfer+0x72c>)
 8002ad0:	4694      	mov	ip, r2
 8002ad2:	4463      	add	r3, ip
 8002ad4:	8a22      	ldrh	r2, [r4, #16]
 8002ad6:	801a      	strh	r2, [r3, #0]
 8002ad8:	e7dc      	b.n	8002a94 <USB_EPStartXfer+0x64c>
          ep->xfer_len = 0U;
 8002ada:	2200      	movs	r2, #0
 8002adc:	61a2      	str	r2, [r4, #24]
          len = ep->xfer_len;
 8002ade:	000a      	movs	r2, r1
 8002ae0:	e738      	b.n	8002954 <USB_EPStartXfer+0x50c>
        PCD_SET_EP_DBUF_CNT(USBx, ep->num, ep->is_in, len);
 8002ae2:	2a3e      	cmp	r2, #62	@ 0x3e
 8002ae4:	d809      	bhi.n	8002afa <USB_EPStartXfer+0x6b2>
 8002ae6:	0851      	lsrs	r1, r2, #1
 8002ae8:	07d0      	lsls	r0, r2, #31
 8002aea:	d500      	bpl.n	8002aee <USB_EPStartXfer+0x6a6>
 8002aec:	3101      	adds	r1, #1
 8002aee:	8818      	ldrh	r0, [r3, #0]
 8002af0:	0289      	lsls	r1, r1, #10
 8002af2:	b289      	uxth	r1, r1
 8002af4:	4301      	orrs	r1, r0
 8002af6:	8019      	strh	r1, [r3, #0]
 8002af8:	e743      	b.n	8002982 <USB_EPStartXfer+0x53a>
 8002afa:	0951      	lsrs	r1, r2, #5
 8002afc:	06d0      	lsls	r0, r2, #27
 8002afe:	d100      	bne.n	8002b02 <USB_EPStartXfer+0x6ba>
 8002b00:	3901      	subs	r1, #1
 8002b02:	8818      	ldrh	r0, [r3, #0]
 8002b04:	0289      	lsls	r1, r1, #10
 8002b06:	b289      	uxth	r1, r1
 8002b08:	4308      	orrs	r0, r1
 8002b0a:	491b      	ldr	r1, [pc, #108]	@ (8002b78 <USB_EPStartXfer+0x730>)
 8002b0c:	4301      	orrs	r1, r0
 8002b0e:	b289      	uxth	r1, r1
 8002b10:	8019      	strh	r1, [r3, #0]
 8002b12:	e736      	b.n	8002982 <USB_EPStartXfer+0x53a>
 8002b14:	2a3e      	cmp	r2, #62	@ 0x3e
 8002b16:	d809      	bhi.n	8002b2c <USB_EPStartXfer+0x6e4>
 8002b18:	0851      	lsrs	r1, r2, #1
 8002b1a:	07d2      	lsls	r2, r2, #31
 8002b1c:	d500      	bpl.n	8002b20 <USB_EPStartXfer+0x6d8>
 8002b1e:	3101      	adds	r1, #1
 8002b20:	881a      	ldrh	r2, [r3, #0]
 8002b22:	0289      	lsls	r1, r1, #10
 8002b24:	b289      	uxth	r1, r1
 8002b26:	430a      	orrs	r2, r1
 8002b28:	801a      	strh	r2, [r3, #0]
 8002b2a:	e4b3      	b.n	8002494 <USB_EPStartXfer+0x4c>
 8002b2c:	0951      	lsrs	r1, r2, #5
 8002b2e:	06d2      	lsls	r2, r2, #27
 8002b30:	d100      	bne.n	8002b34 <USB_EPStartXfer+0x6ec>
 8002b32:	3901      	subs	r1, #1
 8002b34:	881a      	ldrh	r2, [r3, #0]
 8002b36:	0289      	lsls	r1, r1, #10
 8002b38:	b289      	uxth	r1, r1
 8002b3a:	4311      	orrs	r1, r2
 8002b3c:	4a0e      	ldr	r2, [pc, #56]	@ (8002b78 <USB_EPStartXfer+0x730>)
 8002b3e:	430a      	orrs	r2, r1
 8002b40:	b292      	uxth	r2, r2
 8002b42:	801a      	strh	r2, [r3, #0]
 8002b44:	e4a6      	b.n	8002494 <USB_EPStartXfer+0x4c>
 8002b46:	2b01      	cmp	r3, #1
 8002b48:	d000      	beq.n	8002b4c <USB_EPStartXfer+0x704>
 8002b4a:	e4a3      	b.n	8002494 <USB_EPStartXfer+0x4c>
 8002b4c:	334f      	adds	r3, #79	@ 0x4f
 8002b4e:	5ae9      	ldrh	r1, [r5, r3]
 8002b50:	1869      	adds	r1, r5, r1
 8002b52:	7823      	ldrb	r3, [r4, #0]
 8002b54:	00db      	lsls	r3, r3, #3
 8002b56:	185b      	adds	r3, r3, r1
 8002b58:	4906      	ldr	r1, [pc, #24]	@ (8002b74 <USB_EPStartXfer+0x72c>)
 8002b5a:	468c      	mov	ip, r1
 8002b5c:	4463      	add	r3, ip
 8002b5e:	b292      	uxth	r2, r2
 8002b60:	801a      	strh	r2, [r3, #0]
 8002b62:	e497      	b.n	8002494 <USB_EPStartXfer+0x4c>
        return HAL_ERROR;
 8002b64:	2001      	movs	r0, #1
 8002b66:	e4a3      	b.n	80024b0 <USB_EPStartXfer+0x68>
 8002b68:	00004040 	.word	0x00004040
 8002b6c:	ffff8f8f 	.word	0xffff8f8f
 8002b70:	ffff80c0 	.word	0xffff80c0
 8002b74:	00000406 	.word	0x00000406
 8002b78:	ffff8000 	.word	0xffff8000

08002b7c <USB_ReadPMA>:
  * @param   wPMABufAddr address into PMA.
  * @param   wNBytes no. of bytes to be copied.
  * @retval None
  */
void USB_ReadPMA(USB_TypeDef const *USBx, uint8_t *pbUsrBuf, uint16_t wPMABufAddr, uint16_t wNBytes)
{
 8002b7c:	b510      	push	{r4, lr}
  uint32_t n = (uint32_t)wNBytes >> 1;
 8002b7e:	085c      	lsrs	r4, r3, #1
  uint32_t count;
  uint32_t RdVal;
  __IO uint16_t *pdwVal;
  uint8_t *pBuf = pbUsrBuf;

  pdwVal = (__IO uint16_t *)(BaseAddr + 0x400U + ((uint32_t)wPMABufAddr * PMA_ACCESS));
 8002b80:	1812      	adds	r2, r2, r0
 8002b82:	2080      	movs	r0, #128	@ 0x80
 8002b84:	00c0      	lsls	r0, r0, #3
 8002b86:	4684      	mov	ip, r0
 8002b88:	4462      	add	r2, ip

  for (count = n; count != 0U; count--)
 8002b8a:	e006      	b.n	8002b9a <USB_ReadPMA+0x1e>
  {
    RdVal = *(__IO uint16_t *)pdwVal;
 8002b8c:	8810      	ldrh	r0, [r2, #0]
    pdwVal++;
 8002b8e:	3202      	adds	r2, #2
    *pBuf = (uint8_t)((RdVal >> 0) & 0xFFU);
 8002b90:	7008      	strb	r0, [r1, #0]
    pBuf++;
    *pBuf = (uint8_t)((RdVal >> 8) & 0xFFU);
 8002b92:	0a00      	lsrs	r0, r0, #8
 8002b94:	7048      	strb	r0, [r1, #1]
    pBuf++;
 8002b96:	3102      	adds	r1, #2
  for (count = n; count != 0U; count--)
 8002b98:	3c01      	subs	r4, #1
 8002b9a:	2c00      	cmp	r4, #0
 8002b9c:	d1f6      	bne.n	8002b8c <USB_ReadPMA+0x10>
#if PMA_ACCESS > 1U
    pdwVal++;
#endif /* PMA_ACCESS */
  }

  if ((wNBytes % 2U) != 0U)
 8002b9e:	07db      	lsls	r3, r3, #31
 8002ba0:	d501      	bpl.n	8002ba6 <USB_ReadPMA+0x2a>
  {
    RdVal = *pdwVal;
 8002ba2:	8813      	ldrh	r3, [r2, #0]
    *pBuf = (uint8_t)((RdVal >> 0) & 0xFFU);
 8002ba4:	700b      	strb	r3, [r1, #0]
  }
}
 8002ba6:	bd10      	pop	{r4, pc}

08002ba8 <SystemInit>:
                         before branch to main program. This call is made inside
                         the "startup_stm32f0xx.s" file.
                         User can setups the default system clock (System clock source, PLL Multiplier
                         and Divider factors, AHB/APBx prescalers and Flash settings).
   */
}
 8002ba8:	4770      	bx	lr
	...

08002bac <MX_USB_DEVICE_Init>:
/**
  * Init USB device Library, add supported class and start the library
  * @retval None
  */
void MX_USB_DEVICE_Init(void)
{
 8002bac:	b510      	push	{r4, lr}
  /* USER CODE BEGIN USB_DEVICE_Init_PreTreatment */

  /* USER CODE END USB_DEVICE_Init_PreTreatment */

  /* Init Device Library, add supported class and start the library. */
  if (USBD_Init(&hUsbDeviceFS, &FS_Desc, DEVICE_FS) != USBD_OK)
 8002bae:	490e      	ldr	r1, [pc, #56]	@ (8002be8 <MX_USB_DEVICE_Init+0x3c>)
 8002bb0:	480e      	ldr	r0, [pc, #56]	@ (8002bec <MX_USB_DEVICE_Init+0x40>)
 8002bb2:	2200      	movs	r2, #0
 8002bb4:	f000 f955 	bl	8002e62 <USBD_Init>
 8002bb8:	2800      	cmp	r0, #0
 8002bba:	d10b      	bne.n	8002bd4 <MX_USB_DEVICE_Init+0x28>
  {
    Error_Handler();
  }
  if (USBD_RegisterClass(&hUsbDeviceFS, &USBD_HID) != USBD_OK)
 8002bbc:	490c      	ldr	r1, [pc, #48]	@ (8002bf0 <MX_USB_DEVICE_Init+0x44>)
 8002bbe:	480b      	ldr	r0, [pc, #44]	@ (8002bec <MX_USB_DEVICE_Init+0x40>)
 8002bc0:	f000 f96b 	bl	8002e9a <USBD_RegisterClass>
 8002bc4:	2800      	cmp	r0, #0
 8002bc6:	d108      	bne.n	8002bda <MX_USB_DEVICE_Init+0x2e>
  {
    Error_Handler();
  }
  if (USBD_Start(&hUsbDeviceFS) != USBD_OK)
 8002bc8:	4808      	ldr	r0, [pc, #32]	@ (8002bec <MX_USB_DEVICE_Init+0x40>)
 8002bca:	f000 f96f 	bl	8002eac <USBD_Start>
 8002bce:	2800      	cmp	r0, #0
 8002bd0:	d106      	bne.n	8002be0 <MX_USB_DEVICE_Init+0x34>
  }

  /* USER CODE BEGIN USB_DEVICE_Init_PostTreatment */

  /* USER CODE END USB_DEVICE_Init_PostTreatment */
}
 8002bd2:	bd10      	pop	{r4, pc}
    Error_Handler();
 8002bd4:	f7fd fb24 	bl	8000220 <Error_Handler>
 8002bd8:	e7f0      	b.n	8002bbc <MX_USB_DEVICE_Init+0x10>
    Error_Handler();
 8002bda:	f7fd fb21 	bl	8000220 <Error_Handler>
 8002bde:	e7f3      	b.n	8002bc8 <MX_USB_DEVICE_Init+0x1c>
    Error_Handler();
 8002be0:	f7fd fb1e 	bl	8000220 <Error_Handler>
}
 8002be4:	e7f5      	b.n	8002bd2 <MX_USB_DEVICE_Init+0x26>
 8002be6:	46c0      	nop			@ (mov r8, r8)
 8002be8:	20000040 	.word	0x20000040
 8002bec:	20000178 	.word	0x20000178
 8002bf0:	20000110 	.word	0x20000110

08002bf4 <USBD_Get_USB_Status>:
  */
USBD_StatusTypeDef USBD_Get_USB_Status(HAL_StatusTypeDef hal_status)
{
  USBD_StatusTypeDef usb_status = USBD_OK;

  switch (hal_status)
 8002bf4:	2802      	cmp	r0, #2
 8002bf6:	d004      	beq.n	8002c02 <USBD_Get_USB_Status+0xe>
 8002bf8:	d805      	bhi.n	8002c06 <USBD_Get_USB_Status+0x12>
 8002bfa:	2800      	cmp	r0, #0
 8002bfc:	d000      	beq.n	8002c00 <USBD_Get_USB_Status+0xc>
  {
    case HAL_OK :
      usb_status = USBD_OK;
    break;
    case HAL_ERROR :
      usb_status = USBD_FAIL;
 8002bfe:	2002      	movs	r0, #2
    default :
      usb_status = USBD_FAIL;
    break;
  }
  return usb_status;
}
 8002c00:	4770      	bx	lr
      usb_status = USBD_BUSY;
 8002c02:	2001      	movs	r0, #1
 8002c04:	e7fc      	b.n	8002c00 <USBD_Get_USB_Status+0xc>
      usb_status = USBD_FAIL;
 8002c06:	2002      	movs	r0, #2
 8002c08:	e7fa      	b.n	8002c00 <USBD_Get_USB_Status+0xc>

08002c0a <SystemClockConfig_Resume>:
{
 8002c0a:	b510      	push	{r4, lr}
  SystemClock_Config();
 8002c0c:	f7fd fb0a 	bl	8000224 <SystemClock_Config>
}
 8002c10:	bd10      	pop	{r4, pc}
	...

08002c14 <HAL_PCD_MspInit>:
{
 8002c14:	b500      	push	{lr}
 8002c16:	b083      	sub	sp, #12
  if(pcdHandle->Instance==USB)
 8002c18:	6802      	ldr	r2, [r0, #0]
 8002c1a:	4b0c      	ldr	r3, [pc, #48]	@ (8002c4c <HAL_PCD_MspInit+0x38>)
 8002c1c:	429a      	cmp	r2, r3
 8002c1e:	d001      	beq.n	8002c24 <HAL_PCD_MspInit+0x10>
}
 8002c20:	b003      	add	sp, #12
 8002c22:	bd00      	pop	{pc}
    __HAL_RCC_USB_CLK_ENABLE();
 8002c24:	4b0a      	ldr	r3, [pc, #40]	@ (8002c50 <HAL_PCD_MspInit+0x3c>)
 8002c26:	69da      	ldr	r2, [r3, #28]
 8002c28:	2180      	movs	r1, #128	@ 0x80
 8002c2a:	0409      	lsls	r1, r1, #16
 8002c2c:	430a      	orrs	r2, r1
 8002c2e:	61da      	str	r2, [r3, #28]
 8002c30:	69db      	ldr	r3, [r3, #28]
 8002c32:	400b      	ands	r3, r1
 8002c34:	9301      	str	r3, [sp, #4]
 8002c36:	9b01      	ldr	r3, [sp, #4]
    HAL_NVIC_SetPriority(USB_IRQn, 0, 0);
 8002c38:	2200      	movs	r2, #0
 8002c3a:	2100      	movs	r1, #0
 8002c3c:	201f      	movs	r0, #31
 8002c3e:	f7fd fbed 	bl	800041c <HAL_NVIC_SetPriority>
    HAL_NVIC_EnableIRQ(USB_IRQn);
 8002c42:	201f      	movs	r0, #31
 8002c44:	f7fd fbee 	bl	8000424 <HAL_NVIC_EnableIRQ>
}
 8002c48:	e7ea      	b.n	8002c20 <HAL_PCD_MspInit+0xc>
 8002c4a:	46c0      	nop			@ (mov r8, r8)
 8002c4c:	40005c00 	.word	0x40005c00
 8002c50:	40021000 	.word	0x40021000

08002c54 <HAL_PCD_SetupStageCallback>:
{
 8002c54:	b510      	push	{r4, lr}
 8002c56:	0001      	movs	r1, r0
  USBD_LL_SetupStage((USBD_HandleTypeDef*)hpcd->pData, (uint8_t *)hpcd->Setup);
 8002c58:	23b6      	movs	r3, #182	@ 0xb6
 8002c5a:	009b      	lsls	r3, r3, #2
 8002c5c:	58c0      	ldr	r0, [r0, r3]
 8002c5e:	3b40      	subs	r3, #64	@ 0x40
 8002c60:	469c      	mov	ip, r3
 8002c62:	4461      	add	r1, ip
 8002c64:	f000 f93e 	bl	8002ee4 <USBD_LL_SetupStage>
}
 8002c68:	bd10      	pop	{r4, pc}

08002c6a <HAL_PCD_DataOutStageCallback>:
{
 8002c6a:	b510      	push	{r4, lr}
 8002c6c:	0003      	movs	r3, r0
  USBD_LL_DataOutStage((USBD_HandleTypeDef*)hpcd->pData, epnum, hpcd->OUT_ep[epnum].xfer_buff);
 8002c6e:	22b6      	movs	r2, #182	@ 0xb6
 8002c70:	0092      	lsls	r2, r2, #2
 8002c72:	5880      	ldr	r0, [r0, r2]
 8002c74:	008a      	lsls	r2, r1, #2
 8002c76:	1852      	adds	r2, r2, r1
 8002c78:	00d2      	lsls	r2, r2, #3
 8002c7a:	189b      	adds	r3, r3, r2
 8002c7c:	3365      	adds	r3, #101	@ 0x65
 8002c7e:	33ff      	adds	r3, #255	@ 0xff
 8002c80:	681a      	ldr	r2, [r3, #0]
 8002c82:	f000 f961 	bl	8002f48 <USBD_LL_DataOutStage>
}
 8002c86:	bd10      	pop	{r4, pc}

08002c88 <HAL_PCD_DataInStageCallback>:
{
 8002c88:	b510      	push	{r4, lr}
 8002c8a:	0003      	movs	r3, r0
  USBD_LL_DataInStage((USBD_HandleTypeDef*)hpcd->pData, epnum, hpcd->IN_ep[epnum].xfer_buff);
 8002c8c:	22b6      	movs	r2, #182	@ 0xb6
 8002c8e:	0092      	lsls	r2, r2, #2
 8002c90:	5880      	ldr	r0, [r0, r2]
 8002c92:	008a      	lsls	r2, r1, #2
 8002c94:	1852      	adds	r2, r2, r1
 8002c96:	00d2      	lsls	r2, r2, #3
 8002c98:	189b      	adds	r3, r3, r2
 8002c9a:	6a5a      	ldr	r2, [r3, #36]	@ 0x24
 8002c9c:	f000 f9a6 	bl	8002fec <USBD_LL_DataInStage>
}
 8002ca0:	bd10      	pop	{r4, pc}

08002ca2 <HAL_PCD_SOFCallback>:
{
 8002ca2:	b510      	push	{r4, lr}
  USBD_LL_SOF((USBD_HandleTypeDef*)hpcd->pData);
 8002ca4:	23b6      	movs	r3, #182	@ 0xb6
 8002ca6:	009b      	lsls	r3, r3, #2
 8002ca8:	58c0      	ldr	r0, [r0, r3]
 8002caa:	f000 fa61 	bl	8003170 <USBD_LL_SOF>
}
 8002cae:	bd10      	pop	{r4, pc}

08002cb0 <HAL_PCD_ResetCallback>:
{
 8002cb0:	b570      	push	{r4, r5, r6, lr}
 8002cb2:	0004      	movs	r4, r0
  if ( hpcd->Init.speed != PCD_SPEED_FULL)
 8002cb4:	7943      	ldrb	r3, [r0, #5]
 8002cb6:	2b02      	cmp	r3, #2
 8002cb8:	d109      	bne.n	8002cce <HAL_PCD_ResetCallback+0x1e>
  USBD_LL_SetSpeed((USBD_HandleTypeDef*)hpcd->pData, speed);
 8002cba:	25b6      	movs	r5, #182	@ 0xb6
 8002cbc:	00ad      	lsls	r5, r5, #2
 8002cbe:	5960      	ldr	r0, [r4, r5]
 8002cc0:	2101      	movs	r1, #1
 8002cc2:	f000 fa37 	bl	8003134 <USBD_LL_SetSpeed>
  USBD_LL_Reset((USBD_HandleTypeDef*)hpcd->pData);
 8002cc6:	5960      	ldr	r0, [r4, r5]
 8002cc8:	f000 fa05 	bl	80030d6 <USBD_LL_Reset>
}
 8002ccc:	bd70      	pop	{r4, r5, r6, pc}
    Error_Handler();
 8002cce:	f7fd faa7 	bl	8000220 <Error_Handler>
 8002cd2:	e7f2      	b.n	8002cba <HAL_PCD_ResetCallback+0xa>

08002cd4 <HAL_PCD_SuspendCallback>:
{
 8002cd4:	b510      	push	{r4, lr}
 8002cd6:	0004      	movs	r4, r0
  USBD_LL_Suspend((USBD_HandleTypeDef*)hpcd->pData);
 8002cd8:	23b6      	movs	r3, #182	@ 0xb6
 8002cda:	009b      	lsls	r3, r3, #2
 8002cdc:	58c0      	ldr	r0, [r0, r3]
 8002cde:	f000 fa2d 	bl	800313c <USBD_LL_Suspend>
  if (hpcd->Init.low_power_enable)
 8002ce2:	7a63      	ldrb	r3, [r4, #9]
 8002ce4:	2b00      	cmp	r3, #0
 8002ce6:	d004      	beq.n	8002cf2 <HAL_PCD_SuspendCallback+0x1e>
    SCB->SCR |= (uint32_t)((uint32_t)(SCB_SCR_SLEEPDEEP_Msk | SCB_SCR_SLEEPONEXIT_Msk));
 8002ce8:	4a02      	ldr	r2, [pc, #8]	@ (8002cf4 <HAL_PCD_SuspendCallback+0x20>)
 8002cea:	6913      	ldr	r3, [r2, #16]
 8002cec:	2106      	movs	r1, #6
 8002cee:	430b      	orrs	r3, r1
 8002cf0:	6113      	str	r3, [r2, #16]
}
 8002cf2:	bd10      	pop	{r4, pc}
 8002cf4:	e000ed00 	.word	0xe000ed00

08002cf8 <HAL_PCD_ResumeCallback>:
{
 8002cf8:	b510      	push	{r4, lr}
 8002cfa:	0004      	movs	r4, r0
  if (hpcd->Init.low_power_enable)
 8002cfc:	7a43      	ldrb	r3, [r0, #9]
 8002cfe:	2b00      	cmp	r3, #0
 8002d00:	d105      	bne.n	8002d0e <HAL_PCD_ResumeCallback+0x16>
  USBD_LL_Resume((USBD_HandleTypeDef*)hpcd->pData);
 8002d02:	23b6      	movs	r3, #182	@ 0xb6
 8002d04:	009b      	lsls	r3, r3, #2
 8002d06:	58e0      	ldr	r0, [r4, r3]
 8002d08:	f000 fa24 	bl	8003154 <USBD_LL_Resume>
}
 8002d0c:	bd10      	pop	{r4, pc}
    SCB->SCR &= (uint32_t)~((uint32_t)(SCB_SCR_SLEEPDEEP_Msk | SCB_SCR_SLEEPONEXIT_Msk));
 8002d0e:	4a04      	ldr	r2, [pc, #16]	@ (8002d20 <HAL_PCD_ResumeCallback+0x28>)
 8002d10:	6913      	ldr	r3, [r2, #16]
 8002d12:	2106      	movs	r1, #6
 8002d14:	438b      	bics	r3, r1
 8002d16:	6113      	str	r3, [r2, #16]
    SystemClockConfig_Resume();
 8002d18:	f7ff ff77 	bl	8002c0a <SystemClockConfig_Resume>
 8002d1c:	e7f1      	b.n	8002d02 <HAL_PCD_ResumeCallback+0xa>
 8002d1e:	46c0      	nop			@ (mov r8, r8)
 8002d20:	e000ed00 	.word	0xe000ed00

08002d24 <USBD_LL_Init>:
{
 8002d24:	b570      	push	{r4, r5, r6, lr}
 8002d26:	0004      	movs	r4, r0
  hpcd_USB_FS.pData = pdev;
 8002d28:	4817      	ldr	r0, [pc, #92]	@ (8002d88 <USBD_LL_Init+0x64>)
 8002d2a:	23b6      	movs	r3, #182	@ 0xb6
 8002d2c:	009b      	lsls	r3, r3, #2
 8002d2e:	50c4      	str	r4, [r0, r3]
  pdev->pData = &hpcd_USB_FS;
 8002d30:	3b18      	subs	r3, #24
 8002d32:	50e0      	str	r0, [r4, r3]
  hpcd_USB_FS.Instance = USB;
 8002d34:	4b15      	ldr	r3, [pc, #84]	@ (8002d8c <USBD_LL_Init+0x68>)
 8002d36:	6003      	str	r3, [r0, #0]
  hpcd_USB_FS.Init.dev_endpoints = 8;
 8002d38:	2308      	movs	r3, #8
 8002d3a:	7103      	strb	r3, [r0, #4]
  hpcd_USB_FS.Init.speed = PCD_SPEED_FULL;
 8002d3c:	3b06      	subs	r3, #6
 8002d3e:	7143      	strb	r3, [r0, #5]
  hpcd_USB_FS.Init.phy_itface = PCD_PHY_EMBEDDED;
 8002d40:	71c3      	strb	r3, [r0, #7]
  hpcd_USB_FS.Init.low_power_enable = DISABLE;
 8002d42:	2300      	movs	r3, #0
 8002d44:	7243      	strb	r3, [r0, #9]
  hpcd_USB_FS.Init.lpm_enable = DISABLE;
 8002d46:	7283      	strb	r3, [r0, #10]
  hpcd_USB_FS.Init.battery_charging_enable = DISABLE;
 8002d48:	72c3      	strb	r3, [r0, #11]
  if (HAL_PCD_Init(&hpcd_USB_FS) != HAL_OK)
 8002d4a:	f7fd fcd9 	bl	8000700 <HAL_PCD_Init>
 8002d4e:	2800      	cmp	r0, #0
 8002d50:	d116      	bne.n	8002d80 <USBD_LL_Init+0x5c>
  HAL_PCDEx_PMAConfig((PCD_HandleTypeDef*)pdev->pData , 0x00 , PCD_SNG_BUF, 0x18);
 8002d52:	25b0      	movs	r5, #176	@ 0xb0
 8002d54:	00ad      	lsls	r5, r5, #2
 8002d56:	5960      	ldr	r0, [r4, r5]
 8002d58:	2318      	movs	r3, #24
 8002d5a:	2200      	movs	r2, #0
 8002d5c:	2100      	movs	r1, #0
 8002d5e:	f7fe fc00 	bl	8001562 <HAL_PCDEx_PMAConfig>
  HAL_PCDEx_PMAConfig((PCD_HandleTypeDef*)pdev->pData , 0x80 , PCD_SNG_BUF, 0x58);
 8002d62:	5960      	ldr	r0, [r4, r5]
 8002d64:	2358      	movs	r3, #88	@ 0x58
 8002d66:	2200      	movs	r2, #0
 8002d68:	2180      	movs	r1, #128	@ 0x80
 8002d6a:	f7fe fbfa 	bl	8001562 <HAL_PCDEx_PMAConfig>
  HAL_PCDEx_PMAConfig((PCD_HandleTypeDef*)pdev->pData , 0x81 , PCD_SNG_BUF, 0x100);
 8002d6e:	5960      	ldr	r0, [r4, r5]
 8002d70:	2380      	movs	r3, #128	@ 0x80
 8002d72:	005b      	lsls	r3, r3, #1
 8002d74:	2200      	movs	r2, #0
 8002d76:	2181      	movs	r1, #129	@ 0x81
 8002d78:	f7fe fbf3 	bl	8001562 <HAL_PCDEx_PMAConfig>
}
 8002d7c:	2000      	movs	r0, #0
 8002d7e:	bd70      	pop	{r4, r5, r6, pc}
    Error_Handler( );
 8002d80:	f7fd fa4e 	bl	8000220 <Error_Handler>
 8002d84:	e7e5      	b.n	8002d52 <USBD_LL_Init+0x2e>
 8002d86:	46c0      	nop			@ (mov r8, r8)
 8002d88:	20000450 	.word	0x20000450
 8002d8c:	40005c00 	.word	0x40005c00

08002d90 <USBD_LL_Start>:
{
 8002d90:	b510      	push	{r4, lr}
  hal_status = HAL_PCD_Start(pdev->pData);
 8002d92:	23b0      	movs	r3, #176	@ 0xb0
 8002d94:	009b      	lsls	r3, r3, #2
 8002d96:	58c0      	ldr	r0, [r0, r3]
 8002d98:	f7fd fd12 	bl	80007c0 <HAL_PCD_Start>
  usb_status =  USBD_Get_USB_Status(hal_status);
 8002d9c:	f7ff ff2a 	bl	8002bf4 <USBD_Get_USB_Status>
}
 8002da0:	bd10      	pop	{r4, pc}

08002da2 <USBD_LL_OpenEP>:
{
 8002da2:	b510      	push	{r4, lr}
 8002da4:	0014      	movs	r4, r2
 8002da6:	001a      	movs	r2, r3
  hal_status = HAL_PCD_EP_Open(pdev->pData, ep_addr, ep_mps, ep_type);
 8002da8:	23b0      	movs	r3, #176	@ 0xb0
 8002daa:	009b      	lsls	r3, r3, #2
 8002dac:	58c0      	ldr	r0, [r0, r3]
 8002dae:	0023      	movs	r3, r4
 8002db0:	f7fe fa90 	bl	80012d4 <HAL_PCD_EP_Open>
  usb_status =  USBD_Get_USB_Status(hal_status);
 8002db4:	f7ff ff1e 	bl	8002bf4 <USBD_Get_USB_Status>
}
 8002db8:	bd10      	pop	{r4, pc}

08002dba <USBD_LL_CloseEP>:
{
 8002dba:	b510      	push	{r4, lr}
  hal_status = HAL_PCD_EP_Close(pdev->pData, ep_addr);
 8002dbc:	23b0      	movs	r3, #176	@ 0xb0
 8002dbe:	009b      	lsls	r3, r3, #2
 8002dc0:	58c0      	ldr	r0, [r0, r3]
 8002dc2:	f7fe fac5 	bl	8001350 <HAL_PCD_EP_Close>
  usb_status =  USBD_Get_USB_Status(hal_status);
 8002dc6:	f7ff ff15 	bl	8002bf4 <USBD_Get_USB_Status>
}
 8002dca:	bd10      	pop	{r4, pc}

08002dcc <USBD_LL_StallEP>:
{
 8002dcc:	b510      	push	{r4, lr}
  hal_status = HAL_PCD_EP_SetStall(pdev->pData, ep_addr);
 8002dce:	23b0      	movs	r3, #176	@ 0xb0
 8002dd0:	009b      	lsls	r3, r3, #2
 8002dd2:	58c0      	ldr	r0, [r0, r3]
 8002dd4:	f7fe fb4b 	bl	800146e <HAL_PCD_EP_SetStall>
  usb_status =  USBD_Get_USB_Status(hal_status);
 8002dd8:	f7ff ff0c 	bl	8002bf4 <USBD_Get_USB_Status>
}
 8002ddc:	bd10      	pop	{r4, pc}

08002dde <USBD_LL_ClearStallEP>:
{
 8002dde:	b510      	push	{r4, lr}
  hal_status = HAL_PCD_EP_ClrStall(pdev->pData, ep_addr);
 8002de0:	23b0      	movs	r3, #176	@ 0xb0
 8002de2:	009b      	lsls	r3, r3, #2
 8002de4:	58c0      	ldr	r0, [r0, r3]
 8002de6:	f7fe fb7c 	bl	80014e2 <HAL_PCD_EP_ClrStall>
  usb_status =  USBD_Get_USB_Status(hal_status);
 8002dea:	f7ff ff03 	bl	8002bf4 <USBD_Get_USB_Status>
}
 8002dee:	bd10      	pop	{r4, pc}

08002df0 <USBD_LL_IsStallEP>:
  PCD_HandleTypeDef *hpcd = (PCD_HandleTypeDef*) pdev->pData;
 8002df0:	23b0      	movs	r3, #176	@ 0xb0
 8002df2:	009b      	lsls	r3, r3, #2
 8002df4:	58c3      	ldr	r3, [r0, r3]
  if((ep_addr & 0x80) == 0x80)
 8002df6:	b24a      	sxtb	r2, r1
 8002df8:	2a00      	cmp	r2, #0
 8002dfa:	db09      	blt.n	8002e10 <USBD_LL_IsStallEP+0x20>
    return hpcd->OUT_ep[ep_addr & 0x7F].is_stall;
 8002dfc:	227f      	movs	r2, #127	@ 0x7f
 8002dfe:	4011      	ands	r1, r2
 8002e00:	008a      	lsls	r2, r1, #2
 8002e02:	1852      	adds	r2, r2, r1
 8002e04:	00d2      	lsls	r2, r2, #3
 8002e06:	189b      	adds	r3, r3, r2
 8002e08:	3353      	adds	r3, #83	@ 0x53
 8002e0a:	33ff      	adds	r3, #255	@ 0xff
 8002e0c:	7818      	ldrb	r0, [r3, #0]
}
 8002e0e:	4770      	bx	lr
    return hpcd->IN_ep[ep_addr & 0x7F].is_stall;
 8002e10:	227f      	movs	r2, #127	@ 0x7f
 8002e12:	4011      	ands	r1, r2
 8002e14:	008a      	lsls	r2, r1, #2
 8002e16:	1852      	adds	r2, r2, r1
 8002e18:	00d2      	lsls	r2, r2, #3
 8002e1a:	189b      	adds	r3, r3, r2
 8002e1c:	7c98      	ldrb	r0, [r3, #18]
 8002e1e:	e7f6      	b.n	8002e0e <USBD_LL_IsStallEP+0x1e>

08002e20 <USBD_LL_SetUSBAddress>:
{
 8002e20:	b510      	push	{r4, lr}
  hal_status = HAL_PCD_SetAddress(pdev->pData, dev_addr);
 8002e22:	23b0      	movs	r3, #176	@ 0xb0
 8002e24:	009b      	lsls	r3, r3, #2
 8002e26:	58c0      	ldr	r0, [r0, r3]
 8002e28:	f7fe f97e 	bl	8001128 <HAL_PCD_SetAddress>
  usb_status =  USBD_Get_USB_Status(hal_status);
 8002e2c:	f7ff fee2 	bl	8002bf4 <USBD_Get_USB_Status>
}
 8002e30:	bd10      	pop	{r4, pc}

08002e32 <USBD_LL_Transmit>:
{
 8002e32:	b510      	push	{r4, lr}
  hal_status = HAL_PCD_EP_Transmit(pdev->pData, ep_addr, pbuf, size);
 8002e34:	24b0      	movs	r4, #176	@ 0xb0
 8002e36:	00a4      	lsls	r4, r4, #2
 8002e38:	5900      	ldr	r0, [r0, r4]
 8002e3a:	f7fe fae5 	bl	8001408 <HAL_PCD_EP_Transmit>
  usb_status =  USBD_Get_USB_Status(hal_status);
 8002e3e:	f7ff fed9 	bl	8002bf4 <USBD_Get_USB_Status>
}
 8002e42:	bd10      	pop	{r4, pc}

08002e44 <USBD_LL_PrepareReceive>:
{
 8002e44:	b510      	push	{r4, lr}
  hal_status = HAL_PCD_EP_Receive(pdev->pData, ep_addr, pbuf, size);
 8002e46:	24b0      	movs	r4, #176	@ 0xb0
 8002e48:	00a4      	lsls	r4, r4, #2
 8002e4a:	5900      	ldr	r0, [r0, r4]
 8002e4c:	f7fe fab7 	bl	80013be <HAL_PCD_EP_Receive>
  usb_status =  USBD_Get_USB_Status(hal_status);
 8002e50:	f7ff fed0 	bl	8002bf4 <USBD_Get_USB_Status>
}
 8002e54:	bd10      	pop	{r4, pc}
	...

08002e58 <USBD_static_malloc>:
  return mem;
 8002e58:	4800      	ldr	r0, [pc, #0]	@ (8002e5c <USBD_static_malloc+0x4>)
}
 8002e5a:	4770      	bx	lr
 8002e5c:	2000043c 	.word	0x2000043c

08002e60 <USBD_static_free>:
}
 8002e60:	4770      	bx	lr

08002e62 <USBD_Init>:
* @param  id: Low level core index
* @retval None
*/
USBD_StatusTypeDef USBD_Init(USBD_HandleTypeDef *pdev,
                             USBD_DescriptorsTypeDef *pdesc, uint8_t id)
{
 8002e62:	b510      	push	{r4, lr}
  /* Check whether the USB Host handle is valid */
  if (pdev == NULL)
 8002e64:	2800      	cmp	r0, #0
 8002e66:	d016      	beq.n	8002e96 <USBD_Init+0x34>
#endif
    return USBD_FAIL;
  }

  /* Unlink previous class*/
  if (pdev->pClass != NULL)
 8002e68:	23ad      	movs	r3, #173	@ 0xad
 8002e6a:	009b      	lsls	r3, r3, #2
 8002e6c:	58c3      	ldr	r3, [r0, r3]
 8002e6e:	2b00      	cmp	r3, #0
 8002e70:	d003      	beq.n	8002e7a <USBD_Init+0x18>
  {
    pdev->pClass = NULL;
 8002e72:	23ad      	movs	r3, #173	@ 0xad
 8002e74:	009b      	lsls	r3, r3, #2
 8002e76:	2400      	movs	r4, #0
 8002e78:	50c4      	str	r4, [r0, r3]
  }

  /* Assign USBD Descriptors */
  if (pdesc != NULL)
 8002e7a:	2900      	cmp	r1, #0
 8002e7c:	d002      	beq.n	8002e84 <USBD_Init+0x22>
  {
    pdev->pDesc = pdesc;
 8002e7e:	23ac      	movs	r3, #172	@ 0xac
 8002e80:	009b      	lsls	r3, r3, #2
 8002e82:	50c1      	str	r1, [r0, r3]
  }

  /* Set Device initial State */
  pdev->dev_state = USBD_STATE_DEFAULT;
 8002e84:	23a7      	movs	r3, #167	@ 0xa7
 8002e86:	009b      	lsls	r3, r3, #2
 8002e88:	2101      	movs	r1, #1
 8002e8a:	54c1      	strb	r1, [r0, r3]
  pdev->id = id;
 8002e8c:	7002      	strb	r2, [r0, #0]
  /* Initialize low level driver */
  USBD_LL_Init(pdev);
 8002e8e:	f7ff ff49 	bl	8002d24 <USBD_LL_Init>

  return USBD_OK;
 8002e92:	2000      	movs	r0, #0
}
 8002e94:	bd10      	pop	{r4, pc}
    return USBD_FAIL;
 8002e96:	2002      	movs	r0, #2
 8002e98:	e7fc      	b.n	8002e94 <USBD_Init+0x32>

08002e9a <USBD_RegisterClass>:
  * @retval USBD Status
  */
USBD_StatusTypeDef  USBD_RegisterClass(USBD_HandleTypeDef *pdev, USBD_ClassTypeDef *pclass)
{
  USBD_StatusTypeDef status = USBD_OK;
  if (pclass != NULL)
 8002e9a:	2900      	cmp	r1, #0
 8002e9c:	d004      	beq.n	8002ea8 <USBD_RegisterClass+0xe>
  {
    /* link the class to the USB Device handle */
    pdev->pClass = pclass;
 8002e9e:	23ad      	movs	r3, #173	@ 0xad
 8002ea0:	009b      	lsls	r3, r3, #2
 8002ea2:	50c1      	str	r1, [r0, r3]
    status = USBD_OK;
 8002ea4:	2000      	movs	r0, #0
#endif
    status = USBD_FAIL;
  }

  return status;
}
 8002ea6:	4770      	bx	lr
    status = USBD_FAIL;
 8002ea8:	2002      	movs	r0, #2
 8002eaa:	e7fc      	b.n	8002ea6 <USBD_RegisterClass+0xc>

08002eac <USBD_Start>:
  *         Start the USB Device Core.
  * @param  pdev: Device Handle
  * @retval USBD Status
  */
USBD_StatusTypeDef  USBD_Start(USBD_HandleTypeDef *pdev)
{
 8002eac:	b510      	push	{r4, lr}
  /* Start the low level driver  */
  USBD_LL_Start(pdev);
 8002eae:	f7ff ff6f 	bl	8002d90 <USBD_LL_Start>

  return USBD_OK;
}
 8002eb2:	2000      	movs	r0, #0
 8002eb4:	bd10      	pop	{r4, pc}

08002eb6 <USBD_SetClassConfig>:
* @param  cfgidx: configuration index
* @retval status
*/

USBD_StatusTypeDef USBD_SetClassConfig(USBD_HandleTypeDef  *pdev, uint8_t cfgidx)
{
 8002eb6:	b510      	push	{r4, lr}
  USBD_StatusTypeDef ret = USBD_FAIL;

  if (pdev->pClass != NULL)
 8002eb8:	23ad      	movs	r3, #173	@ 0xad
 8002eba:	009b      	lsls	r3, r3, #2
 8002ebc:	58c3      	ldr	r3, [r0, r3]
 8002ebe:	2b00      	cmp	r3, #0
 8002ec0:	d006      	beq.n	8002ed0 <USBD_SetClassConfig+0x1a>
  {
    /* Set configuration  and Start the Class*/
    if (pdev->pClass->Init(pdev, cfgidx) == 0U)
 8002ec2:	681b      	ldr	r3, [r3, #0]
 8002ec4:	4798      	blx	r3
 8002ec6:	2800      	cmp	r0, #0
 8002ec8:	d100      	bne.n	8002ecc <USBD_SetClassConfig+0x16>
      ret = USBD_OK;
    }
  }

  return ret;
}
 8002eca:	bd10      	pop	{r4, pc}
  USBD_StatusTypeDef ret = USBD_FAIL;
 8002ecc:	2002      	movs	r0, #2
 8002ece:	e7fc      	b.n	8002eca <USBD_SetClassConfig+0x14>
 8002ed0:	2002      	movs	r0, #2
 8002ed2:	e7fa      	b.n	8002eca <USBD_SetClassConfig+0x14>

08002ed4 <USBD_ClrClassConfig>:
* @param  pdev: device instance
* @param  cfgidx: configuration index
* @retval status: USBD_StatusTypeDef
*/
USBD_StatusTypeDef USBD_ClrClassConfig(USBD_HandleTypeDef  *pdev, uint8_t cfgidx)
{
 8002ed4:	b510      	push	{r4, lr}
  /* Clear configuration  and De-initialize the Class process*/
  pdev->pClass->DeInit(pdev, cfgidx);
 8002ed6:	23ad      	movs	r3, #173	@ 0xad
 8002ed8:	009b      	lsls	r3, r3, #2
 8002eda:	58c3      	ldr	r3, [r0, r3]
 8002edc:	685b      	ldr	r3, [r3, #4]
 8002ede:	4798      	blx	r3

  return USBD_OK;
}
 8002ee0:	2000      	movs	r0, #0
 8002ee2:	bd10      	pop	{r4, pc}

08002ee4 <USBD_LL_SetupStage>:
*         Handle the setup stage
* @param  pdev: device instance
* @retval status
*/
USBD_StatusTypeDef USBD_LL_SetupStage(USBD_HandleTypeDef *pdev, uint8_t *psetup)
{
 8002ee4:	b570      	push	{r4, r5, r6, lr}
 8002ee6:	0004      	movs	r4, r0
  USBD_ParseSetupRequest(&pdev->request, psetup);
 8002ee8:	23aa      	movs	r3, #170	@ 0xaa
 8002eea:	009b      	lsls	r3, r3, #2
 8002eec:	18c5      	adds	r5, r0, r3
 8002eee:	0028      	movs	r0, r5
 8002ef0:	f000 f964 	bl	80031bc <USBD_ParseSetupRequest>

  pdev->ep0_state = USBD_EP0_SETUP;
 8002ef4:	23a5      	movs	r3, #165	@ 0xa5
 8002ef6:	009b      	lsls	r3, r3, #2
 8002ef8:	2201      	movs	r2, #1
 8002efa:	50e2      	str	r2, [r4, r3]

  pdev->ep0_data_len = pdev->request.wLength;
 8002efc:	4b11      	ldr	r3, [pc, #68]	@ (8002f44 <USBD_LL_SetupStage+0x60>)
 8002efe:	5ae2      	ldrh	r2, [r4, r3]
 8002f00:	3b16      	subs	r3, #22
 8002f02:	50e2      	str	r2, [r4, r3]

  switch (pdev->request.bmRequest & 0x1FU)
 8002f04:	3310      	adds	r3, #16
 8002f06:	5ce1      	ldrb	r1, [r4, r3]
 8002f08:	231f      	movs	r3, #31
 8002f0a:	400b      	ands	r3, r1
 8002f0c:	2b01      	cmp	r3, #1
 8002f0e:	d009      	beq.n	8002f24 <USBD_LL_SetupStage+0x40>
 8002f10:	2b02      	cmp	r3, #2
 8002f12:	d00c      	beq.n	8002f2e <USBD_LL_SetupStage+0x4a>
 8002f14:	2b00      	cmp	r3, #0
 8002f16:	d10f      	bne.n	8002f38 <USBD_LL_SetupStage+0x54>
  {
    case USB_REQ_RECIPIENT_DEVICE:
      USBD_StdDevReq(pdev, &pdev->request);
 8002f18:	0029      	movs	r1, r5
 8002f1a:	0020      	movs	r0, r4
 8002f1c:	f000 fb28 	bl	8003570 <USBD_StdDevReq>
      USBD_LL_StallEP(pdev, (pdev->request.bmRequest & 0x80U));
      break;
  }

  return USBD_OK;
}
 8002f20:	2000      	movs	r0, #0
 8002f22:	bd70      	pop	{r4, r5, r6, pc}
      USBD_StdItfReq(pdev, &pdev->request);
 8002f24:	0029      	movs	r1, r5
 8002f26:	0020      	movs	r0, r4
 8002f28:	f000 fb58 	bl	80035dc <USBD_StdItfReq>
      break;
 8002f2c:	e7f8      	b.n	8002f20 <USBD_LL_SetupStage+0x3c>
      USBD_StdEPReq(pdev, &pdev->request);
 8002f2e:	0029      	movs	r1, r5
 8002f30:	0020      	movs	r0, r4
 8002f32:	f000 fb86 	bl	8003642 <USBD_StdEPReq>
      break;
 8002f36:	e7f3      	b.n	8002f20 <USBD_LL_SetupStage+0x3c>
      USBD_LL_StallEP(pdev, (pdev->request.bmRequest & 0x80U));
 8002f38:	237f      	movs	r3, #127	@ 0x7f
 8002f3a:	4399      	bics	r1, r3
 8002f3c:	0020      	movs	r0, r4
 8002f3e:	f7ff ff45 	bl	8002dcc <USBD_LL_StallEP>
      break;
 8002f42:	e7ed      	b.n	8002f20 <USBD_LL_SetupStage+0x3c>
 8002f44:	000002ae 	.word	0x000002ae

08002f48 <USBD_LL_DataOutStage>:
* @param  epnum: endpoint index
* @retval status
*/
USBD_StatusTypeDef USBD_LL_DataOutStage(USBD_HandleTypeDef *pdev,
                                        uint8_t epnum, uint8_t *pdata)
{
 8002f48:	b570      	push	{r4, r5, r6, lr}
 8002f4a:	0005      	movs	r5, r0
 8002f4c:	000c      	movs	r4, r1
 8002f4e:	0011      	movs	r1, r2
  USBD_EndpointTypeDef *pep;

  if (epnum == 0U)
 8002f50:	2c00      	cmp	r4, #0
 8002f52:	d138      	bne.n	8002fc6 <USBD_LL_DataOutStage+0x7e>
  {
    pep = &pdev->ep_out[0];

    if (pdev->ep0_state == USBD_EP0_DATA_OUT)
 8002f54:	23a5      	movs	r3, #165	@ 0xa5
 8002f56:	009b      	lsls	r3, r3, #2
 8002f58:	58c3      	ldr	r3, [r0, r3]
 8002f5a:	2b03      	cmp	r3, #3
 8002f5c:	d003      	beq.n	8002f66 <USBD_LL_DataOutStage+0x1e>
        USBD_CtlSendStatus(pdev);
      }
    }
    else
    {
      if (pdev->ep0_state == USBD_EP0_STATUS_OUT)
 8002f5e:	2b05      	cmp	r3, #5
 8002f60:	d028      	beq.n	8002fb4 <USBD_LL_DataOutStage+0x6c>
  {
    /* should never be in this condition */
    return USBD_FAIL;
  }

  return USBD_OK;
 8002f62:	0020      	movs	r0, r4
 8002f64:	e03d      	b.n	8002fe2 <USBD_LL_DataOutStage+0x9a>
      if (pep->rem_length > pep->maxpacket)
 8002f66:	0002      	movs	r2, r0
 8002f68:	3255      	adds	r2, #85	@ 0x55
 8002f6a:	32ff      	adds	r2, #255	@ 0xff
 8002f6c:	68d3      	ldr	r3, [r2, #12]
 8002f6e:	6912      	ldr	r2, [r2, #16]
 8002f70:	4293      	cmp	r3, r2
 8002f72:	d90d      	bls.n	8002f90 <USBD_LL_DataOutStage+0x48>
        pep->rem_length -= pep->maxpacket;
 8002f74:	1a9b      	subs	r3, r3, r2
 8002f76:	3055      	adds	r0, #85	@ 0x55
 8002f78:	30ff      	adds	r0, #255	@ 0xff
 8002f7a:	60c3      	str	r3, [r0, #12]
        USBD_CtlContinueRx(pdev, pdata,
 8002f7c:	429a      	cmp	r2, r3
 8002f7e:	d905      	bls.n	8002f8c <USBD_LL_DataOutStage+0x44>
 8002f80:	b29a      	uxth	r2, r3
 8002f82:	0028      	movs	r0, r5
 8002f84:	f000 fe24 	bl	8003bd0 <USBD_CtlContinueRx>
  return USBD_OK;
 8002f88:	0020      	movs	r0, r4
 8002f8a:	e02a      	b.n	8002fe2 <USBD_LL_DataOutStage+0x9a>
        USBD_CtlContinueRx(pdev, pdata,
 8002f8c:	b292      	uxth	r2, r2
 8002f8e:	e7f8      	b.n	8002f82 <USBD_LL_DataOutStage+0x3a>
        if ((pdev->pClass->EP0_RxReady != NULL) &&
 8002f90:	23ad      	movs	r3, #173	@ 0xad
 8002f92:	009b      	lsls	r3, r3, #2
 8002f94:	58c3      	ldr	r3, [r0, r3]
 8002f96:	691b      	ldr	r3, [r3, #16]
 8002f98:	2b00      	cmp	r3, #0
 8002f9a:	d004      	beq.n	8002fa6 <USBD_LL_DataOutStage+0x5e>
            (pdev->dev_state == USBD_STATE_CONFIGURED))
 8002f9c:	22a7      	movs	r2, #167	@ 0xa7
 8002f9e:	0092      	lsls	r2, r2, #2
 8002fa0:	5c82      	ldrb	r2, [r0, r2]
        if ((pdev->pClass->EP0_RxReady != NULL) &&
 8002fa2:	2a03      	cmp	r2, #3
 8002fa4:	d004      	beq.n	8002fb0 <USBD_LL_DataOutStage+0x68>
        USBD_CtlSendStatus(pdev);
 8002fa6:	0028      	movs	r0, r5
 8002fa8:	f000 fe1a 	bl	8003be0 <USBD_CtlSendStatus>
  return USBD_OK;
 8002fac:	0020      	movs	r0, r4
 8002fae:	e018      	b.n	8002fe2 <USBD_LL_DataOutStage+0x9a>
          pdev->pClass->EP0_RxReady(pdev);
 8002fb0:	4798      	blx	r3
 8002fb2:	e7f8      	b.n	8002fa6 <USBD_LL_DataOutStage+0x5e>
        pdev->ep0_state = USBD_EP0_IDLE;
 8002fb4:	23a5      	movs	r3, #165	@ 0xa5
 8002fb6:	009b      	lsls	r3, r3, #2
 8002fb8:	2200      	movs	r2, #0
 8002fba:	50c2      	str	r2, [r0, r3]
        USBD_LL_StallEP(pdev, 0U);
 8002fbc:	2100      	movs	r1, #0
 8002fbe:	f7ff ff05 	bl	8002dcc <USBD_LL_StallEP>
  return USBD_OK;
 8002fc2:	0020      	movs	r0, r4
 8002fc4:	e00d      	b.n	8002fe2 <USBD_LL_DataOutStage+0x9a>
  else if ((pdev->pClass->DataOut != NULL) &&
 8002fc6:	23ad      	movs	r3, #173	@ 0xad
 8002fc8:	009b      	lsls	r3, r3, #2
 8002fca:	58c3      	ldr	r3, [r0, r3]
 8002fcc:	699b      	ldr	r3, [r3, #24]
 8002fce:	2b00      	cmp	r3, #0
 8002fd0:	d008      	beq.n	8002fe4 <USBD_LL_DataOutStage+0x9c>
           (pdev->dev_state == USBD_STATE_CONFIGURED))
 8002fd2:	22a7      	movs	r2, #167	@ 0xa7
 8002fd4:	0092      	lsls	r2, r2, #2
 8002fd6:	5c82      	ldrb	r2, [r0, r2]
  else if ((pdev->pClass->DataOut != NULL) &&
 8002fd8:	2a03      	cmp	r2, #3
 8002fda:	d105      	bne.n	8002fe8 <USBD_LL_DataOutStage+0xa0>
    pdev->pClass->DataOut(pdev, epnum);
 8002fdc:	0021      	movs	r1, r4
 8002fde:	4798      	blx	r3
  return USBD_OK;
 8002fe0:	2000      	movs	r0, #0
}
 8002fe2:	bd70      	pop	{r4, r5, r6, pc}
    return USBD_FAIL;
 8002fe4:	2002      	movs	r0, #2
 8002fe6:	e7fc      	b.n	8002fe2 <USBD_LL_DataOutStage+0x9a>
 8002fe8:	2002      	movs	r0, #2
 8002fea:	e7fa      	b.n	8002fe2 <USBD_LL_DataOutStage+0x9a>

08002fec <USBD_LL_DataInStage>:
* @param  epnum: endpoint index
* @retval status
*/
USBD_StatusTypeDef USBD_LL_DataInStage(USBD_HandleTypeDef *pdev,
                                       uint8_t epnum, uint8_t *pdata)
{
 8002fec:	b5f8      	push	{r3, r4, r5, r6, r7, lr}
 8002fee:	0005      	movs	r5, r0
 8002ff0:	000c      	movs	r4, r1
 8002ff2:	0011      	movs	r1, r2
  USBD_EndpointTypeDef *pep;

  if (epnum == 0U)
 8002ff4:	2c00      	cmp	r4, #0
 8002ff6:	d15b      	bne.n	80030b0 <USBD_LL_DataInStage+0xc4>
  {
    pep = &pdev->ep_in[0];

    if (pdev->ep0_state == USBD_EP0_DATA_IN)
 8002ff8:	23a5      	movs	r3, #165	@ 0xa5
 8002ffa:	009b      	lsls	r3, r3, #2
 8002ffc:	58c3      	ldr	r3, [r0, r3]
 8002ffe:	2b02      	cmp	r3, #2
 8003000:	d00e      	beq.n	8003020 <USBD_LL_DataInStage+0x34>
        }
      }
    }
    else
    {
      if ((pdev->ep0_state == USBD_EP0_STATUS_IN) ||
 8003002:	2b04      	cmp	r3, #4
 8003004:	d001      	beq.n	800300a <USBD_LL_DataInStage+0x1e>
 8003006:	2b00      	cmp	r3, #0
 8003008:	d103      	bne.n	8003012 <USBD_LL_DataInStage+0x26>
          (pdev->ep0_state == USBD_EP0_IDLE))
      {
        USBD_LL_StallEP(pdev, 0x80U);
 800300a:	2180      	movs	r1, #128	@ 0x80
 800300c:	0028      	movs	r0, r5
 800300e:	f7ff fedd 	bl	8002dcc <USBD_LL_StallEP>
      }
    }

    if (pdev->dev_test_mode == 1U)
 8003012:	23a8      	movs	r3, #168	@ 0xa8
 8003014:	009b      	lsls	r3, r3, #2
 8003016:	5ceb      	ldrb	r3, [r5, r3]
 8003018:	2b01      	cmp	r3, #1
 800301a:	d043      	beq.n	80030a4 <USBD_LL_DataInStage+0xb8>
  {
    /* should never be in this condition */
    return USBD_FAIL;
  }

  return USBD_OK;
 800301c:	0020      	movs	r0, r4
}
 800301e:	bdf8      	pop	{r3, r4, r5, r6, r7, pc}
      if (pep->rem_length > pep->maxpacket)
 8003020:	6a02      	ldr	r2, [r0, #32]
 8003022:	6a46      	ldr	r6, [r0, #36]	@ 0x24
 8003024:	42b2      	cmp	r2, r6
 8003026:	d820      	bhi.n	800306a <USBD_LL_DataInStage+0x7e>
        if ((pep->total_length % pep->maxpacket == 0U) &&
 8003028:	69c7      	ldr	r7, [r0, #28]
 800302a:	0031      	movs	r1, r6
 800302c:	0038      	movs	r0, r7
 800302e:	f7fd f883 	bl	8000138 <__aeabi_uidivmod>
 8003032:	2900      	cmp	r1, #0
 8003034:	d106      	bne.n	8003044 <USBD_LL_DataInStage+0x58>
 8003036:	42be      	cmp	r6, r7
 8003038:	d804      	bhi.n	8003044 <USBD_LL_DataInStage+0x58>
            (pep->total_length < pdev->ep0_data_len))
 800303a:	23a6      	movs	r3, #166	@ 0xa6
 800303c:	009b      	lsls	r3, r3, #2
 800303e:	58eb      	ldr	r3, [r5, r3]
            (pep->total_length >= pep->maxpacket) &&
 8003040:	429f      	cmp	r7, r3
 8003042:	d31e      	bcc.n	8003082 <USBD_LL_DataInStage+0x96>
          if ((pdev->pClass->EP0_TxSent != NULL) &&
 8003044:	23ad      	movs	r3, #173	@ 0xad
 8003046:	009b      	lsls	r3, r3, #2
 8003048:	58eb      	ldr	r3, [r5, r3]
 800304a:	68db      	ldr	r3, [r3, #12]
 800304c:	2b00      	cmp	r3, #0
 800304e:	d004      	beq.n	800305a <USBD_LL_DataInStage+0x6e>
              (pdev->dev_state == USBD_STATE_CONFIGURED))
 8003050:	22a7      	movs	r2, #167	@ 0xa7
 8003052:	0092      	lsls	r2, r2, #2
 8003054:	5caa      	ldrb	r2, [r5, r2]
          if ((pdev->pClass->EP0_TxSent != NULL) &&
 8003056:	2a03      	cmp	r2, #3
 8003058:	d021      	beq.n	800309e <USBD_LL_DataInStage+0xb2>
          USBD_LL_StallEP(pdev, 0x80U);
 800305a:	2180      	movs	r1, #128	@ 0x80
 800305c:	0028      	movs	r0, r5
 800305e:	f7ff feb5 	bl	8002dcc <USBD_LL_StallEP>
          USBD_CtlReceiveStatus(pdev);
 8003062:	0028      	movs	r0, r5
 8003064:	f000 fdc8 	bl	8003bf8 <USBD_CtlReceiveStatus>
 8003068:	e7d3      	b.n	8003012 <USBD_LL_DataInStage+0x26>
        pep->rem_length -= pep->maxpacket;
 800306a:	1b92      	subs	r2, r2, r6
 800306c:	6202      	str	r2, [r0, #32]
        USBD_CtlContinueSendData(pdev, pdata, (uint16_t)pep->rem_length);
 800306e:	b292      	uxth	r2, r2
 8003070:	f000 fda6 	bl	8003bc0 <USBD_CtlContinueSendData>
        USBD_LL_PrepareReceive(pdev, 0U, NULL, 0U);
 8003074:	2300      	movs	r3, #0
 8003076:	2200      	movs	r2, #0
 8003078:	2100      	movs	r1, #0
 800307a:	0028      	movs	r0, r5
 800307c:	f7ff fee2 	bl	8002e44 <USBD_LL_PrepareReceive>
 8003080:	e7c7      	b.n	8003012 <USBD_LL_DataInStage+0x26>
          USBD_CtlContinueSendData(pdev, NULL, 0U);
 8003082:	2200      	movs	r2, #0
 8003084:	0028      	movs	r0, r5
 8003086:	f000 fd9b 	bl	8003bc0 <USBD_CtlContinueSendData>
          pdev->ep0_data_len = 0U;
 800308a:	23a6      	movs	r3, #166	@ 0xa6
 800308c:	009b      	lsls	r3, r3, #2
 800308e:	2200      	movs	r2, #0
 8003090:	50ea      	str	r2, [r5, r3]
          USBD_LL_PrepareReceive(pdev, 0U, NULL, 0U);
 8003092:	2300      	movs	r3, #0
 8003094:	2100      	movs	r1, #0
 8003096:	0028      	movs	r0, r5
 8003098:	f7ff fed4 	bl	8002e44 <USBD_LL_PrepareReceive>
 800309c:	e7b9      	b.n	8003012 <USBD_LL_DataInStage+0x26>
            pdev->pClass->EP0_TxSent(pdev);
 800309e:	0028      	movs	r0, r5
 80030a0:	4798      	blx	r3
 80030a2:	e7da      	b.n	800305a <USBD_LL_DataInStage+0x6e>
      pdev->dev_test_mode = 0U;
 80030a4:	23a8      	movs	r3, #168	@ 0xa8
 80030a6:	009b      	lsls	r3, r3, #2
 80030a8:	2200      	movs	r2, #0
 80030aa:	54ea      	strb	r2, [r5, r3]
  return USBD_OK;
 80030ac:	0020      	movs	r0, r4
 80030ae:	e7b6      	b.n	800301e <USBD_LL_DataInStage+0x32>
  else if ((pdev->pClass->DataIn != NULL) &&
 80030b0:	23ad      	movs	r3, #173	@ 0xad
 80030b2:	009b      	lsls	r3, r3, #2
 80030b4:	58c3      	ldr	r3, [r0, r3]
 80030b6:	695b      	ldr	r3, [r3, #20]
 80030b8:	2b00      	cmp	r3, #0
 80030ba:	d008      	beq.n	80030ce <USBD_LL_DataInStage+0xe2>
           (pdev->dev_state == USBD_STATE_CONFIGURED))
 80030bc:	22a7      	movs	r2, #167	@ 0xa7
 80030be:	0092      	lsls	r2, r2, #2
 80030c0:	5c82      	ldrb	r2, [r0, r2]
  else if ((pdev->pClass->DataIn != NULL) &&
 80030c2:	2a03      	cmp	r2, #3
 80030c4:	d105      	bne.n	80030d2 <USBD_LL_DataInStage+0xe6>
    pdev->pClass->DataIn(pdev, epnum);
 80030c6:	0021      	movs	r1, r4
 80030c8:	4798      	blx	r3
  return USBD_OK;
 80030ca:	2000      	movs	r0, #0
    pdev->pClass->DataIn(pdev, epnum);
 80030cc:	e7a7      	b.n	800301e <USBD_LL_DataInStage+0x32>
    return USBD_FAIL;
 80030ce:	2002      	movs	r0, #2
 80030d0:	e7a5      	b.n	800301e <USBD_LL_DataInStage+0x32>
 80030d2:	2002      	movs	r0, #2
 80030d4:	e7a3      	b.n	800301e <USBD_LL_DataInStage+0x32>

080030d6 <USBD_LL_Reset>:
* @param  pdev: device instance
* @retval status
*/

USBD_StatusTypeDef USBD_LL_Reset(USBD_HandleTypeDef *pdev)
{
 80030d6:	b570      	push	{r4, r5, r6, lr}
 80030d8:	0004      	movs	r4, r0
  /* Open EP0 OUT */
  USBD_LL_OpenEP(pdev, 0x00U, USBD_EP_TYPE_CTRL, USB_MAX_EP0_SIZE);
 80030da:	2340      	movs	r3, #64	@ 0x40
 80030dc:	2200      	movs	r2, #0
 80030de:	2100      	movs	r1, #0
 80030e0:	f7ff fe5f 	bl	8002da2 <USBD_LL_OpenEP>
  pdev->ep_out[0x00U & 0xFU].is_used = 1U;
 80030e4:	2501      	movs	r5, #1
 80030e6:	23ac      	movs	r3, #172	@ 0xac
 80030e8:	005b      	lsls	r3, r3, #1
 80030ea:	50e5      	str	r5, [r4, r3]

  pdev->ep_out[0].maxpacket = USB_MAX_EP0_SIZE;
 80030ec:	2640      	movs	r6, #64	@ 0x40
 80030ee:	330c      	adds	r3, #12
 80030f0:	50e6      	str	r6, [r4, r3]

  /* Open EP0 IN */
  USBD_LL_OpenEP(pdev, 0x80U, USBD_EP_TYPE_CTRL, USB_MAX_EP0_SIZE);
 80030f2:	3b25      	subs	r3, #37	@ 0x25
 80030f4:	3bff      	subs	r3, #255	@ 0xff
 80030f6:	2200      	movs	r2, #0
 80030f8:	2180      	movs	r1, #128	@ 0x80
 80030fa:	0020      	movs	r0, r4
 80030fc:	f7ff fe51 	bl	8002da2 <USBD_LL_OpenEP>
  pdev->ep_in[0x80U & 0xFU].is_used = 1U;
 8003100:	61a5      	str	r5, [r4, #24]

  pdev->ep_in[0].maxpacket = USB_MAX_EP0_SIZE;
 8003102:	6266      	str	r6, [r4, #36]	@ 0x24

  /* Upon Reset call user call back */
  pdev->dev_state = USBD_STATE_DEFAULT;
 8003104:	23a7      	movs	r3, #167	@ 0xa7
 8003106:	009b      	lsls	r3, r3, #2
 8003108:	54e5      	strb	r5, [r4, r3]
  pdev->ep0_state = USBD_EP0_IDLE;
 800310a:	2300      	movs	r3, #0
 800310c:	22a5      	movs	r2, #165	@ 0xa5
 800310e:	0092      	lsls	r2, r2, #2
 8003110:	50a3      	str	r3, [r4, r2]
  pdev->dev_config = 0U;
 8003112:	6063      	str	r3, [r4, #4]
  pdev->dev_remote_wakeup = 0U;
 8003114:	3210      	adds	r2, #16
 8003116:	50a3      	str	r3, [r4, r2]

  if (pdev->pClassData)
 8003118:	23ae      	movs	r3, #174	@ 0xae
 800311a:	009b      	lsls	r3, r3, #2
 800311c:	58e3      	ldr	r3, [r4, r3]
 800311e:	2b00      	cmp	r3, #0
 8003120:	d006      	beq.n	8003130 <USBD_LL_Reset+0x5a>
  {
    pdev->pClass->DeInit(pdev, (uint8_t)pdev->dev_config);
 8003122:	23ad      	movs	r3, #173	@ 0xad
 8003124:	009b      	lsls	r3, r3, #2
 8003126:	58e3      	ldr	r3, [r4, r3]
 8003128:	685b      	ldr	r3, [r3, #4]
 800312a:	2100      	movs	r1, #0
 800312c:	0020      	movs	r0, r4
 800312e:	4798      	blx	r3
  }

  return USBD_OK;
}
 8003130:	2000      	movs	r0, #0
 8003132:	bd70      	pop	{r4, r5, r6, pc}

08003134 <USBD_LL_SetSpeed>:
* @retval status
*/
USBD_StatusTypeDef USBD_LL_SetSpeed(USBD_HandleTypeDef *pdev,
                                    USBD_SpeedTypeDef speed)
{
  pdev->dev_speed = speed;
 8003134:	7401      	strb	r1, [r0, #16]

  return USBD_OK;
}
 8003136:	2000      	movs	r0, #0
 8003138:	4770      	bx	lr
	...

0800313c <USBD_LL_Suspend>:
* @retval status
*/

USBD_StatusTypeDef USBD_LL_Suspend(USBD_HandleTypeDef *pdev)
{
  pdev->dev_old_state =  pdev->dev_state;
 800313c:	23a7      	movs	r3, #167	@ 0xa7
 800313e:	009b      	lsls	r3, r3, #2
 8003140:	5cc1      	ldrb	r1, [r0, r3]
 8003142:	4a03      	ldr	r2, [pc, #12]	@ (8003150 <USBD_LL_Suspend+0x14>)
 8003144:	5481      	strb	r1, [r0, r2]
  pdev->dev_state  = USBD_STATE_SUSPENDED;
 8003146:	2204      	movs	r2, #4
 8003148:	54c2      	strb	r2, [r0, r3]

  return USBD_OK;
}
 800314a:	2000      	movs	r0, #0
 800314c:	4770      	bx	lr
 800314e:	46c0      	nop			@ (mov r8, r8)
 8003150:	0000029d 	.word	0x0000029d

08003154 <USBD_LL_Resume>:
* @retval status
*/

USBD_StatusTypeDef USBD_LL_Resume(USBD_HandleTypeDef *pdev)
{
  if (pdev->dev_state == USBD_STATE_SUSPENDED)
 8003154:	23a7      	movs	r3, #167	@ 0xa7
 8003156:	009b      	lsls	r3, r3, #2
 8003158:	5cc3      	ldrb	r3, [r0, r3]
 800315a:	2b04      	cmp	r3, #4
 800315c:	d001      	beq.n	8003162 <USBD_LL_Resume+0xe>
  {
    pdev->dev_state = pdev->dev_old_state;
  }

  return USBD_OK;
}
 800315e:	2000      	movs	r0, #0
 8003160:	4770      	bx	lr
    pdev->dev_state = pdev->dev_old_state;
 8003162:	4b02      	ldr	r3, [pc, #8]	@ (800316c <USBD_LL_Resume+0x18>)
 8003164:	5cc2      	ldrb	r2, [r0, r3]
 8003166:	3b01      	subs	r3, #1
 8003168:	54c2      	strb	r2, [r0, r3]
 800316a:	e7f8      	b.n	800315e <USBD_LL_Resume+0xa>
 800316c:	0000029d 	.word	0x0000029d

08003170 <USBD_LL_SOF>:
* @param  pdev: device instance
* @retval status
*/

USBD_StatusTypeDef USBD_LL_SOF(USBD_HandleTypeDef *pdev)
{
 8003170:	b510      	push	{r4, lr}
  if (pdev->dev_state == USBD_STATE_CONFIGURED)
 8003172:	23a7      	movs	r3, #167	@ 0xa7
 8003174:	009b      	lsls	r3, r3, #2
 8003176:	5cc3      	ldrb	r3, [r0, r3]
 8003178:	2b03      	cmp	r3, #3
 800317a:	d001      	beq.n	8003180 <USBD_LL_SOF+0x10>
      pdev->pClass->SOF(pdev);
    }
  }

  return USBD_OK;
}
 800317c:	2000      	movs	r0, #0
 800317e:	bd10      	pop	{r4, pc}
    if (pdev->pClass->SOF != NULL)
 8003180:	23ad      	movs	r3, #173	@ 0xad
 8003182:	009b      	lsls	r3, r3, #2
 8003184:	58c3      	ldr	r3, [r0, r3]
 8003186:	69db      	ldr	r3, [r3, #28]
 8003188:	2b00      	cmp	r3, #0
 800318a:	d0f7      	beq.n	800317c <USBD_LL_SOF+0xc>
      pdev->pClass->SOF(pdev);
 800318c:	4798      	blx	r3
 800318e:	e7f5      	b.n	800317c <USBD_LL_SOF+0xc>

08003190 <USBD_GetLen>:
  *         return the string length
   * @param  buf : pointer to the ascii string buffer
  * @retval string length
  */
static uint8_t USBD_GetLen(uint8_t *buf)
{
 8003190:	0003      	movs	r3, r0
  uint8_t  len = 0U;
 8003192:	2000      	movs	r0, #0

  while (*buf != '\0')
 8003194:	e002      	b.n	800319c <USBD_GetLen+0xc>
  {
    len++;
 8003196:	3001      	adds	r0, #1
 8003198:	b2c0      	uxtb	r0, r0
    buf++;
 800319a:	3301      	adds	r3, #1
  while (*buf != '\0')
 800319c:	781a      	ldrb	r2, [r3, #0]
 800319e:	2a00      	cmp	r2, #0
 80031a0:	d1f9      	bne.n	8003196 <USBD_GetLen+0x6>
  }

  return len;
}
 80031a2:	4770      	bx	lr

080031a4 <USBD_SetFeature>:
{
 80031a4:	b510      	push	{r4, lr}
  if (req->wValue == USB_FEATURE_REMOTE_WAKEUP)
 80031a6:	884b      	ldrh	r3, [r1, #2]
 80031a8:	2b01      	cmp	r3, #1
 80031aa:	d000      	beq.n	80031ae <USBD_SetFeature+0xa>
}
 80031ac:	bd10      	pop	{r4, pc}
    pdev->dev_remote_wakeup = 1U;
 80031ae:	23a9      	movs	r3, #169	@ 0xa9
 80031b0:	009b      	lsls	r3, r3, #2
 80031b2:	2201      	movs	r2, #1
 80031b4:	50c2      	str	r2, [r0, r3]
    USBD_CtlSendStatus(pdev);
 80031b6:	f000 fd13 	bl	8003be0 <USBD_CtlSendStatus>
}
 80031ba:	e7f7      	b.n	80031ac <USBD_SetFeature+0x8>

080031bc <USBD_ParseSetupRequest>:
  req->bmRequest = *(uint8_t *)(pdata);
 80031bc:	780b      	ldrb	r3, [r1, #0]
 80031be:	7003      	strb	r3, [r0, #0]
  req->bRequest = *(uint8_t *)(pdata + 1U);
 80031c0:	784b      	ldrb	r3, [r1, #1]
 80031c2:	7043      	strb	r3, [r0, #1]
  req->wValue = SWAPBYTE(pdata + 2U);
 80031c4:	788b      	ldrb	r3, [r1, #2]
 80031c6:	78ca      	ldrb	r2, [r1, #3]
 80031c8:	0212      	lsls	r2, r2, #8
 80031ca:	189b      	adds	r3, r3, r2
 80031cc:	8043      	strh	r3, [r0, #2]
  req->wIndex = SWAPBYTE(pdata + 4U);
 80031ce:	790b      	ldrb	r3, [r1, #4]
 80031d0:	794a      	ldrb	r2, [r1, #5]
 80031d2:	0212      	lsls	r2, r2, #8
 80031d4:	189b      	adds	r3, r3, r2
 80031d6:	8083      	strh	r3, [r0, #4]
  req->wLength = SWAPBYTE(pdata + 6U);
 80031d8:	798b      	ldrb	r3, [r1, #6]
 80031da:	79ca      	ldrb	r2, [r1, #7]
 80031dc:	0212      	lsls	r2, r2, #8
 80031de:	189b      	adds	r3, r3, r2
 80031e0:	80c3      	strh	r3, [r0, #6]
}
 80031e2:	4770      	bx	lr

080031e4 <USBD_CtlError>:
{
 80031e4:	b510      	push	{r4, lr}
 80031e6:	0004      	movs	r4, r0
  USBD_LL_StallEP(pdev, 0x80U);
 80031e8:	2180      	movs	r1, #128	@ 0x80
 80031ea:	f7ff fdef 	bl	8002dcc <USBD_LL_StallEP>
  USBD_LL_StallEP(pdev, 0U);
 80031ee:	2100      	movs	r1, #0
 80031f0:	0020      	movs	r0, r4
 80031f2:	f7ff fdeb 	bl	8002dcc <USBD_LL_StallEP>
}
 80031f6:	bd10      	pop	{r4, pc}

080031f8 <USBD_GetDescriptor>:
{
 80031f8:	b530      	push	{r4, r5, lr}
 80031fa:	b083      	sub	sp, #12
 80031fc:	0005      	movs	r5, r0
 80031fe:	000c      	movs	r4, r1
  uint16_t len = 0U;
 8003200:	466b      	mov	r3, sp
 8003202:	2200      	movs	r2, #0
 8003204:	80da      	strh	r2, [r3, #6]
  switch (req->wValue >> 8)
 8003206:	884a      	ldrh	r2, [r1, #2]
 8003208:	0a13      	lsrs	r3, r2, #8
 800320a:	2b07      	cmp	r3, #7
 800320c:	d900      	bls.n	8003210 <USBD_GetDescriptor+0x18>
 800320e:	e0b6      	b.n	800337e <USBD_GetDescriptor+0x186>
 8003210:	009b      	lsls	r3, r3, #2
 8003212:	4965      	ldr	r1, [pc, #404]	@ (80033a8 <USBD_GetDescriptor+0x1b0>)
 8003214:	58cb      	ldr	r3, [r1, r3]
 8003216:	469f      	mov	pc, r3
      pbuf = pdev->pDesc->GetDeviceDescriptor(pdev->dev_speed, &len);
 8003218:	23ac      	movs	r3, #172	@ 0xac
 800321a:	009b      	lsls	r3, r3, #2
 800321c:	58c3      	ldr	r3, [r0, r3]
 800321e:	681b      	ldr	r3, [r3, #0]
 8003220:	7c00      	ldrb	r0, [r0, #16]
 8003222:	466a      	mov	r2, sp
 8003224:	1d91      	adds	r1, r2, #6
 8003226:	4798      	blx	r3
    if ((len != 0U) && (req->wLength != 0U))
 8003228:	466b      	mov	r3, sp
 800322a:	3306      	adds	r3, #6
 800322c:	881b      	ldrh	r3, [r3, #0]
 800322e:	2b00      	cmp	r3, #0
 8003230:	d003      	beq.n	800323a <USBD_GetDescriptor+0x42>
 8003232:	88e2      	ldrh	r2, [r4, #6]
 8003234:	2a00      	cmp	r2, #0
 8003236:	d000      	beq.n	800323a <USBD_GetDescriptor+0x42>
 8003238:	e0a6      	b.n	8003388 <USBD_GetDescriptor+0x190>
    if (req->wLength == 0U)
 800323a:	88e3      	ldrh	r3, [r4, #6]
 800323c:	2b00      	cmp	r3, #0
 800323e:	d100      	bne.n	8003242 <USBD_GetDescriptor+0x4a>
 8003240:	e0ae      	b.n	80033a0 <USBD_GetDescriptor+0x1a8>
}
 8003242:	b003      	add	sp, #12
 8003244:	bd30      	pop	{r4, r5, pc}
      if (pdev->dev_speed == USBD_SPEED_HIGH)
 8003246:	7c03      	ldrb	r3, [r0, #16]
 8003248:	2b00      	cmp	r3, #0
 800324a:	d109      	bne.n	8003260 <USBD_GetDescriptor+0x68>
        pbuf = pdev->pClass->GetHSConfigDescriptor(&len);
 800324c:	23ad      	movs	r3, #173	@ 0xad
 800324e:	009b      	lsls	r3, r3, #2
 8003250:	58c3      	ldr	r3, [r0, r3]
 8003252:	6a9b      	ldr	r3, [r3, #40]	@ 0x28
 8003254:	466a      	mov	r2, sp
 8003256:	1d90      	adds	r0, r2, #6
 8003258:	4798      	blx	r3
        pbuf[1] = USB_DESC_TYPE_CONFIGURATION;
 800325a:	2302      	movs	r3, #2
 800325c:	7043      	strb	r3, [r0, #1]
  if (err != 0U)
 800325e:	e7e3      	b.n	8003228 <USBD_GetDescriptor+0x30>
        pbuf = pdev->pClass->GetFSConfigDescriptor(&len);
 8003260:	23ad      	movs	r3, #173	@ 0xad
 8003262:	009b      	lsls	r3, r3, #2
 8003264:	58c3      	ldr	r3, [r0, r3]
 8003266:	6adb      	ldr	r3, [r3, #44]	@ 0x2c
 8003268:	466a      	mov	r2, sp
 800326a:	1d90      	adds	r0, r2, #6
 800326c:	4798      	blx	r3
        pbuf[1] = USB_DESC_TYPE_CONFIGURATION;
 800326e:	2302      	movs	r3, #2
 8003270:	7043      	strb	r3, [r0, #1]
  if (err != 0U)
 8003272:	e7d9      	b.n	8003228 <USBD_GetDescriptor+0x30>
      switch ((uint8_t)(req->wValue))
 8003274:	b2d2      	uxtb	r2, r2
 8003276:	2a05      	cmp	r2, #5
 8003278:	d85d      	bhi.n	8003336 <USBD_GetDescriptor+0x13e>
 800327a:	0092      	lsls	r2, r2, #2
 800327c:	4b4b      	ldr	r3, [pc, #300]	@ (80033ac <USBD_GetDescriptor+0x1b4>)
 800327e:	589b      	ldr	r3, [r3, r2]
 8003280:	469f      	mov	pc, r3
          if (pdev->pDesc->GetLangIDStrDescriptor != NULL)
 8003282:	23ac      	movs	r3, #172	@ 0xac
 8003284:	009b      	lsls	r3, r3, #2
 8003286:	58c3      	ldr	r3, [r0, r3]
 8003288:	685b      	ldr	r3, [r3, #4]
 800328a:	2b00      	cmp	r3, #0
 800328c:	d004      	beq.n	8003298 <USBD_GetDescriptor+0xa0>
            pbuf = pdev->pDesc->GetLangIDStrDescriptor(pdev->dev_speed, &len);
 800328e:	7c00      	ldrb	r0, [r0, #16]
 8003290:	466a      	mov	r2, sp
 8003292:	1d91      	adds	r1, r2, #6
 8003294:	4798      	blx	r3
  if (err != 0U)
 8003296:	e7c7      	b.n	8003228 <USBD_GetDescriptor+0x30>
            USBD_CtlError(pdev, req);
 8003298:	0021      	movs	r1, r4
 800329a:	f7ff ffa3 	bl	80031e4 <USBD_CtlError>
  if (err != 0U)
 800329e:	e7d0      	b.n	8003242 <USBD_GetDescriptor+0x4a>
          if (pdev->pDesc->GetManufacturerStrDescriptor != NULL)
 80032a0:	23ac      	movs	r3, #172	@ 0xac
 80032a2:	009b      	lsls	r3, r3, #2
 80032a4:	58c3      	ldr	r3, [r0, r3]
 80032a6:	689b      	ldr	r3, [r3, #8]
 80032a8:	2b00      	cmp	r3, #0
 80032aa:	d004      	beq.n	80032b6 <USBD_GetDescriptor+0xbe>
            pbuf = pdev->pDesc->GetManufacturerStrDescriptor(pdev->dev_speed, &len);
 80032ac:	7c00      	ldrb	r0, [r0, #16]
 80032ae:	466a      	mov	r2, sp
 80032b0:	1d91      	adds	r1, r2, #6
 80032b2:	4798      	blx	r3
  if (err != 0U)
 80032b4:	e7b8      	b.n	8003228 <USBD_GetDescriptor+0x30>
            USBD_CtlError(pdev, req);
 80032b6:	0021      	movs	r1, r4
 80032b8:	f7ff ff94 	bl	80031e4 <USBD_CtlError>
  if (err != 0U)
 80032bc:	e7c1      	b.n	8003242 <USBD_GetDescriptor+0x4a>
          if (pdev->pDesc->GetProductStrDescriptor != NULL)
 80032be:	23ac      	movs	r3, #172	@ 0xac
 80032c0:	009b      	lsls	r3, r3, #2
 80032c2:	58c3      	ldr	r3, [r0, r3]
 80032c4:	68db      	ldr	r3, [r3, #12]
 80032c6:	2b00      	cmp	r3, #0
 80032c8:	d004      	beq.n	80032d4 <USBD_GetDescriptor+0xdc>
            pbuf = pdev->pDesc->GetProductStrDescriptor(pdev->dev_speed, &len);
 80032ca:	7c00      	ldrb	r0, [r0, #16]
 80032cc:	466a      	mov	r2, sp
 80032ce:	1d91      	adds	r1, r2, #6
 80032d0:	4798      	blx	r3
  if (err != 0U)
 80032d2:	e7a9      	b.n	8003228 <USBD_GetDescriptor+0x30>
            USBD_CtlError(pdev, req);
 80032d4:	0021      	movs	r1, r4
 80032d6:	f7ff ff85 	bl	80031e4 <USBD_CtlError>
  if (err != 0U)
 80032da:	e7b2      	b.n	8003242 <USBD_GetDescriptor+0x4a>
          if (pdev->pDesc->GetSerialStrDescriptor != NULL)
 80032dc:	23ac      	movs	r3, #172	@ 0xac
 80032de:	009b      	lsls	r3, r3, #2
 80032e0:	58c3      	ldr	r3, [r0, r3]
 80032e2:	691b      	ldr	r3, [r3, #16]
 80032e4:	2b00      	cmp	r3, #0
 80032e6:	d004      	beq.n	80032f2 <USBD_GetDescriptor+0xfa>
            pbuf = pdev->pDesc->GetSerialStrDescriptor(pdev->dev_speed, &len);
 80032e8:	7c00      	ldrb	r0, [r0, #16]
 80032ea:	466a      	mov	r2, sp
 80032ec:	1d91      	adds	r1, r2, #6
 80032ee:	4798      	blx	r3
  if (err != 0U)
 80032f0:	e79a      	b.n	8003228 <USBD_GetDescriptor+0x30>
            USBD_CtlError(pdev, req);
 80032f2:	0021      	movs	r1, r4
 80032f4:	f7ff ff76 	bl	80031e4 <USBD_CtlError>
  if (err != 0U)
 80032f8:	e7a3      	b.n	8003242 <USBD_GetDescriptor+0x4a>
          if (pdev->pDesc->GetConfigurationStrDescriptor != NULL)
 80032fa:	23ac      	movs	r3, #172	@ 0xac
 80032fc:	009b      	lsls	r3, r3, #2
 80032fe:	58c3      	ldr	r3, [r0, r3]
 8003300:	695b      	ldr	r3, [r3, #20]
 8003302:	2b00      	cmp	r3, #0
 8003304:	d004      	beq.n	8003310 <USBD_GetDescriptor+0x118>
            pbuf = pdev->pDesc->GetConfigurationStrDescriptor(pdev->dev_speed, &len);
 8003306:	7c00      	ldrb	r0, [r0, #16]
 8003308:	466a      	mov	r2, sp
 800330a:	1d91      	adds	r1, r2, #6
 800330c:	4798      	blx	r3
  if (err != 0U)
 800330e:	e78b      	b.n	8003228 <USBD_GetDescriptor+0x30>
            USBD_CtlError(pdev, req);
 8003310:	0021      	movs	r1, r4
 8003312:	f7ff ff67 	bl	80031e4 <USBD_CtlError>
  if (err != 0U)
 8003316:	e794      	b.n	8003242 <USBD_GetDescriptor+0x4a>
          if (pdev->pDesc->GetInterfaceStrDescriptor != NULL)
 8003318:	23ac      	movs	r3, #172	@ 0xac
 800331a:	009b      	lsls	r3, r3, #2
 800331c:	58c3      	ldr	r3, [r0, r3]
 800331e:	699b      	ldr	r3, [r3, #24]
 8003320:	2b00      	cmp	r3, #0
 8003322:	d004      	beq.n	800332e <USBD_GetDescriptor+0x136>
            pbuf = pdev->pDesc->GetInterfaceStrDescriptor(pdev->dev_speed, &len);
 8003324:	7c00      	ldrb	r0, [r0, #16]
 8003326:	466a      	mov	r2, sp
 8003328:	1d91      	adds	r1, r2, #6
 800332a:	4798      	blx	r3
  if (err != 0U)
 800332c:	e77c      	b.n	8003228 <USBD_GetDescriptor+0x30>
            USBD_CtlError(pdev, req);
 800332e:	0021      	movs	r1, r4
 8003330:	f7ff ff58 	bl	80031e4 <USBD_CtlError>
  if (err != 0U)
 8003334:	e785      	b.n	8003242 <USBD_GetDescriptor+0x4a>
          USBD_CtlError(pdev, req);
 8003336:	0021      	movs	r1, r4
 8003338:	f7ff ff54 	bl	80031e4 <USBD_CtlError>
  if (err != 0U)
 800333c:	e781      	b.n	8003242 <USBD_GetDescriptor+0x4a>
      if (pdev->dev_speed == USBD_SPEED_HIGH)
 800333e:	7c03      	ldrb	r3, [r0, #16]
 8003340:	2b00      	cmp	r3, #0
 8003342:	d107      	bne.n	8003354 <USBD_GetDescriptor+0x15c>
        pbuf = pdev->pClass->GetDeviceQualifierDescriptor(&len);
 8003344:	23ad      	movs	r3, #173	@ 0xad
 8003346:	009b      	lsls	r3, r3, #2
 8003348:	58c3      	ldr	r3, [r0, r3]
 800334a:	6b5b      	ldr	r3, [r3, #52]	@ 0x34
 800334c:	466a      	mov	r2, sp
 800334e:	1d90      	adds	r0, r2, #6
 8003350:	4798      	blx	r3
  if (err != 0U)
 8003352:	e769      	b.n	8003228 <USBD_GetDescriptor+0x30>
        USBD_CtlError(pdev, req);
 8003354:	0021      	movs	r1, r4
 8003356:	f7ff ff45 	bl	80031e4 <USBD_CtlError>
  if (err != 0U)
 800335a:	e772      	b.n	8003242 <USBD_GetDescriptor+0x4a>
      if (pdev->dev_speed == USBD_SPEED_HIGH)
 800335c:	7c03      	ldrb	r3, [r0, #16]
 800335e:	2b00      	cmp	r3, #0
 8003360:	d109      	bne.n	8003376 <USBD_GetDescriptor+0x17e>
        pbuf = pdev->pClass->GetOtherSpeedConfigDescriptor(&len);
 8003362:	23ad      	movs	r3, #173	@ 0xad
 8003364:	009b      	lsls	r3, r3, #2
 8003366:	58c3      	ldr	r3, [r0, r3]
 8003368:	6b1b      	ldr	r3, [r3, #48]	@ 0x30
 800336a:	466a      	mov	r2, sp
 800336c:	1d90      	adds	r0, r2, #6
 800336e:	4798      	blx	r3
        pbuf[1] = USB_DESC_TYPE_OTHER_SPEED_CONFIGURATION;
 8003370:	2307      	movs	r3, #7
 8003372:	7043      	strb	r3, [r0, #1]
  if (err != 0U)
 8003374:	e758      	b.n	8003228 <USBD_GetDescriptor+0x30>
        USBD_CtlError(pdev, req);
 8003376:	0021      	movs	r1, r4
 8003378:	f7ff ff34 	bl	80031e4 <USBD_CtlError>
  if (err != 0U)
 800337c:	e761      	b.n	8003242 <USBD_GetDescriptor+0x4a>
      USBD_CtlError(pdev, req);
 800337e:	0021      	movs	r1, r4
 8003380:	0028      	movs	r0, r5
 8003382:	f7ff ff2f 	bl	80031e4 <USBD_CtlError>
    return;
 8003386:	e75c      	b.n	8003242 <USBD_GetDescriptor+0x4a>
      len = MIN(len, req->wLength);
 8003388:	1c19      	adds	r1, r3, #0
 800338a:	4293      	cmp	r3, r2
 800338c:	d900      	bls.n	8003390 <USBD_GetDescriptor+0x198>
 800338e:	1c11      	adds	r1, r2, #0
 8003390:	b28a      	uxth	r2, r1
 8003392:	466b      	mov	r3, sp
 8003394:	80d9      	strh	r1, [r3, #6]
      (void)USBD_CtlSendData(pdev, pbuf, len);
 8003396:	0001      	movs	r1, r0
 8003398:	0028      	movs	r0, r5
 800339a:	f000 fc03 	bl	8003ba4 <USBD_CtlSendData>
 800339e:	e74c      	b.n	800323a <USBD_GetDescriptor+0x42>
      (void)USBD_CtlSendStatus(pdev);
 80033a0:	0028      	movs	r0, r5
 80033a2:	f000 fc1d 	bl	8003be0 <USBD_CtlSendStatus>
 80033a6:	e74c      	b.n	8003242 <USBD_GetDescriptor+0x4a>
 80033a8:	08003d34 	.word	0x08003d34
 80033ac:	08003d54 	.word	0x08003d54

080033b0 <USBD_SetAddress>:
{
 80033b0:	b570      	push	{r4, r5, r6, lr}
 80033b2:	0004      	movs	r4, r0
  if ((req->wIndex == 0U) && (req->wLength == 0U) && (req->wValue < 128U))
 80033b4:	888b      	ldrh	r3, [r1, #4]
 80033b6:	2b00      	cmp	r3, #0
 80033b8:	d123      	bne.n	8003402 <USBD_SetAddress+0x52>
 80033ba:	88cb      	ldrh	r3, [r1, #6]
 80033bc:	2b00      	cmp	r3, #0
 80033be:	d120      	bne.n	8003402 <USBD_SetAddress+0x52>
 80033c0:	884b      	ldrh	r3, [r1, #2]
 80033c2:	2b7f      	cmp	r3, #127	@ 0x7f
 80033c4:	d81d      	bhi.n	8003402 <USBD_SetAddress+0x52>
    dev_addr = (uint8_t)(req->wValue) & 0x7FU;
 80033c6:	257f      	movs	r5, #127	@ 0x7f
 80033c8:	401d      	ands	r5, r3
    if (pdev->dev_state == USBD_STATE_CONFIGURED)
 80033ca:	23a7      	movs	r3, #167	@ 0xa7
 80033cc:	009b      	lsls	r3, r3, #2
 80033ce:	5cc3      	ldrb	r3, [r0, r3]
 80033d0:	2b03      	cmp	r3, #3
 80033d2:	d00e      	beq.n	80033f2 <USBD_SetAddress+0x42>
      pdev->dev_address = dev_addr;
 80033d4:	4b0d      	ldr	r3, [pc, #52]	@ (800340c <USBD_SetAddress+0x5c>)
 80033d6:	54c5      	strb	r5, [r0, r3]
      USBD_LL_SetUSBAddress(pdev, dev_addr);
 80033d8:	0029      	movs	r1, r5
 80033da:	f7ff fd21 	bl	8002e20 <USBD_LL_SetUSBAddress>
      USBD_CtlSendStatus(pdev);
 80033de:	0020      	movs	r0, r4
 80033e0:	f000 fbfe 	bl	8003be0 <USBD_CtlSendStatus>
      if (dev_addr != 0U)
 80033e4:	2d00      	cmp	r5, #0
 80033e6:	d007      	beq.n	80033f8 <USBD_SetAddress+0x48>
        pdev->dev_state = USBD_STATE_ADDRESSED;
 80033e8:	23a7      	movs	r3, #167	@ 0xa7
 80033ea:	009b      	lsls	r3, r3, #2
 80033ec:	2202      	movs	r2, #2
 80033ee:	54e2      	strb	r2, [r4, r3]
 80033f0:	e00a      	b.n	8003408 <USBD_SetAddress+0x58>
      USBD_CtlError(pdev, req);
 80033f2:	f7ff fef7 	bl	80031e4 <USBD_CtlError>
 80033f6:	e007      	b.n	8003408 <USBD_SetAddress+0x58>
        pdev->dev_state = USBD_STATE_DEFAULT;
 80033f8:	23a7      	movs	r3, #167	@ 0xa7
 80033fa:	009b      	lsls	r3, r3, #2
 80033fc:	2201      	movs	r2, #1
 80033fe:	54e2      	strb	r2, [r4, r3]
 8003400:	e002      	b.n	8003408 <USBD_SetAddress+0x58>
    USBD_CtlError(pdev, req);
 8003402:	0020      	movs	r0, r4
 8003404:	f7ff feee 	bl	80031e4 <USBD_CtlError>
}
 8003408:	bd70      	pop	{r4, r5, r6, pc}
 800340a:	46c0      	nop			@ (mov r8, r8)
 800340c:	0000029e 	.word	0x0000029e

08003410 <USBD_SetConfig>:
{
 8003410:	b570      	push	{r4, r5, r6, lr}
 8003412:	0004      	movs	r4, r0
 8003414:	000d      	movs	r5, r1
  cfgidx = (uint8_t)(req->wValue);
 8003416:	7889      	ldrb	r1, [r1, #2]
 8003418:	4b2a      	ldr	r3, [pc, #168]	@ (80034c4 <USBD_SetConfig+0xb4>)
 800341a:	7019      	strb	r1, [r3, #0]
  if (cfgidx > USBD_MAX_NUM_CONFIGURATION)
 800341c:	2901      	cmp	r1, #1
 800341e:	d80f      	bhi.n	8003440 <USBD_SetConfig+0x30>
    switch (pdev->dev_state)
 8003420:	23a7      	movs	r3, #167	@ 0xa7
 8003422:	009b      	lsls	r3, r3, #2
 8003424:	5cc3      	ldrb	r3, [r0, r3]
 8003426:	2b02      	cmp	r3, #2
 8003428:	d00e      	beq.n	8003448 <USBD_SetConfig+0x38>
 800342a:	2b03      	cmp	r3, #3
 800342c:	d023      	beq.n	8003476 <USBD_SetConfig+0x66>
        USBD_CtlError(pdev, req);
 800342e:	0029      	movs	r1, r5
 8003430:	f7ff fed8 	bl	80031e4 <USBD_CtlError>
        USBD_ClrClassConfig(pdev, cfgidx);
 8003434:	4b23      	ldr	r3, [pc, #140]	@ (80034c4 <USBD_SetConfig+0xb4>)
 8003436:	7819      	ldrb	r1, [r3, #0]
 8003438:	0020      	movs	r0, r4
 800343a:	f7ff fd4b 	bl	8002ed4 <USBD_ClrClassConfig>
        break;
 800343e:	e002      	b.n	8003446 <USBD_SetConfig+0x36>
    USBD_CtlError(pdev, req);
 8003440:	0029      	movs	r1, r5
 8003442:	f7ff fecf 	bl	80031e4 <USBD_CtlError>
}
 8003446:	bd70      	pop	{r4, r5, r6, pc}
        if (cfgidx)
 8003448:	2900      	cmp	r1, #0
 800344a:	d011      	beq.n	8003470 <USBD_SetConfig+0x60>
          pdev->dev_config = cfgidx;
 800344c:	6041      	str	r1, [r0, #4]
          pdev->dev_state = USBD_STATE_CONFIGURED;
 800344e:	23a7      	movs	r3, #167	@ 0xa7
 8003450:	009b      	lsls	r3, r3, #2
 8003452:	2203      	movs	r2, #3
 8003454:	54c2      	strb	r2, [r0, r3]
          if (USBD_SetClassConfig(pdev, cfgidx) == USBD_FAIL)
 8003456:	f7ff fd2e 	bl	8002eb6 <USBD_SetClassConfig>
 800345a:	2802      	cmp	r0, #2
 800345c:	d003      	beq.n	8003466 <USBD_SetConfig+0x56>
          USBD_CtlSendStatus(pdev);
 800345e:	0020      	movs	r0, r4
 8003460:	f000 fbbe 	bl	8003be0 <USBD_CtlSendStatus>
 8003464:	e7ef      	b.n	8003446 <USBD_SetConfig+0x36>
            USBD_CtlError(pdev, req);
 8003466:	0029      	movs	r1, r5
 8003468:	0020      	movs	r0, r4
 800346a:	f7ff febb 	bl	80031e4 <USBD_CtlError>
            return;
 800346e:	e7ea      	b.n	8003446 <USBD_SetConfig+0x36>
          USBD_CtlSendStatus(pdev);
 8003470:	f000 fbb6 	bl	8003be0 <USBD_CtlSendStatus>
 8003474:	e7e7      	b.n	8003446 <USBD_SetConfig+0x36>
        if (cfgidx == 0U)
 8003476:	2900      	cmp	r1, #0
 8003478:	d011      	beq.n	800349e <USBD_SetConfig+0x8e>
        else if (cfgidx != pdev->dev_config)
 800347a:	6843      	ldr	r3, [r0, #4]
 800347c:	4299      	cmp	r1, r3
 800347e:	d01e      	beq.n	80034be <USBD_SetConfig+0xae>
          USBD_ClrClassConfig(pdev, (uint8_t)pdev->dev_config);
 8003480:	b2d9      	uxtb	r1, r3
 8003482:	f7ff fd27 	bl	8002ed4 <USBD_ClrClassConfig>
          pdev->dev_config = cfgidx;
 8003486:	4b0f      	ldr	r3, [pc, #60]	@ (80034c4 <USBD_SetConfig+0xb4>)
 8003488:	7819      	ldrb	r1, [r3, #0]
 800348a:	6061      	str	r1, [r4, #4]
          if (USBD_SetClassConfig(pdev, cfgidx) == USBD_FAIL)
 800348c:	0020      	movs	r0, r4
 800348e:	f7ff fd12 	bl	8002eb6 <USBD_SetClassConfig>
 8003492:	2802      	cmp	r0, #2
 8003494:	d00e      	beq.n	80034b4 <USBD_SetConfig+0xa4>
          USBD_CtlSendStatus(pdev);
 8003496:	0020      	movs	r0, r4
 8003498:	f000 fba2 	bl	8003be0 <USBD_CtlSendStatus>
 800349c:	e7d3      	b.n	8003446 <USBD_SetConfig+0x36>
          pdev->dev_state = USBD_STATE_ADDRESSED;
 800349e:	23a7      	movs	r3, #167	@ 0xa7
 80034a0:	009b      	lsls	r3, r3, #2
 80034a2:	2202      	movs	r2, #2
 80034a4:	54c2      	strb	r2, [r0, r3]
          pdev->dev_config = cfgidx;
 80034a6:	6041      	str	r1, [r0, #4]
          USBD_ClrClassConfig(pdev, cfgidx);
 80034a8:	f7ff fd14 	bl	8002ed4 <USBD_ClrClassConfig>
          USBD_CtlSendStatus(pdev);
 80034ac:	0020      	movs	r0, r4
 80034ae:	f000 fb97 	bl	8003be0 <USBD_CtlSendStatus>
 80034b2:	e7c8      	b.n	8003446 <USBD_SetConfig+0x36>
            USBD_CtlError(pdev, req);
 80034b4:	0029      	movs	r1, r5
 80034b6:	0020      	movs	r0, r4
 80034b8:	f7ff fe94 	bl	80031e4 <USBD_CtlError>
            return;
 80034bc:	e7c3      	b.n	8003446 <USBD_SetConfig+0x36>
          USBD_CtlSendStatus(pdev);
 80034be:	f000 fb8f 	bl	8003be0 <USBD_CtlSendStatus>
 80034c2:	e7c0      	b.n	8003446 <USBD_SetConfig+0x36>
 80034c4:	2000072c 	.word	0x2000072c

080034c8 <USBD_GetConfig>:
{
 80034c8:	b510      	push	{r4, lr}
  if (req->wLength != 1U)
 80034ca:	88cb      	ldrh	r3, [r1, #6]
 80034cc:	2b01      	cmp	r3, #1
 80034ce:	d10b      	bne.n	80034e8 <USBD_GetConfig+0x20>
    switch (pdev->dev_state)
 80034d0:	23a7      	movs	r3, #167	@ 0xa7
 80034d2:	009b      	lsls	r3, r3, #2
 80034d4:	5cc3      	ldrb	r3, [r0, r3]
 80034d6:	2b02      	cmp	r3, #2
 80034d8:	d909      	bls.n	80034ee <USBD_GetConfig+0x26>
 80034da:	2b03      	cmp	r3, #3
 80034dc:	d111      	bne.n	8003502 <USBD_GetConfig+0x3a>
        USBD_CtlSendData(pdev, (uint8_t *)(void *)&pdev->dev_config, 1U);
 80034de:	1d01      	adds	r1, r0, #4
 80034e0:	2201      	movs	r2, #1
 80034e2:	f000 fb5f 	bl	8003ba4 <USBD_CtlSendData>
        break;
 80034e6:	e001      	b.n	80034ec <USBD_GetConfig+0x24>
    USBD_CtlError(pdev, req);
 80034e8:	f7ff fe7c 	bl	80031e4 <USBD_CtlError>
}
 80034ec:	bd10      	pop	{r4, pc}
    switch (pdev->dev_state)
 80034ee:	2b00      	cmp	r3, #0
 80034f0:	d007      	beq.n	8003502 <USBD_GetConfig+0x3a>
        pdev->dev_default_config = 0U;
 80034f2:	2300      	movs	r3, #0
 80034f4:	6083      	str	r3, [r0, #8]
        USBD_CtlSendData(pdev, (uint8_t *)(void *)&pdev->dev_default_config, 1U);
 80034f6:	0001      	movs	r1, r0
 80034f8:	3108      	adds	r1, #8
 80034fa:	2201      	movs	r2, #1
 80034fc:	f000 fb52 	bl	8003ba4 <USBD_CtlSendData>
        break;
 8003500:	e7f4      	b.n	80034ec <USBD_GetConfig+0x24>
        USBD_CtlError(pdev, req);
 8003502:	f7ff fe6f 	bl	80031e4 <USBD_CtlError>
}
 8003506:	e7f1      	b.n	80034ec <USBD_GetConfig+0x24>

08003508 <USBD_GetStatus>:
{
 8003508:	b510      	push	{r4, lr}
  switch (pdev->dev_state)
 800350a:	23a7      	movs	r3, #167	@ 0xa7
 800350c:	009b      	lsls	r3, r3, #2
 800350e:	5cc3      	ldrb	r3, [r0, r3]
 8003510:	3b01      	subs	r3, #1
 8003512:	2b02      	cmp	r3, #2
 8003514:	d814      	bhi.n	8003540 <USBD_GetStatus+0x38>
      if (req->wLength != 0x2U)
 8003516:	88cb      	ldrh	r3, [r1, #6]
 8003518:	2b02      	cmp	r3, #2
 800351a:	d10e      	bne.n	800353a <USBD_GetStatus+0x32>
      pdev->dev_config_status = USB_CONFIG_SELF_POWERED;
 800351c:	2301      	movs	r3, #1
 800351e:	60c3      	str	r3, [r0, #12]
      if (pdev->dev_remote_wakeup)
 8003520:	23a9      	movs	r3, #169	@ 0xa9
 8003522:	009b      	lsls	r3, r3, #2
 8003524:	58c3      	ldr	r3, [r0, r3]
 8003526:	2b00      	cmp	r3, #0
 8003528:	d001      	beq.n	800352e <USBD_GetStatus+0x26>
        pdev->dev_config_status |= USB_CONFIG_REMOTE_WAKEUP;
 800352a:	2303      	movs	r3, #3
 800352c:	60c3      	str	r3, [r0, #12]
      USBD_CtlSendData(pdev, (uint8_t *)(void *)&pdev->dev_config_status, 2U);
 800352e:	0001      	movs	r1, r0
 8003530:	310c      	adds	r1, #12
 8003532:	2202      	movs	r2, #2
 8003534:	f000 fb36 	bl	8003ba4 <USBD_CtlSendData>
}
 8003538:	bd10      	pop	{r4, pc}
        USBD_CtlError(pdev, req);
 800353a:	f7ff fe53 	bl	80031e4 <USBD_CtlError>
        break;
 800353e:	e7fb      	b.n	8003538 <USBD_GetStatus+0x30>
      USBD_CtlError(pdev, req);
 8003540:	f7ff fe50 	bl	80031e4 <USBD_CtlError>
}
 8003544:	e7f8      	b.n	8003538 <USBD_GetStatus+0x30>

08003546 <USBD_ClrFeature>:
{
 8003546:	b510      	push	{r4, lr}
  switch (pdev->dev_state)
 8003548:	23a7      	movs	r3, #167	@ 0xa7
 800354a:	009b      	lsls	r3, r3, #2
 800354c:	5cc3      	ldrb	r3, [r0, r3]
 800354e:	3b01      	subs	r3, #1
 8003550:	2b02      	cmp	r3, #2
 8003552:	d80a      	bhi.n	800356a <USBD_ClrFeature+0x24>
      if (req->wValue == USB_FEATURE_REMOTE_WAKEUP)
 8003554:	884b      	ldrh	r3, [r1, #2]
 8003556:	2b01      	cmp	r3, #1
 8003558:	d000      	beq.n	800355c <USBD_ClrFeature+0x16>
}
 800355a:	bd10      	pop	{r4, pc}
        pdev->dev_remote_wakeup = 0U;
 800355c:	23a9      	movs	r3, #169	@ 0xa9
 800355e:	009b      	lsls	r3, r3, #2
 8003560:	2200      	movs	r2, #0
 8003562:	50c2      	str	r2, [r0, r3]
        USBD_CtlSendStatus(pdev);
 8003564:	f000 fb3c 	bl	8003be0 <USBD_CtlSendStatus>
 8003568:	e7f7      	b.n	800355a <USBD_ClrFeature+0x14>
      USBD_CtlError(pdev, req);
 800356a:	f7ff fe3b 	bl	80031e4 <USBD_CtlError>
}
 800356e:	e7f4      	b.n	800355a <USBD_ClrFeature+0x14>

08003570 <USBD_StdDevReq>:
{
 8003570:	b510      	push	{r4, lr}
  switch (req->bmRequest & USB_REQ_TYPE_MASK)
 8003572:	780a      	ldrb	r2, [r1, #0]
 8003574:	2360      	movs	r3, #96	@ 0x60
 8003576:	4013      	ands	r3, r2
 8003578:	2b20      	cmp	r3, #32
 800357a:	d006      	beq.n	800358a <USBD_StdDevReq+0x1a>
 800357c:	2b40      	cmp	r3, #64	@ 0x40
 800357e:	d004      	beq.n	800358a <USBD_StdDevReq+0x1a>
 8003580:	2b00      	cmp	r3, #0
 8003582:	d009      	beq.n	8003598 <USBD_StdDevReq+0x28>
      USBD_CtlError(pdev, req);
 8003584:	f7ff fe2e 	bl	80031e4 <USBD_CtlError>
      break;
 8003588:	e004      	b.n	8003594 <USBD_StdDevReq+0x24>
      pdev->pClass->Setup(pdev, req);
 800358a:	23ad      	movs	r3, #173	@ 0xad
 800358c:	009b      	lsls	r3, r3, #2
 800358e:	58c3      	ldr	r3, [r0, r3]
 8003590:	689b      	ldr	r3, [r3, #8]
 8003592:	4798      	blx	r3
}
 8003594:	2000      	movs	r0, #0
 8003596:	bd10      	pop	{r4, pc}
      switch (req->bRequest)
 8003598:	784b      	ldrb	r3, [r1, #1]
 800359a:	2b09      	cmp	r3, #9
 800359c:	d818      	bhi.n	80035d0 <USBD_StdDevReq+0x60>
 800359e:	009b      	lsls	r3, r3, #2
 80035a0:	4a0d      	ldr	r2, [pc, #52]	@ (80035d8 <USBD_StdDevReq+0x68>)
 80035a2:	58d3      	ldr	r3, [r2, r3]
 80035a4:	469f      	mov	pc, r3
          USBD_GetDescriptor(pdev, req);
 80035a6:	f7ff fe27 	bl	80031f8 <USBD_GetDescriptor>
          break;
 80035aa:	e7f3      	b.n	8003594 <USBD_StdDevReq+0x24>
          USBD_SetAddress(pdev, req);
 80035ac:	f7ff ff00 	bl	80033b0 <USBD_SetAddress>
          break;
 80035b0:	e7f0      	b.n	8003594 <USBD_StdDevReq+0x24>
          USBD_SetConfig(pdev, req);
 80035b2:	f7ff ff2d 	bl	8003410 <USBD_SetConfig>
          break;
 80035b6:	e7ed      	b.n	8003594 <USBD_StdDevReq+0x24>
          USBD_GetConfig(pdev, req);
 80035b8:	f7ff ff86 	bl	80034c8 <USBD_GetConfig>
          break;
 80035bc:	e7ea      	b.n	8003594 <USBD_StdDevReq+0x24>
          USBD_GetStatus(pdev, req);
 80035be:	f7ff ffa3 	bl	8003508 <USBD_GetStatus>
          break;
 80035c2:	e7e7      	b.n	8003594 <USBD_StdDevReq+0x24>
          USBD_SetFeature(pdev, req);
 80035c4:	f7ff fdee 	bl	80031a4 <USBD_SetFeature>
          break;
 80035c8:	e7e4      	b.n	8003594 <USBD_StdDevReq+0x24>
          USBD_ClrFeature(pdev, req);
 80035ca:	f7ff ffbc 	bl	8003546 <USBD_ClrFeature>
          break;
 80035ce:	e7e1      	b.n	8003594 <USBD_StdDevReq+0x24>
          USBD_CtlError(pdev, req);
 80035d0:	f7ff fe08 	bl	80031e4 <USBD_CtlError>
          break;
 80035d4:	e7de      	b.n	8003594 <USBD_StdDevReq+0x24>
 80035d6:	46c0      	nop			@ (mov r8, r8)
 80035d8:	08003d6c 	.word	0x08003d6c

080035dc <USBD_StdItfReq>:
{
 80035dc:	b570      	push	{r4, r5, r6, lr}
 80035de:	0005      	movs	r5, r0
 80035e0:	000c      	movs	r4, r1
  switch (req->bmRequest & USB_REQ_TYPE_MASK)
 80035e2:	780a      	ldrb	r2, [r1, #0]
 80035e4:	2360      	movs	r3, #96	@ 0x60
 80035e6:	4013      	ands	r3, r2
 80035e8:	2b20      	cmp	r3, #32
 80035ea:	d007      	beq.n	80035fc <USBD_StdItfReq+0x20>
 80035ec:	2b40      	cmp	r3, #64	@ 0x40
 80035ee:	d005      	beq.n	80035fc <USBD_StdItfReq+0x20>
 80035f0:	2b00      	cmp	r3, #0
 80035f2:	d003      	beq.n	80035fc <USBD_StdItfReq+0x20>
      USBD_CtlError(pdev, req);
 80035f4:	f7ff fdf6 	bl	80031e4 <USBD_CtlError>
}
 80035f8:	2000      	movs	r0, #0
 80035fa:	bd70      	pop	{r4, r5, r6, pc}
      switch (pdev->dev_state)
 80035fc:	23a7      	movs	r3, #167	@ 0xa7
 80035fe:	009b      	lsls	r3, r3, #2
 8003600:	5ceb      	ldrb	r3, [r5, r3]
 8003602:	3b01      	subs	r3, #1
 8003604:	2b02      	cmp	r3, #2
 8003606:	d817      	bhi.n	8003638 <USBD_StdItfReq+0x5c>
          if (LOBYTE(req->wIndex) <= USBD_MAX_NUM_INTERFACES)
 8003608:	7923      	ldrb	r3, [r4, #4]
 800360a:	2b01      	cmp	r3, #1
 800360c:	d80f      	bhi.n	800362e <USBD_StdItfReq+0x52>
            ret = (USBD_StatusTypeDef)pdev->pClass->Setup(pdev, req);
 800360e:	23ad      	movs	r3, #173	@ 0xad
 8003610:	009b      	lsls	r3, r3, #2
 8003612:	58eb      	ldr	r3, [r5, r3]
 8003614:	689b      	ldr	r3, [r3, #8]
 8003616:	0021      	movs	r1, r4
 8003618:	0028      	movs	r0, r5
 800361a:	4798      	blx	r3
            if ((req->wLength == 0U) && (ret == USBD_OK))
 800361c:	88e3      	ldrh	r3, [r4, #6]
 800361e:	2b00      	cmp	r3, #0
 8003620:	d1ea      	bne.n	80035f8 <USBD_StdItfReq+0x1c>
 8003622:	2800      	cmp	r0, #0
 8003624:	d1e8      	bne.n	80035f8 <USBD_StdItfReq+0x1c>
              USBD_CtlSendStatus(pdev);
 8003626:	0028      	movs	r0, r5
 8003628:	f000 fada 	bl	8003be0 <USBD_CtlSendStatus>
 800362c:	e7e4      	b.n	80035f8 <USBD_StdItfReq+0x1c>
            USBD_CtlError(pdev, req);
 800362e:	0021      	movs	r1, r4
 8003630:	0028      	movs	r0, r5
 8003632:	f7ff fdd7 	bl	80031e4 <USBD_CtlError>
 8003636:	e7df      	b.n	80035f8 <USBD_StdItfReq+0x1c>
          USBD_CtlError(pdev, req);
 8003638:	0021      	movs	r1, r4
 800363a:	0028      	movs	r0, r5
 800363c:	f7ff fdd2 	bl	80031e4 <USBD_CtlError>
          break;
 8003640:	e7da      	b.n	80035f8 <USBD_StdItfReq+0x1c>

08003642 <USBD_StdEPReq>:
{
 8003642:	b570      	push	{r4, r5, r6, lr}
 8003644:	0005      	movs	r5, r0
  ep_addr  = LOBYTE(req->wIndex);
 8003646:	8888      	ldrh	r0, [r1, #4]
 8003648:	790a      	ldrb	r2, [r1, #4]
  switch (req->bmRequest & USB_REQ_TYPE_MASK)
 800364a:	780b      	ldrb	r3, [r1, #0]
 800364c:	2460      	movs	r4, #96	@ 0x60
 800364e:	401c      	ands	r4, r3
 8003650:	2c20      	cmp	r4, #32
 8003652:	d008      	beq.n	8003666 <USBD_StdEPReq+0x24>
 8003654:	2c40      	cmp	r4, #64	@ 0x40
 8003656:	d006      	beq.n	8003666 <USBD_StdEPReq+0x24>
 8003658:	2c00      	cmp	r4, #0
 800365a:	d00d      	beq.n	8003678 <USBD_StdEPReq+0x36>
      USBD_CtlError(pdev, req);
 800365c:	0028      	movs	r0, r5
 800365e:	f7ff fdc1 	bl	80031e4 <USBD_CtlError>
  return ret;
 8003662:	2400      	movs	r4, #0
      break;
 8003664:	e006      	b.n	8003674 <USBD_StdEPReq+0x32>
      pdev->pClass->Setup(pdev, req);
 8003666:	23ad      	movs	r3, #173	@ 0xad
 8003668:	009b      	lsls	r3, r3, #2
 800366a:	58eb      	ldr	r3, [r5, r3]
 800366c:	689b      	ldr	r3, [r3, #8]
 800366e:	0028      	movs	r0, r5
 8003670:	4798      	blx	r3
  return ret;
 8003672:	2400      	movs	r4, #0
}
 8003674:	0020      	movs	r0, r4
 8003676:	bd70      	pop	{r4, r5, r6, pc}
      if ((req->bmRequest & 0x60U) == 0x20U)
 8003678:	2c20      	cmp	r4, #32
 800367a:	d00a      	beq.n	8003692 <USBD_StdEPReq+0x50>
      switch (req->bRequest)
 800367c:	784e      	ldrb	r6, [r1, #1]
 800367e:	2e01      	cmp	r6, #1
 8003680:	d03e      	beq.n	8003700 <USBD_StdEPReq+0xbe>
 8003682:	2e03      	cmp	r6, #3
 8003684:	d00d      	beq.n	80036a2 <USBD_StdEPReq+0x60>
 8003686:	2e00      	cmp	r6, #0
 8003688:	d064      	beq.n	8003754 <USBD_StdEPReq+0x112>
          USBD_CtlError(pdev, req);
 800368a:	0028      	movs	r0, r5
 800368c:	f7ff fdaa 	bl	80031e4 <USBD_CtlError>
          break;
 8003690:	e7f0      	b.n	8003674 <USBD_StdEPReq+0x32>
        ret = (USBD_StatusTypeDef)pdev->pClass->Setup(pdev, req);
 8003692:	23ad      	movs	r3, #173	@ 0xad
 8003694:	009b      	lsls	r3, r3, #2
 8003696:	58eb      	ldr	r3, [r5, r3]
 8003698:	689b      	ldr	r3, [r3, #8]
 800369a:	0028      	movs	r0, r5
 800369c:	4798      	blx	r3
 800369e:	0004      	movs	r4, r0
        return ret;
 80036a0:	e7e8      	b.n	8003674 <USBD_StdEPReq+0x32>
          switch (pdev->dev_state)
 80036a2:	23a7      	movs	r3, #167	@ 0xa7
 80036a4:	009b      	lsls	r3, r3, #2
 80036a6:	5ceb      	ldrb	r3, [r5, r3]
 80036a8:	2b02      	cmp	r3, #2
 80036aa:	d005      	beq.n	80036b8 <USBD_StdEPReq+0x76>
 80036ac:	2b03      	cmp	r3, #3
 80036ae:	d014      	beq.n	80036da <USBD_StdEPReq+0x98>
              USBD_CtlError(pdev, req);
 80036b0:	0028      	movs	r0, r5
 80036b2:	f7ff fd97 	bl	80031e4 <USBD_CtlError>
              break;
 80036b6:	e7dd      	b.n	8003674 <USBD_StdEPReq+0x32>
              if ((ep_addr != 0x00U) && (ep_addr != 0x80U))
 80036b8:	2a00      	cmp	r2, #0
 80036ba:	d001      	beq.n	80036c0 <USBD_StdEPReq+0x7e>
 80036bc:	2a80      	cmp	r2, #128	@ 0x80
 80036be:	d103      	bne.n	80036c8 <USBD_StdEPReq+0x86>
                USBD_CtlError(pdev, req);
 80036c0:	0028      	movs	r0, r5
 80036c2:	f7ff fd8f 	bl	80031e4 <USBD_CtlError>
 80036c6:	e7d5      	b.n	8003674 <USBD_StdEPReq+0x32>
                USBD_LL_StallEP(pdev, ep_addr);
 80036c8:	0011      	movs	r1, r2
 80036ca:	0028      	movs	r0, r5
 80036cc:	f7ff fb7e 	bl	8002dcc <USBD_LL_StallEP>
                USBD_LL_StallEP(pdev, 0x80U);
 80036d0:	2180      	movs	r1, #128	@ 0x80
 80036d2:	0028      	movs	r0, r5
 80036d4:	f7ff fb7a 	bl	8002dcc <USBD_LL_StallEP>
 80036d8:	e7cc      	b.n	8003674 <USBD_StdEPReq+0x32>
              if (req->wValue == USB_FEATURE_EP_HALT)
 80036da:	884b      	ldrh	r3, [r1, #2]
 80036dc:	2b00      	cmp	r3, #0
 80036de:	d106      	bne.n	80036ee <USBD_StdEPReq+0xac>
                if ((ep_addr != 0x00U) &&
 80036e0:	2a00      	cmp	r2, #0
 80036e2:	d004      	beq.n	80036ee <USBD_StdEPReq+0xac>
 80036e4:	2a80      	cmp	r2, #128	@ 0x80
 80036e6:	d002      	beq.n	80036ee <USBD_StdEPReq+0xac>
                    (ep_addr != 0x80U) && (req->wLength == 0x00U))
 80036e8:	88cb      	ldrh	r3, [r1, #6]
 80036ea:	2b00      	cmp	r3, #0
 80036ec:	d003      	beq.n	80036f6 <USBD_StdEPReq+0xb4>
              USBD_CtlSendStatus(pdev);
 80036ee:	0028      	movs	r0, r5
 80036f0:	f000 fa76 	bl	8003be0 <USBD_CtlSendStatus>
              break;
 80036f4:	e7be      	b.n	8003674 <USBD_StdEPReq+0x32>
                  USBD_LL_StallEP(pdev, ep_addr);
 80036f6:	0011      	movs	r1, r2
 80036f8:	0028      	movs	r0, r5
 80036fa:	f7ff fb67 	bl	8002dcc <USBD_LL_StallEP>
 80036fe:	e7f6      	b.n	80036ee <USBD_StdEPReq+0xac>
          switch (pdev->dev_state)
 8003700:	23a7      	movs	r3, #167	@ 0xa7
 8003702:	009b      	lsls	r3, r3, #2
 8003704:	5ceb      	ldrb	r3, [r5, r3]
 8003706:	2b02      	cmp	r3, #2
 8003708:	d005      	beq.n	8003716 <USBD_StdEPReq+0xd4>
 800370a:	2b03      	cmp	r3, #3
 800370c:	d014      	beq.n	8003738 <USBD_StdEPReq+0xf6>
              USBD_CtlError(pdev, req);
 800370e:	0028      	movs	r0, r5
 8003710:	f7ff fd68 	bl	80031e4 <USBD_CtlError>
              break;
 8003714:	e7ae      	b.n	8003674 <USBD_StdEPReq+0x32>
              if ((ep_addr != 0x00U) && (ep_addr != 0x80U))
 8003716:	2a00      	cmp	r2, #0
 8003718:	d001      	beq.n	800371e <USBD_StdEPReq+0xdc>
 800371a:	2a80      	cmp	r2, #128	@ 0x80
 800371c:	d103      	bne.n	8003726 <USBD_StdEPReq+0xe4>
                USBD_CtlError(pdev, req);
 800371e:	0028      	movs	r0, r5
 8003720:	f7ff fd60 	bl	80031e4 <USBD_CtlError>
 8003724:	e7a6      	b.n	8003674 <USBD_StdEPReq+0x32>
                USBD_LL_StallEP(pdev, ep_addr);
 8003726:	0011      	movs	r1, r2
 8003728:	0028      	movs	r0, r5
 800372a:	f7ff fb4f 	bl	8002dcc <USBD_LL_StallEP>
                USBD_LL_StallEP(pdev, 0x80U);
 800372e:	2180      	movs	r1, #128	@ 0x80
 8003730:	0028      	movs	r0, r5
 8003732:	f7ff fb4b 	bl	8002dcc <USBD_LL_StallEP>
 8003736:	e79d      	b.n	8003674 <USBD_StdEPReq+0x32>
              if (req->wValue == USB_FEATURE_EP_HALT)
 8003738:	884b      	ldrh	r3, [r1, #2]
 800373a:	2b00      	cmp	r3, #0
 800373c:	d19a      	bne.n	8003674 <USBD_StdEPReq+0x32>
                if ((ep_addr & 0x7FU) != 0x00U)
 800373e:	0653      	lsls	r3, r2, #25
 8003740:	d103      	bne.n	800374a <USBD_StdEPReq+0x108>
                USBD_CtlSendStatus(pdev);
 8003742:	0028      	movs	r0, r5
 8003744:	f000 fa4c 	bl	8003be0 <USBD_CtlSendStatus>
 8003748:	e794      	b.n	8003674 <USBD_StdEPReq+0x32>
                  USBD_LL_ClearStallEP(pdev, ep_addr);
 800374a:	0011      	movs	r1, r2
 800374c:	0028      	movs	r0, r5
 800374e:	f7ff fb46 	bl	8002dde <USBD_LL_ClearStallEP>
 8003752:	e7f6      	b.n	8003742 <USBD_StdEPReq+0x100>
          switch (pdev->dev_state)
 8003754:	23a7      	movs	r3, #167	@ 0xa7
 8003756:	009b      	lsls	r3, r3, #2
 8003758:	5ceb      	ldrb	r3, [r5, r3]
 800375a:	2b02      	cmp	r3, #2
 800375c:	d006      	beq.n	800376c <USBD_StdEPReq+0x12a>
 800375e:	2b03      	cmp	r3, #3
 8003760:	d029      	beq.n	80037b6 <USBD_StdEPReq+0x174>
              USBD_CtlError(pdev, req);
 8003762:	0028      	movs	r0, r5
 8003764:	f7ff fd3e 	bl	80031e4 <USBD_CtlError>
  return ret;
 8003768:	0034      	movs	r4, r6
              break;
 800376a:	e783      	b.n	8003674 <USBD_StdEPReq+0x32>
              if ((ep_addr != 0x00U) && (ep_addr != 0x80U))
 800376c:	2a00      	cmp	r2, #0
 800376e:	d001      	beq.n	8003774 <USBD_StdEPReq+0x132>
 8003770:	2a80      	cmp	r2, #128	@ 0x80
 8003772:	d112      	bne.n	800379a <USBD_StdEPReq+0x158>
              pep = ((ep_addr & 0x80U) == 0x80U) ? &pdev->ep_in[ep_addr & 0x7FU] : \
 8003774:	0600      	lsls	r0, r0, #24
 8003776:	d415      	bmi.n	80037a4 <USBD_StdEPReq+0x162>
                    &pdev->ep_out[ep_addr & 0x7FU];
 8003778:	237f      	movs	r3, #127	@ 0x7f
 800377a:	4013      	ands	r3, r2
              pep = ((ep_addr & 0x80U) == 0x80U) ? &pdev->ep_in[ep_addr & 0x7FU] : \
 800377c:	0099      	lsls	r1, r3, #2
 800377e:	18c9      	adds	r1, r1, r3
 8003780:	0089      	lsls	r1, r1, #2
 8003782:	3151      	adds	r1, #81	@ 0x51
 8003784:	31ff      	adds	r1, #255	@ 0xff
 8003786:	1869      	adds	r1, r5, r1
 8003788:	3104      	adds	r1, #4
              pep->status = 0x0000U;
 800378a:	2300      	movs	r3, #0
 800378c:	600b      	str	r3, [r1, #0]
              USBD_CtlSendData(pdev, (uint8_t *)(void *)&pep->status, 2U);
 800378e:	2202      	movs	r2, #2
 8003790:	0028      	movs	r0, r5
 8003792:	f000 fa07 	bl	8003ba4 <USBD_CtlSendData>
  return ret;
 8003796:	0034      	movs	r4, r6
              break;
 8003798:	e76c      	b.n	8003674 <USBD_StdEPReq+0x32>
                USBD_CtlError(pdev, req);
 800379a:	0028      	movs	r0, r5
 800379c:	f7ff fd22 	bl	80031e4 <USBD_CtlError>
  return ret;
 80037a0:	0034      	movs	r4, r6
                break;
 80037a2:	e767      	b.n	8003674 <USBD_StdEPReq+0x32>
              pep = ((ep_addr & 0x80U) == 0x80U) ? &pdev->ep_in[ep_addr & 0x7FU] : \
 80037a4:	237f      	movs	r3, #127	@ 0x7f
 80037a6:	4013      	ands	r3, r2
 80037a8:	0099      	lsls	r1, r3, #2
 80037aa:	18c9      	adds	r1, r1, r3
 80037ac:	0089      	lsls	r1, r1, #2
 80037ae:	3110      	adds	r1, #16
 80037b0:	1869      	adds	r1, r5, r1
 80037b2:	3104      	adds	r1, #4
 80037b4:	e7e9      	b.n	800378a <USBD_StdEPReq+0x148>
              if ((ep_addr & 0x80U) == 0x80U)
 80037b6:	b244      	sxtb	r4, r0
 80037b8:	0600      	lsls	r0, r0, #24
 80037ba:	d422      	bmi.n	8003802 <USBD_StdEPReq+0x1c0>
                if (pdev->ep_out[ep_addr & 0xFU].is_used == 0U)
 80037bc:	200f      	movs	r0, #15
 80037be:	4010      	ands	r0, r2
 80037c0:	0083      	lsls	r3, r0, #2
 80037c2:	181b      	adds	r3, r3, r0
 80037c4:	009b      	lsls	r3, r3, #2
 80037c6:	18eb      	adds	r3, r5, r3
 80037c8:	3359      	adds	r3, #89	@ 0x59
 80037ca:	33ff      	adds	r3, #255	@ 0xff
 80037cc:	681b      	ldr	r3, [r3, #0]
 80037ce:	2b00      	cmp	r3, #0
 80037d0:	d025      	beq.n	800381e <USBD_StdEPReq+0x1dc>
              pep = ((ep_addr & 0x80U) == 0x80U) ? &pdev->ep_in[ep_addr & 0x7FU] : \
 80037d2:	2c00      	cmp	r4, #0
 80037d4:	db28      	blt.n	8003828 <USBD_StdEPReq+0x1e6>
                    &pdev->ep_out[ep_addr & 0x7FU];
 80037d6:	237f      	movs	r3, #127	@ 0x7f
 80037d8:	4013      	ands	r3, r2
              pep = ((ep_addr & 0x80U) == 0x80U) ? &pdev->ep_in[ep_addr & 0x7FU] : \
 80037da:	009c      	lsls	r4, r3, #2
 80037dc:	18e4      	adds	r4, r4, r3
 80037de:	00a4      	lsls	r4, r4, #2
 80037e0:	3451      	adds	r4, #81	@ 0x51
 80037e2:	34ff      	adds	r4, #255	@ 0xff
 80037e4:	192c      	adds	r4, r5, r4
 80037e6:	3404      	adds	r4, #4
              if ((ep_addr == 0x00U) || (ep_addr == 0x80U))
 80037e8:	2a00      	cmp	r2, #0
 80037ea:	d001      	beq.n	80037f0 <USBD_StdEPReq+0x1ae>
 80037ec:	2a80      	cmp	r2, #128	@ 0x80
 80037ee:	d124      	bne.n	800383a <USBD_StdEPReq+0x1f8>
                pep->status = 0x0000U;
 80037f0:	2300      	movs	r3, #0
 80037f2:	6023      	str	r3, [r4, #0]
              USBD_CtlSendData(pdev, (uint8_t *)(void *)&pep->status, 2U);
 80037f4:	2202      	movs	r2, #2
 80037f6:	0021      	movs	r1, r4
 80037f8:	0028      	movs	r0, r5
 80037fa:	f000 f9d3 	bl	8003ba4 <USBD_CtlSendData>
  return ret;
 80037fe:	0034      	movs	r4, r6
              break;
 8003800:	e738      	b.n	8003674 <USBD_StdEPReq+0x32>
                if (pdev->ep_in[ep_addr & 0xFU].is_used == 0U)
 8003802:	200f      	movs	r0, #15
 8003804:	4010      	ands	r0, r2
 8003806:	0083      	lsls	r3, r0, #2
 8003808:	181b      	adds	r3, r3, r0
 800380a:	009b      	lsls	r3, r3, #2
 800380c:	18eb      	adds	r3, r5, r3
 800380e:	699b      	ldr	r3, [r3, #24]
 8003810:	2b00      	cmp	r3, #0
 8003812:	d1de      	bne.n	80037d2 <USBD_StdEPReq+0x190>
                  USBD_CtlError(pdev, req);
 8003814:	0028      	movs	r0, r5
 8003816:	f7ff fce5 	bl	80031e4 <USBD_CtlError>
  return ret;
 800381a:	0034      	movs	r4, r6
                  break;
 800381c:	e72a      	b.n	8003674 <USBD_StdEPReq+0x32>
                  USBD_CtlError(pdev, req);
 800381e:	0028      	movs	r0, r5
 8003820:	f7ff fce0 	bl	80031e4 <USBD_CtlError>
  return ret;
 8003824:	0034      	movs	r4, r6
                  break;
 8003826:	e725      	b.n	8003674 <USBD_StdEPReq+0x32>
              pep = ((ep_addr & 0x80U) == 0x80U) ? &pdev->ep_in[ep_addr & 0x7FU] : \
 8003828:	237f      	movs	r3, #127	@ 0x7f
 800382a:	4013      	ands	r3, r2
 800382c:	009c      	lsls	r4, r3, #2
 800382e:	18e4      	adds	r4, r4, r3
 8003830:	00a4      	lsls	r4, r4, #2
 8003832:	3410      	adds	r4, #16
 8003834:	192c      	adds	r4, r5, r4
 8003836:	3404      	adds	r4, #4
 8003838:	e7d6      	b.n	80037e8 <USBD_StdEPReq+0x1a6>
              else if (USBD_LL_IsStallEP(pdev, ep_addr))
 800383a:	0011      	movs	r1, r2
 800383c:	0028      	movs	r0, r5
 800383e:	f7ff fad7 	bl	8002df0 <USBD_LL_IsStallEP>
 8003842:	2800      	cmp	r0, #0
 8003844:	d002      	beq.n	800384c <USBD_StdEPReq+0x20a>
                pep->status = 0x0001U;
 8003846:	2301      	movs	r3, #1
 8003848:	6023      	str	r3, [r4, #0]
 800384a:	e7d3      	b.n	80037f4 <USBD_StdEPReq+0x1b2>
                pep->status = 0x0000U;
 800384c:	2300      	movs	r3, #0
 800384e:	6023      	str	r3, [r4, #0]
 8003850:	e7d0      	b.n	80037f4 <USBD_StdEPReq+0x1b2>

08003852 <USBD_GetString>:
{
 8003852:	b570      	push	{r4, r5, r6, lr}
 8003854:	0004      	movs	r4, r0
 8003856:	000d      	movs	r5, r1
 8003858:	0016      	movs	r6, r2
  if (desc != NULL)
 800385a:	2800      	cmp	r0, #0
 800385c:	d016      	beq.n	800388c <USBD_GetString+0x3a>
    *len = (uint16_t)USBD_GetLen(desc) * 2U + 2U;
 800385e:	f7ff fc97 	bl	8003190 <USBD_GetLen>
 8003862:	3001      	adds	r0, #1
 8003864:	0043      	lsls	r3, r0, #1
 8003866:	b29b      	uxth	r3, r3
 8003868:	8033      	strh	r3, [r6, #0]
    unicode[idx++] = *(uint8_t *)(void *)len;
 800386a:	702b      	strb	r3, [r5, #0]
    unicode[idx++] = USB_DESC_TYPE_STRING;
 800386c:	2303      	movs	r3, #3
 800386e:	706b      	strb	r3, [r5, #1]
 8003870:	3b01      	subs	r3, #1
    while (*desc != '\0')
 8003872:	e008      	b.n	8003886 <USBD_GetString+0x34>
      unicode[idx++] = *desc++;
 8003874:	3401      	adds	r4, #1
 8003876:	1c5a      	adds	r2, r3, #1
 8003878:	b2d2      	uxtb	r2, r2
 800387a:	54e8      	strb	r0, [r5, r3]
      unicode[idx++] =  0U;
 800387c:	3302      	adds	r3, #2
 800387e:	b2db      	uxtb	r3, r3
 8003880:	18aa      	adds	r2, r5, r2
 8003882:	2100      	movs	r1, #0
 8003884:	7011      	strb	r1, [r2, #0]
    while (*desc != '\0')
 8003886:	7820      	ldrb	r0, [r4, #0]
 8003888:	2800      	cmp	r0, #0
 800388a:	d1f3      	bne.n	8003874 <USBD_GetString+0x22>
}
 800388c:	bd70      	pop	{r4, r5, r6, pc}
	...

08003890 <USBD_FS_DeviceDescriptor>:
  * @retval Pointer to descriptor buffer
  */
uint8_t * USBD_FS_DeviceDescriptor(USBD_SpeedTypeDef speed, uint16_t *length)
{
  UNUSED(speed);
  *length = sizeof(USBD_FS_DeviceDesc);
 8003890:	2312      	movs	r3, #18
 8003892:	800b      	strh	r3, [r1, #0]
  return USBD_FS_DeviceDesc;
 8003894:	4800      	ldr	r0, [pc, #0]	@ (8003898 <USBD_FS_DeviceDescriptor+0x8>)
}
 8003896:	4770      	bx	lr
 8003898:	2000002c 	.word	0x2000002c

0800389c <USBD_FS_LangIDStrDescriptor>:
  * @retval Pointer to descriptor buffer
  */
uint8_t * USBD_FS_LangIDStrDescriptor(USBD_SpeedTypeDef speed, uint16_t *length)
{
  UNUSED(speed);
  *length = sizeof(USBD_LangIDDesc);
 800389c:	2304      	movs	r3, #4
 800389e:	800b      	strh	r3, [r1, #0]
  return USBD_LangIDDesc;
 80038a0:	4800      	ldr	r0, [pc, #0]	@ (80038a4 <USBD_FS_LangIDStrDescriptor+0x8>)
}
 80038a2:	4770      	bx	lr
 80038a4:	20000028 	.word	0x20000028

080038a8 <IntToUnicode>:
  * @param  pbuf: pointer to the buffer
  * @param  len: buffer length
  * @retval None
  */
static void IntToUnicode(uint32_t value, uint8_t * pbuf, uint8_t len)
{
 80038a8:	b530      	push	{r4, r5, lr}
  uint8_t idx = 0;

  for (idx = 0; idx < len; idx++)
 80038aa:	2300      	movs	r3, #0
 80038ac:	e00a      	b.n	80038c4 <IntToUnicode+0x1c>
    {
      pbuf[2 * idx] = (value >> 28) + '0';
    }
    else
    {
      pbuf[2 * idx] = (value >> 28) + 'A' - 10;
 80038ae:	005d      	lsls	r5, r3, #1
 80038b0:	3437      	adds	r4, #55	@ 0x37
 80038b2:	554c      	strb	r4, [r1, r5]
    }

    value = value << 4;
 80038b4:	0100      	lsls	r0, r0, #4

    pbuf[2 * idx + 1] = 0;
 80038b6:	005c      	lsls	r4, r3, #1
 80038b8:	3401      	adds	r4, #1
 80038ba:	190c      	adds	r4, r1, r4
 80038bc:	2500      	movs	r5, #0
 80038be:	7025      	strb	r5, [r4, #0]
  for (idx = 0; idx < len; idx++)
 80038c0:	3301      	adds	r3, #1
 80038c2:	b2db      	uxtb	r3, r3
 80038c4:	4293      	cmp	r3, r2
 80038c6:	d206      	bcs.n	80038d6 <IntToUnicode+0x2e>
    if (((value >> 28)) < 0xA)
 80038c8:	0f04      	lsrs	r4, r0, #28
 80038ca:	2c09      	cmp	r4, #9
 80038cc:	d8ef      	bhi.n	80038ae <IntToUnicode+0x6>
      pbuf[2 * idx] = (value >> 28) + '0';
 80038ce:	005d      	lsls	r5, r3, #1
 80038d0:	3430      	adds	r4, #48	@ 0x30
 80038d2:	554c      	strb	r4, [r1, r5]
 80038d4:	e7ee      	b.n	80038b4 <IntToUnicode+0xc>
  }
}
 80038d6:	bd30      	pop	{r4, r5, pc}

080038d8 <Get_SerialNum>:
{
 80038d8:	b570      	push	{r4, r5, r6, lr}
  deviceserial0 = *(uint32_t *) DEVICE_ID1;
 80038da:	4b0b      	ldr	r3, [pc, #44]	@ (8003908 <Get_SerialNum+0x30>)
 80038dc:	6818      	ldr	r0, [r3, #0]
  deviceserial1 = *(uint32_t *) DEVICE_ID2;
 80038de:	4b0b      	ldr	r3, [pc, #44]	@ (800390c <Get_SerialNum+0x34>)
 80038e0:	681d      	ldr	r5, [r3, #0]
  deviceserial2 = *(uint32_t *) DEVICE_ID3;
 80038e2:	4b0b      	ldr	r3, [pc, #44]	@ (8003910 <Get_SerialNum+0x38>)
 80038e4:	681b      	ldr	r3, [r3, #0]
  deviceserial0 += deviceserial2;
 80038e6:	18c0      	adds	r0, r0, r3
  if (deviceserial0 != 0)
 80038e8:	2800      	cmp	r0, #0
 80038ea:	d100      	bne.n	80038ee <Get_SerialNum+0x16>
}
 80038ec:	bd70      	pop	{r4, r5, r6, pc}
    IntToUnicode(deviceserial0, &USBD_StringSerial[2], 8);
 80038ee:	4c09      	ldr	r4, [pc, #36]	@ (8003914 <Get_SerialNum+0x3c>)
 80038f0:	2208      	movs	r2, #8
 80038f2:	0021      	movs	r1, r4
 80038f4:	f7ff ffd8 	bl	80038a8 <IntToUnicode>
    IntToUnicode(deviceserial1, &USBD_StringSerial[18], 4);
 80038f8:	0021      	movs	r1, r4
 80038fa:	3110      	adds	r1, #16
 80038fc:	2204      	movs	r2, #4
 80038fe:	0028      	movs	r0, r5
 8003900:	f7ff ffd2 	bl	80038a8 <IntToUnicode>
}
 8003904:	e7f2      	b.n	80038ec <Get_SerialNum+0x14>
 8003906:	46c0      	nop			@ (mov r8, r8)
 8003908:	1ffff7ac 	.word	0x1ffff7ac
 800390c:	1ffff7b0 	.word	0x1ffff7b0
 8003910:	1ffff7b4 	.word	0x1ffff7b4
 8003914:	2000000e 	.word	0x2000000e

08003918 <USBD_FS_SerialStrDescriptor>:
{
 8003918:	b510      	push	{r4, lr}
  *length = USB_SIZ_STRING_SERIAL;
 800391a:	231a      	movs	r3, #26
 800391c:	800b      	strh	r3, [r1, #0]
  Get_SerialNum();
 800391e:	f7ff ffdb 	bl	80038d8 <Get_SerialNum>
  return (uint8_t *) USBD_StringSerial;
 8003922:	4801      	ldr	r0, [pc, #4]	@ (8003928 <USBD_FS_SerialStrDescriptor+0x10>)
}
 8003924:	bd10      	pop	{r4, pc}
 8003926:	46c0      	nop			@ (mov r8, r8)
 8003928:	2000000c 	.word	0x2000000c

0800392c <USBD_FS_ProductStrDescriptor>:
{
 800392c:	b510      	push	{r4, lr}
 800392e:	000a      	movs	r2, r1
  if(speed == 0)
 8003930:	2800      	cmp	r0, #0
 8003932:	d105      	bne.n	8003940 <USBD_FS_ProductStrDescriptor+0x14>
    USBD_GetString((uint8_t *)USBD_PRODUCT_STRING_FS, USBD_StrDesc, length);
 8003934:	4905      	ldr	r1, [pc, #20]	@ (800394c <USBD_FS_ProductStrDescriptor+0x20>)
 8003936:	4806      	ldr	r0, [pc, #24]	@ (8003950 <USBD_FS_ProductStrDescriptor+0x24>)
 8003938:	f7ff ff8b 	bl	8003852 <USBD_GetString>
  return USBD_StrDesc;
 800393c:	4803      	ldr	r0, [pc, #12]	@ (800394c <USBD_FS_ProductStrDescriptor+0x20>)
}
 800393e:	bd10      	pop	{r4, pc}
    USBD_GetString((uint8_t *)USBD_PRODUCT_STRING_FS, USBD_StrDesc, length);
 8003940:	4902      	ldr	r1, [pc, #8]	@ (800394c <USBD_FS_ProductStrDescriptor+0x20>)
 8003942:	4803      	ldr	r0, [pc, #12]	@ (8003950 <USBD_FS_ProductStrDescriptor+0x24>)
 8003944:	f7ff ff85 	bl	8003852 <USBD_GetString>
 8003948:	e7f8      	b.n	800393c <USBD_FS_ProductStrDescriptor+0x10>
 800394a:	46c0      	nop			@ (mov r8, r8)
 800394c:	20000730 	.word	0x20000730
 8003950:	08003d94 	.word	0x08003d94

08003954 <USBD_FS_ManufacturerStrDescriptor>:
{
 8003954:	b510      	push	{r4, lr}
 8003956:	000a      	movs	r2, r1
  USBD_GetString((uint8_t *)USBD_MANUFACTURER_STRING, USBD_StrDesc, length);
 8003958:	4c03      	ldr	r4, [pc, #12]	@ (8003968 <USBD_FS_ManufacturerStrDescriptor+0x14>)
 800395a:	4804      	ldr	r0, [pc, #16]	@ (800396c <USBD_FS_ManufacturerStrDescriptor+0x18>)
 800395c:	0021      	movs	r1, r4
 800395e:	f7ff ff78 	bl	8003852 <USBD_GetString>
}
 8003962:	0020      	movs	r0, r4
 8003964:	bd10      	pop	{r4, pc}
 8003966:	46c0      	nop			@ (mov r8, r8)
 8003968:	20000730 	.word	0x20000730
 800396c:	08003da0 	.word	0x08003da0

08003970 <USBD_FS_ConfigStrDescriptor>:
{
 8003970:	b510      	push	{r4, lr}
 8003972:	000a      	movs	r2, r1
  if(speed == USBD_SPEED_HIGH)
 8003974:	2800      	cmp	r0, #0
 8003976:	d105      	bne.n	8003984 <USBD_FS_ConfigStrDescriptor+0x14>
    USBD_GetString((uint8_t *)USBD_CONFIGURATION_STRING_FS, USBD_StrDesc, length);
 8003978:	4905      	ldr	r1, [pc, #20]	@ (8003990 <USBD_FS_ConfigStrDescriptor+0x20>)
 800397a:	4806      	ldr	r0, [pc, #24]	@ (8003994 <USBD_FS_ConfigStrDescriptor+0x24>)
 800397c:	f7ff ff69 	bl	8003852 <USBD_GetString>
  return USBD_StrDesc;
 8003980:	4803      	ldr	r0, [pc, #12]	@ (8003990 <USBD_FS_ConfigStrDescriptor+0x20>)
}
 8003982:	bd10      	pop	{r4, pc}
    USBD_GetString((uint8_t *)USBD_CONFIGURATION_STRING_FS, USBD_StrDesc, length);
 8003984:	4902      	ldr	r1, [pc, #8]	@ (8003990 <USBD_FS_ConfigStrDescriptor+0x20>)
 8003986:	4803      	ldr	r0, [pc, #12]	@ (8003994 <USBD_FS_ConfigStrDescriptor+0x24>)
 8003988:	f7ff ff63 	bl	8003852 <USBD_GetString>
 800398c:	e7f8      	b.n	8003980 <USBD_FS_ConfigStrDescriptor+0x10>
 800398e:	46c0      	nop			@ (mov r8, r8)
 8003990:	20000730 	.word	0x20000730
 8003994:	08003da8 	.word	0x08003da8

08003998 <USBD_FS_InterfaceStrDescriptor>:
{
 8003998:	b510      	push	{r4, lr}
 800399a:	000a      	movs	r2, r1
  if(speed == 0)
 800399c:	2800      	cmp	r0, #0
 800399e:	d105      	bne.n	80039ac <USBD_FS_InterfaceStrDescriptor+0x14>
    USBD_GetString((uint8_t *)USBD_INTERFACE_STRING_FS, USBD_StrDesc, length);
 80039a0:	4905      	ldr	r1, [pc, #20]	@ (80039b8 <USBD_FS_InterfaceStrDescriptor+0x20>)
 80039a2:	4806      	ldr	r0, [pc, #24]	@ (80039bc <USBD_FS_InterfaceStrDescriptor+0x24>)
 80039a4:	f7ff ff55 	bl	8003852 <USBD_GetString>
  return USBD_StrDesc;
 80039a8:	4803      	ldr	r0, [pc, #12]	@ (80039b8 <USBD_FS_InterfaceStrDescriptor+0x20>)
}
 80039aa:	bd10      	pop	{r4, pc}
    USBD_GetString((uint8_t *)USBD_INTERFACE_STRING_FS, USBD_StrDesc, length);
 80039ac:	4902      	ldr	r1, [pc, #8]	@ (80039b8 <USBD_FS_InterfaceStrDescriptor+0x20>)
 80039ae:	4803      	ldr	r0, [pc, #12]	@ (80039bc <USBD_FS_InterfaceStrDescriptor+0x24>)
 80039b0:	f7ff ff4f 	bl	8003852 <USBD_GetString>
 80039b4:	e7f8      	b.n	80039a8 <USBD_FS_InterfaceStrDescriptor+0x10>
 80039b6:	46c0      	nop			@ (mov r8, r8)
 80039b8:	20000730 	.word	0x20000730
 80039bc:	08003db4 	.word	0x08003db4

080039c0 <USBD_HID_GetFSCfgDesc>:
  * @param  length : pointer data length
  * @retval pointer to descriptor buffer
  */
static uint8_t  *USBD_HID_GetFSCfgDesc(uint16_t *length)
{
  *length = sizeof(USBD_HID_CfgFSDesc);
 80039c0:	2322      	movs	r3, #34	@ 0x22
 80039c2:	8003      	strh	r3, [r0, #0]
  return USBD_HID_CfgFSDesc;
 80039c4:	4800      	ldr	r0, [pc, #0]	@ (80039c8 <USBD_HID_GetFSCfgDesc+0x8>)
}
 80039c6:	4770      	bx	lr
 80039c8:	200000ec 	.word	0x200000ec

080039cc <USBD_HID_GetHSCfgDesc>:
  * @param  length : pointer data length
  * @retval pointer to descriptor buffer
  */
static uint8_t  *USBD_HID_GetHSCfgDesc(uint16_t *length)
{
  *length = sizeof(USBD_HID_CfgHSDesc);
 80039cc:	2322      	movs	r3, #34	@ 0x22
 80039ce:	8003      	strh	r3, [r0, #0]
  return USBD_HID_CfgHSDesc;
 80039d0:	4800      	ldr	r0, [pc, #0]	@ (80039d4 <USBD_HID_GetHSCfgDesc+0x8>)
}
 80039d2:	4770      	bx	lr
 80039d4:	200000c8 	.word	0x200000c8

080039d8 <USBD_HID_GetOtherSpeedCfgDesc>:
  * @param  length : pointer data length
  * @retval pointer to descriptor buffer
  */
static uint8_t  *USBD_HID_GetOtherSpeedCfgDesc(uint16_t *length)
{
  *length = sizeof(USBD_HID_OtherSpeedCfgDesc);
 80039d8:	2322      	movs	r3, #34	@ 0x22
 80039da:	8003      	strh	r3, [r0, #0]
  return USBD_HID_OtherSpeedCfgDesc;
 80039dc:	4800      	ldr	r0, [pc, #0]	@ (80039e0 <USBD_HID_GetOtherSpeedCfgDesc+0x8>)
}
 80039de:	4770      	bx	lr
 80039e0:	200000a4 	.word	0x200000a4

080039e4 <USBD_HID_DataIn>:
                                uint8_t epnum)
{

  /* Ensure that the FIFO is empty before a new transfer, this condition could
  be caused by  a new transfer before the end of the previous transfer */
  ((USBD_HID_HandleTypeDef *)pdev->pClassData)->state = HID_IDLE;
 80039e4:	23ae      	movs	r3, #174	@ 0xae
 80039e6:	009b      	lsls	r3, r3, #2
 80039e8:	58c3      	ldr	r3, [r0, r3]
 80039ea:	2200      	movs	r2, #0
 80039ec:	731a      	strb	r2, [r3, #12]
  return USBD_OK;
}
 80039ee:	2000      	movs	r0, #0
 80039f0:	4770      	bx	lr
	...

080039f4 <USBD_HID_GetDeviceQualifierDesc>:
* @param  length : pointer data length
* @retval pointer to descriptor buffer
*/
static uint8_t  *USBD_HID_GetDeviceQualifierDesc(uint16_t *length)
{
  *length = sizeof(USBD_HID_DeviceQualifierDesc);
 80039f4:	230a      	movs	r3, #10
 80039f6:	8003      	strh	r3, [r0, #0]
  return USBD_HID_DeviceQualifierDesc;
 80039f8:	4800      	ldr	r0, [pc, #0]	@ (80039fc <USBD_HID_GetDeviceQualifierDesc+0x8>)
}
 80039fa:	4770      	bx	lr
 80039fc:	2000008c 	.word	0x2000008c

08003a00 <USBD_HID_Setup>:
{
 8003a00:	b570      	push	{r4, r5, r6, lr}
 8003a02:	b082      	sub	sp, #8
  USBD_HID_HandleTypeDef *hhid = (USBD_HID_HandleTypeDef *) pdev->pClassData;
 8003a04:	23ae      	movs	r3, #174	@ 0xae
 8003a06:	009b      	lsls	r3, r3, #2
 8003a08:	58c5      	ldr	r5, [r0, r3]
  uint16_t status_info = 0U;
 8003a0a:	466b      	mov	r3, sp
 8003a0c:	2200      	movs	r2, #0
 8003a0e:	80da      	strh	r2, [r3, #6]
  switch (req->bmRequest & USB_REQ_TYPE_MASK)
 8003a10:	780b      	ldrb	r3, [r1, #0]
 8003a12:	3260      	adds	r2, #96	@ 0x60
 8003a14:	0014      	movs	r4, r2
 8003a16:	401c      	ands	r4, r3
 8003a18:	421a      	tst	r2, r3
 8003a1a:	d024      	beq.n	8003a66 <USBD_HID_Setup+0x66>
 8003a1c:	2c20      	cmp	r4, #32
 8003a1e:	d177      	bne.n	8003b10 <USBD_HID_Setup+0x110>
      switch (req->bRequest)
 8003a20:	784b      	ldrb	r3, [r1, #1]
 8003a22:	2b0a      	cmp	r3, #10
 8003a24:	d010      	beq.n	8003a48 <USBD_HID_Setup+0x48>
 8003a26:	d809      	bhi.n	8003a3c <USBD_HID_Setup+0x3c>
 8003a28:	2b02      	cmp	r3, #2
 8003a2a:	d012      	beq.n	8003a52 <USBD_HID_Setup+0x52>
 8003a2c:	2b03      	cmp	r3, #3
 8003a2e:	d116      	bne.n	8003a5e <USBD_HID_Setup+0x5e>
          USBD_CtlSendData(pdev, (uint8_t *)(void *)&hhid->Protocol, 1U);
 8003a30:	2201      	movs	r2, #1
 8003a32:	0029      	movs	r1, r5
 8003a34:	f000 f8b6 	bl	8003ba4 <USBD_CtlSendData>
  USBD_StatusTypeDef ret = USBD_OK;
 8003a38:	2400      	movs	r4, #0
          break;
 8003a3a:	e06c      	b.n	8003b16 <USBD_HID_Setup+0x116>
      switch (req->bRequest)
 8003a3c:	2b0b      	cmp	r3, #11
 8003a3e:	d10e      	bne.n	8003a5e <USBD_HID_Setup+0x5e>
          hhid->Protocol = (uint8_t)(req->wValue);
 8003a40:	788b      	ldrb	r3, [r1, #2]
 8003a42:	602b      	str	r3, [r5, #0]
  USBD_StatusTypeDef ret = USBD_OK;
 8003a44:	2400      	movs	r4, #0
          break;
 8003a46:	e066      	b.n	8003b16 <USBD_HID_Setup+0x116>
          hhid->IdleState = (uint8_t)(req->wValue >> 8);
 8003a48:	884b      	ldrh	r3, [r1, #2]
 8003a4a:	0a1b      	lsrs	r3, r3, #8
 8003a4c:	606b      	str	r3, [r5, #4]
  USBD_StatusTypeDef ret = USBD_OK;
 8003a4e:	2400      	movs	r4, #0
          break;
 8003a50:	e061      	b.n	8003b16 <USBD_HID_Setup+0x116>
          USBD_CtlSendData(pdev, (uint8_t *)(void *)&hhid->IdleState, 1U);
 8003a52:	1d29      	adds	r1, r5, #4
 8003a54:	2201      	movs	r2, #1
 8003a56:	f000 f8a5 	bl	8003ba4 <USBD_CtlSendData>
  USBD_StatusTypeDef ret = USBD_OK;
 8003a5a:	2400      	movs	r4, #0
          break;
 8003a5c:	e05b      	b.n	8003b16 <USBD_HID_Setup+0x116>
          USBD_CtlError(pdev, req);
 8003a5e:	f7ff fbc1 	bl	80031e4 <USBD_CtlError>
          ret = USBD_FAIL;
 8003a62:	2402      	movs	r4, #2
          break;
 8003a64:	e057      	b.n	8003b16 <USBD_HID_Setup+0x116>
      switch (req->bRequest)
 8003a66:	784e      	ldrb	r6, [r1, #1]
 8003a68:	2e0a      	cmp	r6, #10
 8003a6a:	d03a      	beq.n	8003ae2 <USBD_HID_Setup+0xe2>
 8003a6c:	d813      	bhi.n	8003a96 <USBD_HID_Setup+0x96>
 8003a6e:	2e00      	cmp	r6, #0
 8003a70:	d01b      	beq.n	8003aaa <USBD_HID_Setup+0xaa>
 8003a72:	2e06      	cmp	r6, #6
 8003a74:	d148      	bne.n	8003b08 <USBD_HID_Setup+0x108>
          if (req->wValue >> 8 == HID_REPORT_DESC)
 8003a76:	884b      	ldrh	r3, [r1, #2]
 8003a78:	0a1b      	lsrs	r3, r3, #8
 8003a7a:	2b22      	cmp	r3, #34	@ 0x22
 8003a7c:	d025      	beq.n	8003aca <USBD_HID_Setup+0xca>
          else if (req->wValue >> 8 == HID_DESCRIPTOR_TYPE)
 8003a7e:	2b21      	cmp	r3, #33	@ 0x21
 8003a80:	d12b      	bne.n	8003ada <USBD_HID_Setup+0xda>
            len = MIN(USB_HID_DESC_SIZ, req->wLength);
 8003a82:	88cb      	ldrh	r3, [r1, #6]
 8003a84:	1c1a      	adds	r2, r3, #0
 8003a86:	2b09      	cmp	r3, #9
 8003a88:	d900      	bls.n	8003a8c <USBD_HID_Setup+0x8c>
 8003a8a:	2209      	movs	r2, #9
 8003a8c:	b292      	uxth	r2, r2
            pbuf = USBD_HID_Desc;
 8003a8e:	4923      	ldr	r1, [pc, #140]	@ (8003b1c <USBD_HID_Setup+0x11c>)
          USBD_CtlSendData(pdev, pbuf, len);
 8003a90:	f000 f888 	bl	8003ba4 <USBD_CtlSendData>
          break;
 8003a94:	e03f      	b.n	8003b16 <USBD_HID_Setup+0x116>
      switch (req->bRequest)
 8003a96:	2e0b      	cmp	r6, #11
 8003a98:	d136      	bne.n	8003b08 <USBD_HID_Setup+0x108>
          if (pdev->dev_state == USBD_STATE_CONFIGURED)
 8003a9a:	23a7      	movs	r3, #167	@ 0xa7
 8003a9c:	009b      	lsls	r3, r3, #2
 8003a9e:	5cc3      	ldrb	r3, [r0, r3]
 8003aa0:	2b03      	cmp	r3, #3
 8003aa2:	d12d      	bne.n	8003b00 <USBD_HID_Setup+0x100>
            hhid->AltSetting = (uint8_t)(req->wValue);
 8003aa4:	788b      	ldrb	r3, [r1, #2]
 8003aa6:	60ab      	str	r3, [r5, #8]
 8003aa8:	e035      	b.n	8003b16 <USBD_HID_Setup+0x116>
          if (pdev->dev_state == USBD_STATE_CONFIGURED)
 8003aaa:	23a7      	movs	r3, #167	@ 0xa7
 8003aac:	009b      	lsls	r3, r3, #2
 8003aae:	5cc3      	ldrb	r3, [r0, r3]
 8003ab0:	2b03      	cmp	r3, #3
 8003ab2:	d003      	beq.n	8003abc <USBD_HID_Setup+0xbc>
            USBD_CtlError(pdev, req);
 8003ab4:	f7ff fb96 	bl	80031e4 <USBD_CtlError>
            ret = USBD_FAIL;
 8003ab8:	2402      	movs	r4, #2
 8003aba:	e02c      	b.n	8003b16 <USBD_HID_Setup+0x116>
            USBD_CtlSendData(pdev, (uint8_t *)(void *)&status_info, 2U);
 8003abc:	2202      	movs	r2, #2
 8003abe:	466b      	mov	r3, sp
 8003ac0:	1d99      	adds	r1, r3, #6
 8003ac2:	f000 f86f 	bl	8003ba4 <USBD_CtlSendData>
  USBD_StatusTypeDef ret = USBD_OK;
 8003ac6:	0034      	movs	r4, r6
 8003ac8:	e025      	b.n	8003b16 <USBD_HID_Setup+0x116>
            len = MIN(HID_MOUSE_REPORT_DESC_SIZE, req->wLength);
 8003aca:	88cb      	ldrh	r3, [r1, #6]
 8003acc:	1c1a      	adds	r2, r3, #0
 8003ace:	2b2d      	cmp	r3, #45	@ 0x2d
 8003ad0:	d900      	bls.n	8003ad4 <USBD_HID_Setup+0xd4>
 8003ad2:	222d      	movs	r2, #45	@ 0x2d
 8003ad4:	b292      	uxth	r2, r2
            pbuf = HID_MOUSE_ReportDesc;
 8003ad6:	4912      	ldr	r1, [pc, #72]	@ (8003b20 <USBD_HID_Setup+0x120>)
 8003ad8:	e7da      	b.n	8003a90 <USBD_HID_Setup+0x90>
            USBD_CtlError(pdev, req);
 8003ada:	f7ff fb83 	bl	80031e4 <USBD_CtlError>
            ret = USBD_FAIL;
 8003ade:	2402      	movs	r4, #2
            break;
 8003ae0:	e019      	b.n	8003b16 <USBD_HID_Setup+0x116>
          if (pdev->dev_state == USBD_STATE_CONFIGURED)
 8003ae2:	23a7      	movs	r3, #167	@ 0xa7
 8003ae4:	009b      	lsls	r3, r3, #2
 8003ae6:	5cc3      	ldrb	r3, [r0, r3]
 8003ae8:	2b03      	cmp	r3, #3
 8003aea:	d003      	beq.n	8003af4 <USBD_HID_Setup+0xf4>
            USBD_CtlError(pdev, req);
 8003aec:	f7ff fb7a 	bl	80031e4 <USBD_CtlError>
            ret = USBD_FAIL;
 8003af0:	2402      	movs	r4, #2
 8003af2:	e010      	b.n	8003b16 <USBD_HID_Setup+0x116>
            USBD_CtlSendData(pdev, (uint8_t *)(void *)&hhid->AltSetting, 1U);
 8003af4:	0029      	movs	r1, r5
 8003af6:	3108      	adds	r1, #8
 8003af8:	2201      	movs	r2, #1
 8003afa:	f000 f853 	bl	8003ba4 <USBD_CtlSendData>
 8003afe:	e00a      	b.n	8003b16 <USBD_HID_Setup+0x116>
            USBD_CtlError(pdev, req);
 8003b00:	f7ff fb70 	bl	80031e4 <USBD_CtlError>
            ret = USBD_FAIL;
 8003b04:	2402      	movs	r4, #2
 8003b06:	e006      	b.n	8003b16 <USBD_HID_Setup+0x116>
          USBD_CtlError(pdev, req);
 8003b08:	f7ff fb6c 	bl	80031e4 <USBD_CtlError>
          ret = USBD_FAIL;
 8003b0c:	2402      	movs	r4, #2
          break;
 8003b0e:	e002      	b.n	8003b16 <USBD_HID_Setup+0x116>
      USBD_CtlError(pdev, req);
 8003b10:	f7ff fb68 	bl	80031e4 <USBD_CtlError>
      ret = USBD_FAIL;
 8003b14:	2402      	movs	r4, #2
}
 8003b16:	0020      	movs	r0, r4
 8003b18:	b002      	add	sp, #8
 8003b1a:	bd70      	pop	{r4, r5, r6, pc}
 8003b1c:	20000098 	.word	0x20000098
 8003b20:	2000005c 	.word	0x2000005c

08003b24 <USBD_HID_DeInit>:
{
 8003b24:	b510      	push	{r4, lr}
 8003b26:	0004      	movs	r4, r0
  USBD_LL_CloseEP(pdev, HID_EPIN_ADDR);
 8003b28:	2181      	movs	r1, #129	@ 0x81
 8003b2a:	f7ff f946 	bl	8002dba <USBD_LL_CloseEP>
  pdev->ep_in[HID_EPIN_ADDR & 0xFU].is_used = 0U;
 8003b2e:	2300      	movs	r3, #0
 8003b30:	62e3      	str	r3, [r4, #44]	@ 0x2c
  if (pdev->pClassData != NULL)
 8003b32:	23ae      	movs	r3, #174	@ 0xae
 8003b34:	009b      	lsls	r3, r3, #2
 8003b36:	58e0      	ldr	r0, [r4, r3]
 8003b38:	2800      	cmp	r0, #0
 8003b3a:	d005      	beq.n	8003b48 <USBD_HID_DeInit+0x24>
    USBD_free(pdev->pClassData);
 8003b3c:	f7ff f990 	bl	8002e60 <USBD_static_free>
    pdev->pClassData = NULL;
 8003b40:	23ae      	movs	r3, #174	@ 0xae
 8003b42:	009b      	lsls	r3, r3, #2
 8003b44:	2200      	movs	r2, #0
 8003b46:	50e2      	str	r2, [r4, r3]
}
 8003b48:	2000      	movs	r0, #0
 8003b4a:	bd10      	pop	{r4, pc}

08003b4c <USBD_HID_Init>:
{
 8003b4c:	b510      	push	{r4, lr}
 8003b4e:	0004      	movs	r4, r0
  USBD_LL_OpenEP(pdev, HID_EPIN_ADDR, USBD_EP_TYPE_INTR, HID_EPIN_SIZE);
 8003b50:	230e      	movs	r3, #14
 8003b52:	2203      	movs	r2, #3
 8003b54:	2181      	movs	r1, #129	@ 0x81
 8003b56:	f7ff f924 	bl	8002da2 <USBD_LL_OpenEP>
  pdev->ep_in[HID_EPIN_ADDR & 0xFU].is_used = 1U;
 8003b5a:	2301      	movs	r3, #1
 8003b5c:	62e3      	str	r3, [r4, #44]	@ 0x2c
  pdev->pClassData = USBD_malloc(sizeof(USBD_HID_HandleTypeDef));
 8003b5e:	2010      	movs	r0, #16
 8003b60:	f7ff f97a 	bl	8002e58 <USBD_static_malloc>
 8003b64:	23ae      	movs	r3, #174	@ 0xae
 8003b66:	009b      	lsls	r3, r3, #2
 8003b68:	50e0      	str	r0, [r4, r3]
  if (pdev->pClassData == NULL)
 8003b6a:	2800      	cmp	r0, #0
 8003b6c:	d003      	beq.n	8003b76 <USBD_HID_Init+0x2a>
  ((USBD_HID_HandleTypeDef *)pdev->pClassData)->state = HID_IDLE;
 8003b6e:	2300      	movs	r3, #0
 8003b70:	7303      	strb	r3, [r0, #12]
  return USBD_OK;
 8003b72:	2000      	movs	r0, #0
}
 8003b74:	bd10      	pop	{r4, pc}
    return USBD_FAIL;
 8003b76:	2002      	movs	r0, #2
 8003b78:	e7fc      	b.n	8003b74 <USBD_HID_Init+0x28>

08003b7a <USBD_HID_SendReport>:
{
 8003b7a:	b510      	push	{r4, lr}
  USBD_HID_HandleTypeDef     *hhid = (USBD_HID_HandleTypeDef *)pdev->pClassData;
 8003b7c:	24ae      	movs	r4, #174	@ 0xae
 8003b7e:	00a4      	lsls	r4, r4, #2
 8003b80:	5903      	ldr	r3, [r0, r4]
  if (pdev->dev_state == USBD_STATE_CONFIGURED)
 8003b82:	3c1c      	subs	r4, #28
 8003b84:	5d04      	ldrb	r4, [r0, r4]
 8003b86:	2c03      	cmp	r4, #3
 8003b88:	d001      	beq.n	8003b8e <USBD_HID_SendReport+0x14>
}
 8003b8a:	2000      	movs	r0, #0
 8003b8c:	bd10      	pop	{r4, pc}
    if (hhid->state == HID_IDLE)
 8003b8e:	7b1c      	ldrb	r4, [r3, #12]
 8003b90:	2c00      	cmp	r4, #0
 8003b92:	d1fa      	bne.n	8003b8a <USBD_HID_SendReport+0x10>
      hhid->state = HID_BUSY;
 8003b94:	3401      	adds	r4, #1
 8003b96:	731c      	strb	r4, [r3, #12]
      USBD_LL_Transmit(pdev,
 8003b98:	0013      	movs	r3, r2
 8003b9a:	000a      	movs	r2, r1
 8003b9c:	2181      	movs	r1, #129	@ 0x81
 8003b9e:	f7ff f948 	bl	8002e32 <USBD_LL_Transmit>
 8003ba2:	e7f2      	b.n	8003b8a <USBD_HID_SendReport+0x10>

08003ba4 <USBD_CtlSendData>:
* @param  len: length of data to be sent
* @retval status
*/
USBD_StatusTypeDef USBD_CtlSendData(USBD_HandleTypeDef *pdev,
                                    uint8_t *pbuf, uint16_t len)
{
 8003ba4:	b510      	push	{r4, lr}
 8003ba6:	0013      	movs	r3, r2
  /* Set EP0 State */
  pdev->ep0_state = USBD_EP0_DATA_IN;
 8003ba8:	22a5      	movs	r2, #165	@ 0xa5
 8003baa:	0092      	lsls	r2, r2, #2
 8003bac:	2402      	movs	r4, #2
 8003bae:	5084      	str	r4, [r0, r2]
  pdev->ep_in[0].total_length = len;
 8003bb0:	61c3      	str	r3, [r0, #28]
  pdev->ep_in[0].rem_length   = len;
 8003bb2:	6203      	str	r3, [r0, #32]

  /* Start the transfer */
  USBD_LL_Transmit(pdev, 0x00U, pbuf, len);
 8003bb4:	000a      	movs	r2, r1
 8003bb6:	2100      	movs	r1, #0
 8003bb8:	f7ff f93b 	bl	8002e32 <USBD_LL_Transmit>

  return USBD_OK;
}
 8003bbc:	2000      	movs	r0, #0
 8003bbe:	bd10      	pop	{r4, pc}

08003bc0 <USBD_CtlContinueSendData>:
* @param  len: length of data to be sent
* @retval status
*/
USBD_StatusTypeDef USBD_CtlContinueSendData(USBD_HandleTypeDef *pdev,
                                            uint8_t *pbuf, uint16_t len)
{
 8003bc0:	b510      	push	{r4, lr}
 8003bc2:	0013      	movs	r3, r2
  /* Start the next transfer */
  USBD_LL_Transmit(pdev, 0x00U, pbuf, len);
 8003bc4:	000a      	movs	r2, r1
 8003bc6:	2100      	movs	r1, #0
 8003bc8:	f7ff f933 	bl	8002e32 <USBD_LL_Transmit>

  return USBD_OK;
}
 8003bcc:	2000      	movs	r0, #0
 8003bce:	bd10      	pop	{r4, pc}

08003bd0 <USBD_CtlContinueRx>:
* @param  len: length of data to be received
* @retval status
*/
USBD_StatusTypeDef USBD_CtlContinueRx(USBD_HandleTypeDef *pdev,
                                      uint8_t *pbuf, uint16_t len)
{
 8003bd0:	b510      	push	{r4, lr}
 8003bd2:	0013      	movs	r3, r2
  USBD_LL_PrepareReceive(pdev, 0U, pbuf, len);
 8003bd4:	000a      	movs	r2, r1
 8003bd6:	2100      	movs	r1, #0
 8003bd8:	f7ff f934 	bl	8002e44 <USBD_LL_PrepareReceive>

  return USBD_OK;
}
 8003bdc:	2000      	movs	r0, #0
 8003bde:	bd10      	pop	{r4, pc}

08003be0 <USBD_CtlSendStatus>:
*         send zero lzngth packet on the ctl pipe
* @param  pdev: device instance
* @retval status
*/
USBD_StatusTypeDef USBD_CtlSendStatus(USBD_HandleTypeDef *pdev)
{
 8003be0:	b510      	push	{r4, lr}
  /* Set EP0 State */
  pdev->ep0_state = USBD_EP0_STATUS_IN;
 8003be2:	23a5      	movs	r3, #165	@ 0xa5
 8003be4:	009b      	lsls	r3, r3, #2
 8003be6:	2204      	movs	r2, #4
 8003be8:	50c2      	str	r2, [r0, r3]

  /* Start the transfer */
  USBD_LL_Transmit(pdev, 0x00U, NULL, 0U);
 8003bea:	2300      	movs	r3, #0
 8003bec:	2200      	movs	r2, #0
 8003bee:	2100      	movs	r1, #0
 8003bf0:	f7ff f91f 	bl	8002e32 <USBD_LL_Transmit>

  return USBD_OK;
}
 8003bf4:	2000      	movs	r0, #0
 8003bf6:	bd10      	pop	{r4, pc}

08003bf8 <USBD_CtlReceiveStatus>:
*         receive zero lzngth packet on the ctl pipe
* @param  pdev: device instance
* @retval status
*/
USBD_StatusTypeDef USBD_CtlReceiveStatus(USBD_HandleTypeDef *pdev)
{
 8003bf8:	b510      	push	{r4, lr}
  /* Set EP0 State */
  pdev->ep0_state = USBD_EP0_STATUS_OUT;
 8003bfa:	23a5      	movs	r3, #165	@ 0xa5
 8003bfc:	009b      	lsls	r3, r3, #2
 8003bfe:	2205      	movs	r2, #5
 8003c00:	50c2      	str	r2, [r0, r3]

  /* Start the transfer */
  USBD_LL_PrepareReceive(pdev, 0U, NULL, 0U);
 8003c02:	2300      	movs	r3, #0
 8003c04:	2200      	movs	r2, #0
 8003c06:	2100      	movs	r1, #0
 8003c08:	f7ff f91c 	bl	8002e44 <USBD_LL_PrepareReceive>

  return USBD_OK;
}
 8003c0c:	2000      	movs	r0, #0
 8003c0e:	bd10      	pop	{r4, pc}

08003c10 <Reset_Handler>:

  .section .text.Reset_Handler
  .weak Reset_Handler
  .type Reset_Handler, %function
Reset_Handler:
  ldr   r0, =_estack
 8003c10:	4813      	ldr	r0, [pc, #76]	@ (8003c60 <LoopForever+0x2>)
  mov   sp, r0          /* set stack pointer */
 8003c12:	4685      	mov	sp, r0
  
/* Call the clock system initialization function.*/
  bl  SystemInit
 8003c14:	f7fe ffc8 	bl	8002ba8 <SystemInit>

/*Check if boot space corresponds to test memory*/
 
    LDR R0,=0x00000004
 8003c18:	4812      	ldr	r0, [pc, #72]	@ (8003c64 <LoopForever+0x6>)
    LDR R1, [R0]
 8003c1a:	6801      	ldr	r1, [r0, #0]
    LSRS R1, R1, #24
 8003c1c:	0e09      	lsrs	r1, r1, #24
    LDR R2,=0x1F
 8003c1e:	4a12      	ldr	r2, [pc, #72]	@ (8003c68 <LoopForever+0xa>)
    CMP R1, R2
 8003c20:	4291      	cmp	r1, r2
    BNE ApplicationStart
 8003c22:	d105      	bne.n	8003c30 <ApplicationStart>

 /*SYSCFG clock enable*/

    LDR R0,=0x40021018
 8003c24:	4811      	ldr	r0, [pc, #68]	@ (8003c6c <LoopForever+0xe>)
    LDR R1,=0x00000001
 8003c26:	4912      	ldr	r1, [pc, #72]	@ (8003c70 <LoopForever+0x12>)
    STR R1, [R0]
 8003c28:	6001      	str	r1, [r0, #0]

/*Set CFGR1 register with flash memory remap at address 0*/
    LDR R0,=0x40010000
 8003c2a:	4812      	ldr	r0, [pc, #72]	@ (8003c74 <LoopForever+0x16>)
    LDR R1,=0x00000000
 8003c2c:	4912      	ldr	r1, [pc, #72]	@ (8003c78 <LoopForever+0x1a>)
    STR R1, [R0]
 8003c2e:	6001      	str	r1, [r0, #0]

08003c30 <ApplicationStart>:

ApplicationStart:
/* Copy the data segment initializers from flash to SRAM */
  ldr r0, =_sdata
 8003c30:	4812      	ldr	r0, [pc, #72]	@ (8003c7c <LoopForever+0x1e>)
  ldr r1, =_edata
 8003c32:	4913      	ldr	r1, [pc, #76]	@ (8003c80 <LoopForever+0x22>)
  ldr r2, =_sidata
 8003c34:	4a13      	ldr	r2, [pc, #76]	@ (8003c84 <LoopForever+0x26>)
  movs r3, #0
 8003c36:	2300      	movs	r3, #0
  b LoopCopyDataInit
 8003c38:	e002      	b.n	8003c40 <LoopCopyDataInit>

08003c3a <CopyDataInit>:

CopyDataInit:
  ldr r4, [r2, r3]
 8003c3a:	58d4      	ldr	r4, [r2, r3]
  str r4, [r0, r3]
 8003c3c:	50c4      	str	r4, [r0, r3]
  adds r3, r3, #4
 8003c3e:	3304      	adds	r3, #4

08003c40 <LoopCopyDataInit>:

LoopCopyDataInit:
  adds r4, r0, r3
 8003c40:	18c4      	adds	r4, r0, r3
  cmp r4, r1
 8003c42:	428c      	cmp	r4, r1
  bcc CopyDataInit
 8003c44:	d3f9      	bcc.n	8003c3a <CopyDataInit>
  
/* Zero fill the bss segment. */
  ldr r2, =_sbss
 8003c46:	4a10      	ldr	r2, [pc, #64]	@ (8003c88 <LoopForever+0x2a>)
  ldr r4, =_ebss
 8003c48:	4c10      	ldr	r4, [pc, #64]	@ (8003c8c <LoopForever+0x2e>)
  movs r3, #0
 8003c4a:	2300      	movs	r3, #0
  b LoopFillZerobss
 8003c4c:	e001      	b.n	8003c52 <LoopFillZerobss>

08003c4e <FillZerobss>:

FillZerobss:
  str  r3, [r2]
 8003c4e:	6013      	str	r3, [r2, #0]
  adds r2, r2, #4
 8003c50:	3204      	adds	r2, #4

08003c52 <LoopFillZerobss>:

LoopFillZerobss:
  cmp r2, r4
 8003c52:	42a2      	cmp	r2, r4
  bcc FillZerobss
 8003c54:	d3fb      	bcc.n	8003c4e <FillZerobss>

/* Call static constructors */
  bl __libc_init_array
 8003c56:	f000 f825 	bl	8003ca4 <__libc_init_array>
/* Call the application's entry point.*/
  bl main
 8003c5a:	f7fc fb1d 	bl	8000298 <main>

08003c5e <LoopForever>:

LoopForever:
    b LoopForever
 8003c5e:	e7fe      	b.n	8003c5e <LoopForever>
  ldr   r0, =_estack
 8003c60:	20001800 	.word	0x20001800
    LDR R0,=0x00000004
 8003c64:	00000004 	.word	0x00000004
    LDR R2,=0x1F
 8003c68:	0000001f 	.word	0x0000001f
    LDR R0,=0x40021018
 8003c6c:	40021018 	.word	0x40021018
    LDR R1,=0x00000001
 8003c70:	00000001 	.word	0x00000001
    LDR R0,=0x40010000
 8003c74:	40010000 	.word	0x40010000
    LDR R1,=0x00000000
 8003c78:	00000000 	.word	0x00000000
  ldr r0, =_sdata
 8003c7c:	20000000 	.word	0x20000000
  ldr r1, =_edata
 8003c80:	20000148 	.word	0x20000148
  ldr r2, =_sidata
 8003c84:	08003dcc 	.word	0x08003dcc
  ldr r2, =_sbss
 8003c88:	20000148 	.word	0x20000148
  ldr r4, =_ebss
 8003c8c:	20000930 	.word	0x20000930

08003c90 <ADC1_IRQHandler>:
 * @retval : None
*/
    .section .text.Default_Handler,"ax",%progbits
Default_Handler:
Infinite_Loop:
  b Infinite_Loop
 8003c90:	e7fe      	b.n	8003c90 <ADC1_IRQHandler>

08003c92 <memset>:
 8003c92:	0003      	movs	r3, r0
 8003c94:	1882      	adds	r2, r0, r2
 8003c96:	4293      	cmp	r3, r2
 8003c98:	d100      	bne.n	8003c9c <memset+0xa>
 8003c9a:	4770      	bx	lr
 8003c9c:	7019      	strb	r1, [r3, #0]
 8003c9e:	3301      	adds	r3, #1
 8003ca0:	e7f9      	b.n	8003c96 <memset+0x4>
	...

08003ca4 <__libc_init_array>:
 8003ca4:	b570      	push	{r4, r5, r6, lr}
 8003ca6:	2600      	movs	r6, #0
 8003ca8:	4c0c      	ldr	r4, [pc, #48]	@ (8003cdc <__libc_init_array+0x38>)
 8003caa:	4d0d      	ldr	r5, [pc, #52]	@ (8003ce0 <__libc_init_array+0x3c>)
 8003cac:	1b64      	subs	r4, r4, r5
 8003cae:	10a4      	asrs	r4, r4, #2
 8003cb0:	42a6      	cmp	r6, r4
 8003cb2:	d109      	bne.n	8003cc8 <__libc_init_array+0x24>
 8003cb4:	2600      	movs	r6, #0
 8003cb6:	f000 f819 	bl	8003cec <_init>
 8003cba:	4c0a      	ldr	r4, [pc, #40]	@ (8003ce4 <__libc_init_array+0x40>)
 8003cbc:	4d0a      	ldr	r5, [pc, #40]	@ (8003ce8 <__libc_init_array+0x44>)
 8003cbe:	1b64      	subs	r4, r4, r5
 8003cc0:	10a4      	asrs	r4, r4, #2
 8003cc2:	42a6      	cmp	r6, r4
 8003cc4:	d105      	bne.n	8003cd2 <__libc_init_array+0x2e>
 8003cc6:	bd70      	pop	{r4, r5, r6, pc}
 8003cc8:	00b3      	lsls	r3, r6, #2
 8003cca:	58eb      	ldr	r3, [r5, r3]
 8003ccc:	4798      	blx	r3
 8003cce:	3601      	adds	r6, #1
 8003cd0:	e7ee      	b.n	8003cb0 <__libc_init_array+0xc>
 8003cd2:	00b3      	lsls	r3, r6, #2
 8003cd4:	58eb      	ldr	r3, [r5, r3]
 8003cd6:	4798      	blx	r3
 8003cd8:	3601      	adds	r6, #1
 8003cda:	e7f2      	b.n	8003cc2 <__libc_init_array+0x1e>
 8003cdc:	08003dc4 	.word	0x08003dc4
 8003ce0:	08003dc4 	.word	0x08003dc4
 8003ce4:	08003dc8 	.word	0x08003dc8
 8003ce8:	08003dc4 	.word	0x08003dc4

08003cec <_init>:
 8003cec:	b5f8      	push	{r3, r4, r5, r6, r7, lr}
 8003cee:	46c0      	nop			@ (mov r8, r8)
 8003cf0:	bcf8      	pop	{r3, r4, r5, r6, r7}
 8003cf2:	bc08      	pop	{r3}
 8003cf4:	469e      	mov	lr, r3
 8003cf6:	4770      	bx	lr

08003cf8 <_fini>:
 8003cf8:	b5f8      	push	{r3, r4, r5, r6, r7, lr}
 8003cfa:	46c0      	nop			@ (mov r8, r8)
 8003cfc:	bcf8      	pop	{r3, r4, r5, r6, r7}
 8003cfe:	bc08      	pop	{r3}
 8003d00:	469e      	mov	lr, r3
 8003d02:	4770      	bx	lr
