ARM GAS  /tmp/cceQvfFh.s 			page 1


   1              		.cpu cortex-m0
   2              		.arch armv6s-m
   3              		.fpu softvfp
   4              		.eabi_attribute 20, 1
   5              		.eabi_attribute 21, 1
   6              		.eabi_attribute 23, 3
   7              		.eabi_attribute 24, 1
   8              		.eabi_attribute 25, 1
   9              		.eabi_attribute 26, 1
  10              		.eabi_attribute 30, 1
  11              		.eabi_attribute 34, 0
  12              		.eabi_attribute 18, 4
  13              		.file	"stm32f0xx_ll_usb.c"
  14              		.text
  15              	.Ltext0:
  16              		.cfi_sections	.debug_frame
  17              		.file 1 "Drivers/STM32F0xx_HAL_Driver/Src/stm32f0xx_ll_usb.c"
  18              		.section	.text.USB_CoreInit,"ax",%progbits
  19              		.align	1
  20              		.global	USB_CoreInit
  21              		.syntax unified
  22              		.code	16
  23              		.thumb_func
  25              	USB_CoreInit:
  26              	.LVL0:
  27              	.LFB40:
   1:Drivers/STM32F0xx_HAL_Driver/Src/stm32f0xx_ll_usb.c **** /**
   2:Drivers/STM32F0xx_HAL_Driver/Src/stm32f0xx_ll_usb.c ****   ******************************************************************************
   3:Drivers/STM32F0xx_HAL_Driver/Src/stm32f0xx_ll_usb.c ****   * @file    stm32f0xx_ll_usb.c
   4:Drivers/STM32F0xx_HAL_Driver/Src/stm32f0xx_ll_usb.c ****   * @author  MCD Application Team
   5:Drivers/STM32F0xx_HAL_Driver/Src/stm32f0xx_ll_usb.c ****   * @brief   USB Low Layer HAL module driver.
   6:Drivers/STM32F0xx_HAL_Driver/Src/stm32f0xx_ll_usb.c ****   *
   7:Drivers/STM32F0xx_HAL_Driver/Src/stm32f0xx_ll_usb.c ****   *          This file provides firmware functions to manage the following
   8:Drivers/STM32F0xx_HAL_Driver/Src/stm32f0xx_ll_usb.c ****   *          functionalities of the USB Peripheral Controller:
   9:Drivers/STM32F0xx_HAL_Driver/Src/stm32f0xx_ll_usb.c ****   *           + Initialization/de-initialization functions
  10:Drivers/STM32F0xx_HAL_Driver/Src/stm32f0xx_ll_usb.c ****   *           + I/O operation functions
  11:Drivers/STM32F0xx_HAL_Driver/Src/stm32f0xx_ll_usb.c ****   *           + Peripheral Control functions
  12:Drivers/STM32F0xx_HAL_Driver/Src/stm32f0xx_ll_usb.c ****   *           + Peripheral State functions
  13:Drivers/STM32F0xx_HAL_Driver/Src/stm32f0xx_ll_usb.c ****   *
  14:Drivers/STM32F0xx_HAL_Driver/Src/stm32f0xx_ll_usb.c ****   ******************************************************************************
  15:Drivers/STM32F0xx_HAL_Driver/Src/stm32f0xx_ll_usb.c ****   * @attention
  16:Drivers/STM32F0xx_HAL_Driver/Src/stm32f0xx_ll_usb.c ****   *
  17:Drivers/STM32F0xx_HAL_Driver/Src/stm32f0xx_ll_usb.c ****   * Copyright (c) 2016 STMicroelectronics.
  18:Drivers/STM32F0xx_HAL_Driver/Src/stm32f0xx_ll_usb.c ****   * All rights reserved.
  19:Drivers/STM32F0xx_HAL_Driver/Src/stm32f0xx_ll_usb.c ****   *
  20:Drivers/STM32F0xx_HAL_Driver/Src/stm32f0xx_ll_usb.c ****   * This software is licensed under terms that can be found in the LICENSE file
  21:Drivers/STM32F0xx_HAL_Driver/Src/stm32f0xx_ll_usb.c ****   * in the root directory of this software component.
  22:Drivers/STM32F0xx_HAL_Driver/Src/stm32f0xx_ll_usb.c ****   * If no LICENSE file comes with this software, it is provided AS-IS.
  23:Drivers/STM32F0xx_HAL_Driver/Src/stm32f0xx_ll_usb.c ****   *
  24:Drivers/STM32F0xx_HAL_Driver/Src/stm32f0xx_ll_usb.c ****   ******************************************************************************
  25:Drivers/STM32F0xx_HAL_Driver/Src/stm32f0xx_ll_usb.c ****   @verbatim
  26:Drivers/STM32F0xx_HAL_Driver/Src/stm32f0xx_ll_usb.c ****   ==============================================================================
  27:Drivers/STM32F0xx_HAL_Driver/Src/stm32f0xx_ll_usb.c ****                     ##### How to use this driver #####
  28:Drivers/STM32F0xx_HAL_Driver/Src/stm32f0xx_ll_usb.c ****   ==============================================================================
  29:Drivers/STM32F0xx_HAL_Driver/Src/stm32f0xx_ll_usb.c ****     [..]
  30:Drivers/STM32F0xx_HAL_Driver/Src/stm32f0xx_ll_usb.c ****       (#) Fill parameters of Init structure in USB_CfgTypeDef structure.
  31:Drivers/STM32F0xx_HAL_Driver/Src/stm32f0xx_ll_usb.c **** 
ARM GAS  /tmp/cceQvfFh.s 			page 2


  32:Drivers/STM32F0xx_HAL_Driver/Src/stm32f0xx_ll_usb.c ****       (#) Call USB_CoreInit() API to initialize the USB Core peripheral.
  33:Drivers/STM32F0xx_HAL_Driver/Src/stm32f0xx_ll_usb.c **** 
  34:Drivers/STM32F0xx_HAL_Driver/Src/stm32f0xx_ll_usb.c ****       (#) The upper HAL HCD/PCD driver will call the right routines for its internal processes.
  35:Drivers/STM32F0xx_HAL_Driver/Src/stm32f0xx_ll_usb.c **** 
  36:Drivers/STM32F0xx_HAL_Driver/Src/stm32f0xx_ll_usb.c ****   @endverbatim
  37:Drivers/STM32F0xx_HAL_Driver/Src/stm32f0xx_ll_usb.c **** 
  38:Drivers/STM32F0xx_HAL_Driver/Src/stm32f0xx_ll_usb.c ****   ******************************************************************************
  39:Drivers/STM32F0xx_HAL_Driver/Src/stm32f0xx_ll_usb.c ****   */
  40:Drivers/STM32F0xx_HAL_Driver/Src/stm32f0xx_ll_usb.c **** 
  41:Drivers/STM32F0xx_HAL_Driver/Src/stm32f0xx_ll_usb.c **** /* Includes ------------------------------------------------------------------*/
  42:Drivers/STM32F0xx_HAL_Driver/Src/stm32f0xx_ll_usb.c **** #include "stm32f0xx_hal.h"
  43:Drivers/STM32F0xx_HAL_Driver/Src/stm32f0xx_ll_usb.c **** 
  44:Drivers/STM32F0xx_HAL_Driver/Src/stm32f0xx_ll_usb.c **** /** @addtogroup STM32F0xx_LL_USB_DRIVER
  45:Drivers/STM32F0xx_HAL_Driver/Src/stm32f0xx_ll_usb.c ****   * @{
  46:Drivers/STM32F0xx_HAL_Driver/Src/stm32f0xx_ll_usb.c ****   */
  47:Drivers/STM32F0xx_HAL_Driver/Src/stm32f0xx_ll_usb.c **** 
  48:Drivers/STM32F0xx_HAL_Driver/Src/stm32f0xx_ll_usb.c **** #if defined (HAL_PCD_MODULE_ENABLED) || defined (HAL_HCD_MODULE_ENABLED)
  49:Drivers/STM32F0xx_HAL_Driver/Src/stm32f0xx_ll_usb.c **** #if defined (USB)
  50:Drivers/STM32F0xx_HAL_Driver/Src/stm32f0xx_ll_usb.c **** /* Private typedef -----------------------------------------------------------*/
  51:Drivers/STM32F0xx_HAL_Driver/Src/stm32f0xx_ll_usb.c **** /* Private define ------------------------------------------------------------*/
  52:Drivers/STM32F0xx_HAL_Driver/Src/stm32f0xx_ll_usb.c **** /* Private macro -------------------------------------------------------------*/
  53:Drivers/STM32F0xx_HAL_Driver/Src/stm32f0xx_ll_usb.c **** /* Private variables ---------------------------------------------------------*/
  54:Drivers/STM32F0xx_HAL_Driver/Src/stm32f0xx_ll_usb.c **** /* Private function prototypes -----------------------------------------------*/
  55:Drivers/STM32F0xx_HAL_Driver/Src/stm32f0xx_ll_usb.c **** /* Private functions ---------------------------------------------------------*/
  56:Drivers/STM32F0xx_HAL_Driver/Src/stm32f0xx_ll_usb.c **** 
  57:Drivers/STM32F0xx_HAL_Driver/Src/stm32f0xx_ll_usb.c **** /**
  58:Drivers/STM32F0xx_HAL_Driver/Src/stm32f0xx_ll_usb.c ****   * @brief  Initializes the USB Core
  59:Drivers/STM32F0xx_HAL_Driver/Src/stm32f0xx_ll_usb.c ****   * @param  USBx USB Instance
  60:Drivers/STM32F0xx_HAL_Driver/Src/stm32f0xx_ll_usb.c ****   * @param  cfg pointer to a USB_CfgTypeDef structure that contains
  61:Drivers/STM32F0xx_HAL_Driver/Src/stm32f0xx_ll_usb.c ****   *         the configuration information for the specified USBx peripheral.
  62:Drivers/STM32F0xx_HAL_Driver/Src/stm32f0xx_ll_usb.c ****   * @retval HAL status
  63:Drivers/STM32F0xx_HAL_Driver/Src/stm32f0xx_ll_usb.c ****   */
  64:Drivers/STM32F0xx_HAL_Driver/Src/stm32f0xx_ll_usb.c **** HAL_StatusTypeDef USB_CoreInit(USB_TypeDef *USBx, USB_CfgTypeDef cfg)
  65:Drivers/STM32F0xx_HAL_Driver/Src/stm32f0xx_ll_usb.c **** {
  28              		.loc 1 65 1 view -0
  29              		.cfi_startproc
  30              		@ args = 0, pretend = 0, frame = 8
  31              		@ frame_needed = 0, uses_anonymous_args = 0
  32              		@ link register save eliminated.
  33              		.loc 1 65 1 is_stmt 0 view .LVU1
  34 0000 82B0     		sub	sp, sp, #8
  35              		.cfi_def_cfa_offset 8
  36 0002 0091     		str	r1, [sp]
  37 0004 0192     		str	r2, [sp, #4]
  66:Drivers/STM32F0xx_HAL_Driver/Src/stm32f0xx_ll_usb.c ****   /* Prevent unused argument(s) compilation warning */
  67:Drivers/STM32F0xx_HAL_Driver/Src/stm32f0xx_ll_usb.c ****   UNUSED(USBx);
  38              		.loc 1 67 3 is_stmt 1 view .LVU2
  68:Drivers/STM32F0xx_HAL_Driver/Src/stm32f0xx_ll_usb.c ****   UNUSED(cfg);
  39              		.loc 1 68 3 view .LVU3
  69:Drivers/STM32F0xx_HAL_Driver/Src/stm32f0xx_ll_usb.c **** 
  70:Drivers/STM32F0xx_HAL_Driver/Src/stm32f0xx_ll_usb.c ****   /* NOTE : - This function is not required by USB Device FS peripheral, it is used
  71:Drivers/STM32F0xx_HAL_Driver/Src/stm32f0xx_ll_usb.c ****               only by USB OTG FS peripheral.
  72:Drivers/STM32F0xx_HAL_Driver/Src/stm32f0xx_ll_usb.c ****             - This function is added to ensure compatibility across platforms.
  73:Drivers/STM32F0xx_HAL_Driver/Src/stm32f0xx_ll_usb.c ****    */
  74:Drivers/STM32F0xx_HAL_Driver/Src/stm32f0xx_ll_usb.c **** 
  75:Drivers/STM32F0xx_HAL_Driver/Src/stm32f0xx_ll_usb.c ****   return HAL_OK;
  40              		.loc 1 75 3 view .LVU4
ARM GAS  /tmp/cceQvfFh.s 			page 3


  76:Drivers/STM32F0xx_HAL_Driver/Src/stm32f0xx_ll_usb.c **** }
  41              		.loc 1 76 1 is_stmt 0 view .LVU5
  42 0006 0020     		movs	r0, #0
  43              	.LVL1:
  44              		.loc 1 76 1 view .LVU6
  45 0008 02B0     		add	sp, sp, #8
  46              		@ sp needed
  47 000a 7047     		bx	lr
  48              		.cfi_endproc
  49              	.LFE40:
  51              		.section	.text.USB_EnableGlobalInt,"ax",%progbits
  52              		.align	1
  53              		.global	USB_EnableGlobalInt
  54              		.syntax unified
  55              		.code	16
  56              		.thumb_func
  58              	USB_EnableGlobalInt:
  59              	.LVL2:
  60              	.LFB41:
  77:Drivers/STM32F0xx_HAL_Driver/Src/stm32f0xx_ll_usb.c **** 
  78:Drivers/STM32F0xx_HAL_Driver/Src/stm32f0xx_ll_usb.c **** /**
  79:Drivers/STM32F0xx_HAL_Driver/Src/stm32f0xx_ll_usb.c ****   * @brief  USB_EnableGlobalInt
  80:Drivers/STM32F0xx_HAL_Driver/Src/stm32f0xx_ll_usb.c ****   *         Enables the controller's Global Int in the AHB Config reg
  81:Drivers/STM32F0xx_HAL_Driver/Src/stm32f0xx_ll_usb.c ****   * @param  USBx Selected device
  82:Drivers/STM32F0xx_HAL_Driver/Src/stm32f0xx_ll_usb.c ****   * @retval HAL status
  83:Drivers/STM32F0xx_HAL_Driver/Src/stm32f0xx_ll_usb.c ****   */
  84:Drivers/STM32F0xx_HAL_Driver/Src/stm32f0xx_ll_usb.c **** HAL_StatusTypeDef USB_EnableGlobalInt(USB_TypeDef *USBx)
  85:Drivers/STM32F0xx_HAL_Driver/Src/stm32f0xx_ll_usb.c **** {
  61              		.loc 1 85 1 is_stmt 1 view -0
  62              		.cfi_startproc
  63              		@ args = 0, pretend = 0, frame = 0
  64              		@ frame_needed = 0, uses_anonymous_args = 0
  65              		@ link register save eliminated.
  86:Drivers/STM32F0xx_HAL_Driver/Src/stm32f0xx_ll_usb.c ****   uint32_t winterruptmask;
  66              		.loc 1 86 3 view .LVU8
  87:Drivers/STM32F0xx_HAL_Driver/Src/stm32f0xx_ll_usb.c **** 
  88:Drivers/STM32F0xx_HAL_Driver/Src/stm32f0xx_ll_usb.c ****   /* Clear pending interrupts */
  89:Drivers/STM32F0xx_HAL_Driver/Src/stm32f0xx_ll_usb.c ****   USBx->ISTR = 0U;
  67              		.loc 1 89 3 view .LVU9
  68              		.loc 1 89 14 is_stmt 0 view .LVU10
  69 0000 4423     		movs	r3, #68
  70 0002 0022     		movs	r2, #0
  71 0004 C252     		strh	r2, [r0, r3]
  90:Drivers/STM32F0xx_HAL_Driver/Src/stm32f0xx_ll_usb.c **** 
  91:Drivers/STM32F0xx_HAL_Driver/Src/stm32f0xx_ll_usb.c ****   /* Set winterruptmask variable */
  92:Drivers/STM32F0xx_HAL_Driver/Src/stm32f0xx_ll_usb.c ****   winterruptmask = USB_CNTR_CTRM  | USB_CNTR_WKUPM |
  72              		.loc 1 92 3 is_stmt 1 view .LVU11
  73              	.LVL3:
  93:Drivers/STM32F0xx_HAL_Driver/Src/stm32f0xx_ll_usb.c ****                    USB_CNTR_SUSPM | USB_CNTR_ERRM |
  94:Drivers/STM32F0xx_HAL_Driver/Src/stm32f0xx_ll_usb.c ****                    USB_CNTR_SOFM | USB_CNTR_ESOFM |
  95:Drivers/STM32F0xx_HAL_Driver/Src/stm32f0xx_ll_usb.c ****                    USB_CNTR_RESETM | USB_CNTR_L1REQM;
  96:Drivers/STM32F0xx_HAL_Driver/Src/stm32f0xx_ll_usb.c **** 
  97:Drivers/STM32F0xx_HAL_Driver/Src/stm32f0xx_ll_usb.c ****   /* Set interrupt mask */
  98:Drivers/STM32F0xx_HAL_Driver/Src/stm32f0xx_ll_usb.c ****   USBx->CNTR = (uint16_t)winterruptmask;
  74              		.loc 1 98 3 view .LVU12
  75              		.loc 1 98 14 is_stmt 0 view .LVU13
  76 0006 043B     		subs	r3, r3, #4
ARM GAS  /tmp/cceQvfFh.s 			page 4


  77 0008 014A     		ldr	r2, .L3
  78 000a C252     		strh	r2, [r0, r3]
  99:Drivers/STM32F0xx_HAL_Driver/Src/stm32f0xx_ll_usb.c **** 
 100:Drivers/STM32F0xx_HAL_Driver/Src/stm32f0xx_ll_usb.c ****   return HAL_OK;
  79              		.loc 1 100 3 is_stmt 1 view .LVU14
 101:Drivers/STM32F0xx_HAL_Driver/Src/stm32f0xx_ll_usb.c **** }
  80              		.loc 1 101 1 is_stmt 0 view .LVU15
  81 000c 0020     		movs	r0, #0
  82              	.LVL4:
  83              		.loc 1 101 1 view .LVU16
  84              		@ sp needed
  85 000e 7047     		bx	lr
  86              	.L4:
  87              		.align	2
  88              	.L3:
  89 0010 80BFFFFF 		.word	-16512
  90              		.cfi_endproc
  91              	.LFE41:
  93              		.section	.text.USB_DisableGlobalInt,"ax",%progbits
  94              		.align	1
  95              		.global	USB_DisableGlobalInt
  96              		.syntax unified
  97              		.code	16
  98              		.thumb_func
 100              	USB_DisableGlobalInt:
 101              	.LVL5:
 102              	.LFB42:
 102:Drivers/STM32F0xx_HAL_Driver/Src/stm32f0xx_ll_usb.c **** 
 103:Drivers/STM32F0xx_HAL_Driver/Src/stm32f0xx_ll_usb.c **** /**
 104:Drivers/STM32F0xx_HAL_Driver/Src/stm32f0xx_ll_usb.c ****   * @brief  USB_DisableGlobalInt
 105:Drivers/STM32F0xx_HAL_Driver/Src/stm32f0xx_ll_usb.c ****   *         Disable the controller's Global Int in the AHB Config reg
 106:Drivers/STM32F0xx_HAL_Driver/Src/stm32f0xx_ll_usb.c ****   * @param  USBx Selected device
 107:Drivers/STM32F0xx_HAL_Driver/Src/stm32f0xx_ll_usb.c ****   * @retval HAL status
 108:Drivers/STM32F0xx_HAL_Driver/Src/stm32f0xx_ll_usb.c ****   */
 109:Drivers/STM32F0xx_HAL_Driver/Src/stm32f0xx_ll_usb.c **** HAL_StatusTypeDef USB_DisableGlobalInt(USB_TypeDef *USBx)
 110:Drivers/STM32F0xx_HAL_Driver/Src/stm32f0xx_ll_usb.c **** {
 103              		.loc 1 110 1 is_stmt 1 view -0
 104              		.cfi_startproc
 105              		@ args = 0, pretend = 0, frame = 0
 106              		@ frame_needed = 0, uses_anonymous_args = 0
 107              		@ link register save eliminated.
 111:Drivers/STM32F0xx_HAL_Driver/Src/stm32f0xx_ll_usb.c ****   uint32_t winterruptmask;
 108              		.loc 1 111 3 view .LVU18
 112:Drivers/STM32F0xx_HAL_Driver/Src/stm32f0xx_ll_usb.c **** 
 113:Drivers/STM32F0xx_HAL_Driver/Src/stm32f0xx_ll_usb.c ****   /* Set winterruptmask variable */
 114:Drivers/STM32F0xx_HAL_Driver/Src/stm32f0xx_ll_usb.c ****   winterruptmask = USB_CNTR_CTRM  | USB_CNTR_WKUPM |
 109              		.loc 1 114 3 view .LVU19
 115:Drivers/STM32F0xx_HAL_Driver/Src/stm32f0xx_ll_usb.c ****                    USB_CNTR_SUSPM | USB_CNTR_ERRM |
 116:Drivers/STM32F0xx_HAL_Driver/Src/stm32f0xx_ll_usb.c ****                    USB_CNTR_SOFM | USB_CNTR_ESOFM |
 117:Drivers/STM32F0xx_HAL_Driver/Src/stm32f0xx_ll_usb.c ****                    USB_CNTR_RESETM | USB_CNTR_L1REQM;
 118:Drivers/STM32F0xx_HAL_Driver/Src/stm32f0xx_ll_usb.c **** 
 119:Drivers/STM32F0xx_HAL_Driver/Src/stm32f0xx_ll_usb.c ****   /* Clear interrupt mask */
 120:Drivers/STM32F0xx_HAL_Driver/Src/stm32f0xx_ll_usb.c ****   USBx->CNTR &= (uint16_t)(~winterruptmask);
 110              		.loc 1 120 3 view .LVU20
 111              		.loc 1 120 7 is_stmt 0 view .LVU21
 112 0000 4022     		movs	r2, #64
 113 0002 835A     		ldrh	r3, [r0, r2]
ARM GAS  /tmp/cceQvfFh.s 			page 5


 114              		.loc 1 120 14 view .LVU22
 115 0004 0249     		ldr	r1, .L6
 116 0006 0B40     		ands	r3, r1
 117 0008 8352     		strh	r3, [r0, r2]
 121:Drivers/STM32F0xx_HAL_Driver/Src/stm32f0xx_ll_usb.c **** 
 122:Drivers/STM32F0xx_HAL_Driver/Src/stm32f0xx_ll_usb.c ****   return HAL_OK;
 118              		.loc 1 122 3 is_stmt 1 view .LVU23
 123:Drivers/STM32F0xx_HAL_Driver/Src/stm32f0xx_ll_usb.c **** }
 119              		.loc 1 123 1 is_stmt 0 view .LVU24
 120 000a 0020     		movs	r0, #0
 121              	.LVL6:
 122              		.loc 1 123 1 view .LVU25
 123              		@ sp needed
 124 000c 7047     		bx	lr
 125              	.L7:
 126 000e C046     		.align	2
 127              	.L6:
 128 0010 7F400000 		.word	16511
 129              		.cfi_endproc
 130              	.LFE42:
 132              		.section	.text.USB_SetCurrentMode,"ax",%progbits
 133              		.align	1
 134              		.global	USB_SetCurrentMode
 135              		.syntax unified
 136              		.code	16
 137              		.thumb_func
 139              	USB_SetCurrentMode:
 140              	.LVL7:
 141              	.LFB43:
 124:Drivers/STM32F0xx_HAL_Driver/Src/stm32f0xx_ll_usb.c **** 
 125:Drivers/STM32F0xx_HAL_Driver/Src/stm32f0xx_ll_usb.c **** /**
 126:Drivers/STM32F0xx_HAL_Driver/Src/stm32f0xx_ll_usb.c ****   * @brief  USB_SetCurrentMode Set functional mode
 127:Drivers/STM32F0xx_HAL_Driver/Src/stm32f0xx_ll_usb.c ****   * @param  USBx Selected device
 128:Drivers/STM32F0xx_HAL_Driver/Src/stm32f0xx_ll_usb.c ****   * @param  mode current core mode
 129:Drivers/STM32F0xx_HAL_Driver/Src/stm32f0xx_ll_usb.c ****   *          This parameter can be one of the these values:
 130:Drivers/STM32F0xx_HAL_Driver/Src/stm32f0xx_ll_usb.c ****   *            @arg USB_DEVICE_MODE Peripheral mode
 131:Drivers/STM32F0xx_HAL_Driver/Src/stm32f0xx_ll_usb.c ****   * @retval HAL status
 132:Drivers/STM32F0xx_HAL_Driver/Src/stm32f0xx_ll_usb.c ****   */
 133:Drivers/STM32F0xx_HAL_Driver/Src/stm32f0xx_ll_usb.c **** HAL_StatusTypeDef USB_SetCurrentMode(USB_TypeDef *USBx, USB_ModeTypeDef mode)
 134:Drivers/STM32F0xx_HAL_Driver/Src/stm32f0xx_ll_usb.c **** {
 142              		.loc 1 134 1 is_stmt 1 view -0
 143              		.cfi_startproc
 144              		@ args = 0, pretend = 0, frame = 0
 145              		@ frame_needed = 0, uses_anonymous_args = 0
 146              		@ link register save eliminated.
 135:Drivers/STM32F0xx_HAL_Driver/Src/stm32f0xx_ll_usb.c ****   /* Prevent unused argument(s) compilation warning */
 136:Drivers/STM32F0xx_HAL_Driver/Src/stm32f0xx_ll_usb.c ****   UNUSED(USBx);
 147              		.loc 1 136 3 view .LVU27
 137:Drivers/STM32F0xx_HAL_Driver/Src/stm32f0xx_ll_usb.c ****   UNUSED(mode);
 148              		.loc 1 137 3 view .LVU28
 138:Drivers/STM32F0xx_HAL_Driver/Src/stm32f0xx_ll_usb.c **** 
 139:Drivers/STM32F0xx_HAL_Driver/Src/stm32f0xx_ll_usb.c ****   /* NOTE : - This function is not required by USB Device FS peripheral, it is used
 140:Drivers/STM32F0xx_HAL_Driver/Src/stm32f0xx_ll_usb.c ****               only by USB OTG FS peripheral.
 141:Drivers/STM32F0xx_HAL_Driver/Src/stm32f0xx_ll_usb.c ****             - This function is added to ensure compatibility across platforms.
 142:Drivers/STM32F0xx_HAL_Driver/Src/stm32f0xx_ll_usb.c ****    */
 143:Drivers/STM32F0xx_HAL_Driver/Src/stm32f0xx_ll_usb.c ****   return HAL_OK;
 149              		.loc 1 143 3 view .LVU29
ARM GAS  /tmp/cceQvfFh.s 			page 6


 144:Drivers/STM32F0xx_HAL_Driver/Src/stm32f0xx_ll_usb.c **** }
 150              		.loc 1 144 1 is_stmt 0 view .LVU30
 151 0000 0020     		movs	r0, #0
 152              	.LVL8:
 153              		.loc 1 144 1 view .LVU31
 154              		@ sp needed
 155 0002 7047     		bx	lr
 156              		.cfi_endproc
 157              	.LFE43:
 159              		.section	.text.USB_DevInit,"ax",%progbits
 160              		.align	1
 161              		.global	USB_DevInit
 162              		.syntax unified
 163              		.code	16
 164              		.thumb_func
 166              	USB_DevInit:
 167              	.LVL9:
 168              	.LFB44:
 145:Drivers/STM32F0xx_HAL_Driver/Src/stm32f0xx_ll_usb.c **** 
 146:Drivers/STM32F0xx_HAL_Driver/Src/stm32f0xx_ll_usb.c **** /**
 147:Drivers/STM32F0xx_HAL_Driver/Src/stm32f0xx_ll_usb.c ****   * @brief  USB_DevInit Initializes the USB controller registers
 148:Drivers/STM32F0xx_HAL_Driver/Src/stm32f0xx_ll_usb.c ****   *         for device mode
 149:Drivers/STM32F0xx_HAL_Driver/Src/stm32f0xx_ll_usb.c ****   * @param  USBx Selected device
 150:Drivers/STM32F0xx_HAL_Driver/Src/stm32f0xx_ll_usb.c ****   * @param  cfg  pointer to a USB_CfgTypeDef structure that contains
 151:Drivers/STM32F0xx_HAL_Driver/Src/stm32f0xx_ll_usb.c ****   *         the configuration information for the specified USBx peripheral.
 152:Drivers/STM32F0xx_HAL_Driver/Src/stm32f0xx_ll_usb.c ****   * @retval HAL status
 153:Drivers/STM32F0xx_HAL_Driver/Src/stm32f0xx_ll_usb.c ****   */
 154:Drivers/STM32F0xx_HAL_Driver/Src/stm32f0xx_ll_usb.c **** HAL_StatusTypeDef USB_DevInit(USB_TypeDef *USBx, USB_CfgTypeDef cfg)
 155:Drivers/STM32F0xx_HAL_Driver/Src/stm32f0xx_ll_usb.c **** {
 169              		.loc 1 155 1 is_stmt 1 view -0
 170              		.cfi_startproc
 171              		@ args = 0, pretend = 0, frame = 8
 172              		@ frame_needed = 0, uses_anonymous_args = 0
 173              		@ link register save eliminated.
 174              		.loc 1 155 1 is_stmt 0 view .LVU33
 175 0000 82B0     		sub	sp, sp, #8
 176              		.cfi_def_cfa_offset 8
 177 0002 0091     		str	r1, [sp]
 178 0004 0192     		str	r2, [sp, #4]
 156:Drivers/STM32F0xx_HAL_Driver/Src/stm32f0xx_ll_usb.c ****   /* Prevent unused argument(s) compilation warning */
 157:Drivers/STM32F0xx_HAL_Driver/Src/stm32f0xx_ll_usb.c ****   UNUSED(cfg);
 179              		.loc 1 157 3 is_stmt 1 view .LVU34
 158:Drivers/STM32F0xx_HAL_Driver/Src/stm32f0xx_ll_usb.c **** 
 159:Drivers/STM32F0xx_HAL_Driver/Src/stm32f0xx_ll_usb.c ****   /* Init Device */
 160:Drivers/STM32F0xx_HAL_Driver/Src/stm32f0xx_ll_usb.c ****   /* CNTR_FRES = 1 */
 161:Drivers/STM32F0xx_HAL_Driver/Src/stm32f0xx_ll_usb.c ****   USBx->CNTR = (uint16_t)USB_CNTR_FRES;
 180              		.loc 1 161 3 view .LVU35
 181              		.loc 1 161 14 is_stmt 0 view .LVU36
 182 0006 4022     		movs	r2, #64
 183 0008 0123     		movs	r3, #1
 184 000a 8352     		strh	r3, [r0, r2]
 162:Drivers/STM32F0xx_HAL_Driver/Src/stm32f0xx_ll_usb.c **** 
 163:Drivers/STM32F0xx_HAL_Driver/Src/stm32f0xx_ll_usb.c ****   /* CNTR_FRES = 0 */
 164:Drivers/STM32F0xx_HAL_Driver/Src/stm32f0xx_ll_usb.c ****   USBx->CNTR = 0U;
 185              		.loc 1 164 3 is_stmt 1 view .LVU37
 186              		.loc 1 164 14 is_stmt 0 view .LVU38
 187 000c 0023     		movs	r3, #0
ARM GAS  /tmp/cceQvfFh.s 			page 7


 188 000e 8352     		strh	r3, [r0, r2]
 165:Drivers/STM32F0xx_HAL_Driver/Src/stm32f0xx_ll_usb.c **** 
 166:Drivers/STM32F0xx_HAL_Driver/Src/stm32f0xx_ll_usb.c ****   /* Clear pending interrupts */
 167:Drivers/STM32F0xx_HAL_Driver/Src/stm32f0xx_ll_usb.c ****   USBx->ISTR = 0U;
 189              		.loc 1 167 3 is_stmt 1 view .LVU39
 190              		.loc 1 167 14 is_stmt 0 view .LVU40
 191 0010 0432     		adds	r2, r2, #4
 192 0012 8352     		strh	r3, [r0, r2]
 168:Drivers/STM32F0xx_HAL_Driver/Src/stm32f0xx_ll_usb.c **** 
 169:Drivers/STM32F0xx_HAL_Driver/Src/stm32f0xx_ll_usb.c ****   /*Set Btable Address*/
 170:Drivers/STM32F0xx_HAL_Driver/Src/stm32f0xx_ll_usb.c ****   USBx->BTABLE = BTABLE_ADDRESS;
 193              		.loc 1 170 3 is_stmt 1 view .LVU41
 194              		.loc 1 170 16 is_stmt 0 view .LVU42
 195 0014 0C32     		adds	r2, r2, #12
 196 0016 8352     		strh	r3, [r0, r2]
 171:Drivers/STM32F0xx_HAL_Driver/Src/stm32f0xx_ll_usb.c **** 
 172:Drivers/STM32F0xx_HAL_Driver/Src/stm32f0xx_ll_usb.c ****   return HAL_OK;
 197              		.loc 1 172 3 is_stmt 1 view .LVU43
 173:Drivers/STM32F0xx_HAL_Driver/Src/stm32f0xx_ll_usb.c **** }
 198              		.loc 1 173 1 is_stmt 0 view .LVU44
 199 0018 0020     		movs	r0, #0
 200              	.LVL10:
 201              		.loc 1 173 1 view .LVU45
 202 001a 02B0     		add	sp, sp, #8
 203              		@ sp needed
 204 001c 7047     		bx	lr
 205              		.cfi_endproc
 206              	.LFE44:
 208              		.section	.text.USB_FlushTxFifo,"ax",%progbits
 209              		.align	1
 210              		.global	USB_FlushTxFifo
 211              		.syntax unified
 212              		.code	16
 213              		.thumb_func
 215              	USB_FlushTxFifo:
 216              	.LVL11:
 217              	.LFB45:
 174:Drivers/STM32F0xx_HAL_Driver/Src/stm32f0xx_ll_usb.c **** 
 175:Drivers/STM32F0xx_HAL_Driver/Src/stm32f0xx_ll_usb.c **** /**
 176:Drivers/STM32F0xx_HAL_Driver/Src/stm32f0xx_ll_usb.c ****   * @brief  USB_FlushTxFifo : Flush a Tx FIFO
 177:Drivers/STM32F0xx_HAL_Driver/Src/stm32f0xx_ll_usb.c ****   * @param  USBx : Selected device
 178:Drivers/STM32F0xx_HAL_Driver/Src/stm32f0xx_ll_usb.c ****   * @param  num : FIFO number
 179:Drivers/STM32F0xx_HAL_Driver/Src/stm32f0xx_ll_usb.c ****   *         This parameter can be a value from 1 to 15
 180:Drivers/STM32F0xx_HAL_Driver/Src/stm32f0xx_ll_usb.c ****             15 means Flush all Tx FIFOs
 181:Drivers/STM32F0xx_HAL_Driver/Src/stm32f0xx_ll_usb.c ****   * @retval HAL status
 182:Drivers/STM32F0xx_HAL_Driver/Src/stm32f0xx_ll_usb.c ****   */
 183:Drivers/STM32F0xx_HAL_Driver/Src/stm32f0xx_ll_usb.c **** HAL_StatusTypeDef USB_FlushTxFifo(USB_TypeDef const *USBx, uint32_t num)
 184:Drivers/STM32F0xx_HAL_Driver/Src/stm32f0xx_ll_usb.c **** {
 218              		.loc 1 184 1 is_stmt 1 view -0
 219              		.cfi_startproc
 220              		@ args = 0, pretend = 0, frame = 0
 221              		@ frame_needed = 0, uses_anonymous_args = 0
 222              		@ link register save eliminated.
 185:Drivers/STM32F0xx_HAL_Driver/Src/stm32f0xx_ll_usb.c ****   /* Prevent unused argument(s) compilation warning */
 186:Drivers/STM32F0xx_HAL_Driver/Src/stm32f0xx_ll_usb.c ****   UNUSED(USBx);
 223              		.loc 1 186 3 view .LVU47
 187:Drivers/STM32F0xx_HAL_Driver/Src/stm32f0xx_ll_usb.c ****   UNUSED(num);
ARM GAS  /tmp/cceQvfFh.s 			page 8


 224              		.loc 1 187 3 view .LVU48
 188:Drivers/STM32F0xx_HAL_Driver/Src/stm32f0xx_ll_usb.c **** 
 189:Drivers/STM32F0xx_HAL_Driver/Src/stm32f0xx_ll_usb.c ****   /* NOTE : - This function is not required by USB Device FS peripheral, it is used
 190:Drivers/STM32F0xx_HAL_Driver/Src/stm32f0xx_ll_usb.c ****               only by USB OTG FS peripheral.
 191:Drivers/STM32F0xx_HAL_Driver/Src/stm32f0xx_ll_usb.c ****             - This function is added to ensure compatibility across platforms.
 192:Drivers/STM32F0xx_HAL_Driver/Src/stm32f0xx_ll_usb.c ****    */
 193:Drivers/STM32F0xx_HAL_Driver/Src/stm32f0xx_ll_usb.c **** 
 194:Drivers/STM32F0xx_HAL_Driver/Src/stm32f0xx_ll_usb.c ****   return HAL_OK;
 225              		.loc 1 194 3 view .LVU49
 195:Drivers/STM32F0xx_HAL_Driver/Src/stm32f0xx_ll_usb.c **** }
 226              		.loc 1 195 1 is_stmt 0 view .LVU50
 227 0000 0020     		movs	r0, #0
 228              	.LVL12:
 229              		.loc 1 195 1 view .LVU51
 230              		@ sp needed
 231 0002 7047     		bx	lr
 232              		.cfi_endproc
 233              	.LFE45:
 235              		.section	.text.USB_FlushRxFifo,"ax",%progbits
 236              		.align	1
 237              		.global	USB_FlushRxFifo
 238              		.syntax unified
 239              		.code	16
 240              		.thumb_func
 242              	USB_FlushRxFifo:
 243              	.LVL13:
 244              	.LFB46:
 196:Drivers/STM32F0xx_HAL_Driver/Src/stm32f0xx_ll_usb.c **** 
 197:Drivers/STM32F0xx_HAL_Driver/Src/stm32f0xx_ll_usb.c **** /**
 198:Drivers/STM32F0xx_HAL_Driver/Src/stm32f0xx_ll_usb.c ****   * @brief  USB_FlushRxFifo : Flush Rx FIFO
 199:Drivers/STM32F0xx_HAL_Driver/Src/stm32f0xx_ll_usb.c ****   * @param  USBx : Selected device
 200:Drivers/STM32F0xx_HAL_Driver/Src/stm32f0xx_ll_usb.c ****   * @retval HAL status
 201:Drivers/STM32F0xx_HAL_Driver/Src/stm32f0xx_ll_usb.c ****   */
 202:Drivers/STM32F0xx_HAL_Driver/Src/stm32f0xx_ll_usb.c **** HAL_StatusTypeDef USB_FlushRxFifo(USB_TypeDef const *USBx)
 203:Drivers/STM32F0xx_HAL_Driver/Src/stm32f0xx_ll_usb.c **** {
 245              		.loc 1 203 1 is_stmt 1 view -0
 246              		.cfi_startproc
 247              		@ args = 0, pretend = 0, frame = 0
 248              		@ frame_needed = 0, uses_anonymous_args = 0
 249              		@ link register save eliminated.
 204:Drivers/STM32F0xx_HAL_Driver/Src/stm32f0xx_ll_usb.c ****   /* Prevent unused argument(s) compilation warning */
 205:Drivers/STM32F0xx_HAL_Driver/Src/stm32f0xx_ll_usb.c ****   UNUSED(USBx);
 250              		.loc 1 205 3 view .LVU53
 206:Drivers/STM32F0xx_HAL_Driver/Src/stm32f0xx_ll_usb.c **** 
 207:Drivers/STM32F0xx_HAL_Driver/Src/stm32f0xx_ll_usb.c ****   /* NOTE : - This function is not required by USB Device FS peripheral, it is used
 208:Drivers/STM32F0xx_HAL_Driver/Src/stm32f0xx_ll_usb.c ****               only by USB OTG FS peripheral.
 209:Drivers/STM32F0xx_HAL_Driver/Src/stm32f0xx_ll_usb.c ****             - This function is added to ensure compatibility across platforms.
 210:Drivers/STM32F0xx_HAL_Driver/Src/stm32f0xx_ll_usb.c ****    */
 211:Drivers/STM32F0xx_HAL_Driver/Src/stm32f0xx_ll_usb.c **** 
 212:Drivers/STM32F0xx_HAL_Driver/Src/stm32f0xx_ll_usb.c ****   return HAL_OK;
 251              		.loc 1 212 3 view .LVU54
 213:Drivers/STM32F0xx_HAL_Driver/Src/stm32f0xx_ll_usb.c **** }
 252              		.loc 1 213 1 is_stmt 0 view .LVU55
 253 0000 0020     		movs	r0, #0
 254              	.LVL14:
 255              		.loc 1 213 1 view .LVU56
 256              		@ sp needed
ARM GAS  /tmp/cceQvfFh.s 			page 9


 257 0002 7047     		bx	lr
 258              		.cfi_endproc
 259              	.LFE46:
 261              		.section	.text.USB_ActivateEndpoint,"ax",%progbits
 262              		.align	1
 263              		.global	USB_ActivateEndpoint
 264              		.syntax unified
 265              		.code	16
 266              		.thumb_func
 268              	USB_ActivateEndpoint:
 269              	.LVL15:
 270              	.LFB47:
 214:Drivers/STM32F0xx_HAL_Driver/Src/stm32f0xx_ll_usb.c **** 
 215:Drivers/STM32F0xx_HAL_Driver/Src/stm32f0xx_ll_usb.c **** 
 216:Drivers/STM32F0xx_HAL_Driver/Src/stm32f0xx_ll_usb.c **** #if defined (HAL_PCD_MODULE_ENABLED)
 217:Drivers/STM32F0xx_HAL_Driver/Src/stm32f0xx_ll_usb.c **** /**
 218:Drivers/STM32F0xx_HAL_Driver/Src/stm32f0xx_ll_usb.c ****   * @brief  Activate and configure an endpoint
 219:Drivers/STM32F0xx_HAL_Driver/Src/stm32f0xx_ll_usb.c ****   * @param  USBx Selected device
 220:Drivers/STM32F0xx_HAL_Driver/Src/stm32f0xx_ll_usb.c ****   * @param  ep pointer to endpoint structure
 221:Drivers/STM32F0xx_HAL_Driver/Src/stm32f0xx_ll_usb.c ****   * @retval HAL status
 222:Drivers/STM32F0xx_HAL_Driver/Src/stm32f0xx_ll_usb.c ****   */
 223:Drivers/STM32F0xx_HAL_Driver/Src/stm32f0xx_ll_usb.c **** HAL_StatusTypeDef USB_ActivateEndpoint(USB_TypeDef *USBx, USB_EPTypeDef *ep)
 224:Drivers/STM32F0xx_HAL_Driver/Src/stm32f0xx_ll_usb.c **** {
 271              		.loc 1 224 1 is_stmt 1 view -0
 272              		.cfi_startproc
 273              		@ args = 0, pretend = 0, frame = 0
 274              		@ frame_needed = 0, uses_anonymous_args = 0
 275              		.loc 1 224 1 is_stmt 0 view .LVU58
 276 0000 F0B5     		push	{r4, r5, r6, r7, lr}
 277              		.cfi_def_cfa_offset 20
 278              		.cfi_offset 4, -20
 279              		.cfi_offset 5, -16
 280              		.cfi_offset 6, -12
 281              		.cfi_offset 7, -8
 282              		.cfi_offset 14, -4
 283 0002 0300     		movs	r3, r0
 225:Drivers/STM32F0xx_HAL_Driver/Src/stm32f0xx_ll_usb.c ****   HAL_StatusTypeDef ret = HAL_OK;
 284              		.loc 1 225 3 is_stmt 1 view .LVU59
 285              	.LVL16:
 226:Drivers/STM32F0xx_HAL_Driver/Src/stm32f0xx_ll_usb.c ****   uint16_t wEpRegVal;
 286              		.loc 1 226 3 view .LVU60
 227:Drivers/STM32F0xx_HAL_Driver/Src/stm32f0xx_ll_usb.c **** 
 228:Drivers/STM32F0xx_HAL_Driver/Src/stm32f0xx_ll_usb.c ****   wEpRegVal = PCD_GET_ENDPOINT(USBx, ep->num) & USB_EP_T_MASK;
 287              		.loc 1 228 3 view .LVU61
 288              		.loc 1 228 15 is_stmt 0 view .LVU62
 289 0004 0D78     		ldrb	r5, [r1]
 290 0006 AD00     		lsls	r5, r5, #2
 291 0008 4519     		adds	r5, r0, r5
 292              		.loc 1 228 47 view .LVU63
 293 000a 2A88     		ldrh	r2, [r5]
 294              		.loc 1 228 13 view .LVU64
 295 000c B948     		ldr	r0, .L51
 296              	.LVL17:
 297              		.loc 1 228 13 view .LVU65
 298 000e 0240     		ands	r2, r0
 299              	.LVL18:
 229:Drivers/STM32F0xx_HAL_Driver/Src/stm32f0xx_ll_usb.c **** 
ARM GAS  /tmp/cceQvfFh.s 			page 10


 230:Drivers/STM32F0xx_HAL_Driver/Src/stm32f0xx_ll_usb.c ****   /* initialize Endpoint */
 231:Drivers/STM32F0xx_HAL_Driver/Src/stm32f0xx_ll_usb.c ****   switch (ep->type)
 300              		.loc 1 231 3 is_stmt 1 view .LVU66
 301              		.loc 1 231 13 is_stmt 0 view .LVU67
 302 0010 C878     		ldrb	r0, [r1, #3]
 303              		.loc 1 231 3 view .LVU68
 304 0012 0228     		cmp	r0, #2
 305 0014 57D0     		beq	.L39
 306 0016 0AD8     		bhi	.L14
 307 0018 0028     		cmp	r0, #0
 308 001a 11D0     		beq	.L15
 309 001c 0128     		cmp	r0, #1
 310 001e 04D1     		bne	.L48
 232:Drivers/STM32F0xx_HAL_Driver/Src/stm32f0xx_ll_usb.c ****   {
 233:Drivers/STM32F0xx_HAL_Driver/Src/stm32f0xx_ll_usb.c ****     case EP_TYPE_CTRL:
 234:Drivers/STM32F0xx_HAL_Driver/Src/stm32f0xx_ll_usb.c ****       wEpRegVal |= USB_EP_CONTROL;
 235:Drivers/STM32F0xx_HAL_Driver/Src/stm32f0xx_ll_usb.c ****       break;
 236:Drivers/STM32F0xx_HAL_Driver/Src/stm32f0xx_ll_usb.c **** 
 237:Drivers/STM32F0xx_HAL_Driver/Src/stm32f0xx_ll_usb.c ****     case EP_TYPE_BULK:
 238:Drivers/STM32F0xx_HAL_Driver/Src/stm32f0xx_ll_usb.c ****       wEpRegVal |= USB_EP_BULK;
 239:Drivers/STM32F0xx_HAL_Driver/Src/stm32f0xx_ll_usb.c ****       break;
 240:Drivers/STM32F0xx_HAL_Driver/Src/stm32f0xx_ll_usb.c **** 
 241:Drivers/STM32F0xx_HAL_Driver/Src/stm32f0xx_ll_usb.c ****     case EP_TYPE_INTR:
 242:Drivers/STM32F0xx_HAL_Driver/Src/stm32f0xx_ll_usb.c ****       wEpRegVal |= USB_EP_INTERRUPT;
 243:Drivers/STM32F0xx_HAL_Driver/Src/stm32f0xx_ll_usb.c ****       break;
 244:Drivers/STM32F0xx_HAL_Driver/Src/stm32f0xx_ll_usb.c **** 
 245:Drivers/STM32F0xx_HAL_Driver/Src/stm32f0xx_ll_usb.c ****     case EP_TYPE_ISOC:
 246:Drivers/STM32F0xx_HAL_Driver/Src/stm32f0xx_ll_usb.c ****       wEpRegVal |= USB_EP_ISOCHRONOUS;
 311              		.loc 1 246 7 is_stmt 1 view .LVU69
 312              		.loc 1 246 17 is_stmt 0 view .LVU70
 313 0020 8020     		movs	r0, #128
 314 0022 C000     		lsls	r0, r0, #3
 315 0024 0243     		orrs	r2, r0
 316              	.LVL19:
 247:Drivers/STM32F0xx_HAL_Driver/Src/stm32f0xx_ll_usb.c ****       break;
 317              		.loc 1 247 7 is_stmt 1 view .LVU71
 225:Drivers/STM32F0xx_HAL_Driver/Src/stm32f0xx_ll_usb.c ****   uint16_t wEpRegVal;
 318              		.loc 1 225 21 is_stmt 0 view .LVU72
 319 0026 0020     		movs	r0, #0
 320              		.loc 1 247 7 view .LVU73
 321 0028 0DE0     		b	.L13
 322              	.L48:
 248:Drivers/STM32F0xx_HAL_Driver/Src/stm32f0xx_ll_usb.c **** 
 249:Drivers/STM32F0xx_HAL_Driver/Src/stm32f0xx_ll_usb.c ****     default:
 250:Drivers/STM32F0xx_HAL_Driver/Src/stm32f0xx_ll_usb.c ****       ret = HAL_ERROR;
 323              		.loc 1 250 11 view .LVU74
 324 002a 0120     		movs	r0, #1
 325 002c 0BE0     		b	.L13
 326              	.L14:
 231:Drivers/STM32F0xx_HAL_Driver/Src/stm32f0xx_ll_usb.c ****   {
 327              		.loc 1 231 3 view .LVU75
 328 002e 0328     		cmp	r0, #3
 329 0030 04D1     		bne	.L49
 242:Drivers/STM32F0xx_HAL_Driver/Src/stm32f0xx_ll_usb.c ****       break;
 330              		.loc 1 242 7 is_stmt 1 view .LVU76
 242:Drivers/STM32F0xx_HAL_Driver/Src/stm32f0xx_ll_usb.c ****       break;
 331              		.loc 1 242 17 is_stmt 0 view .LVU77
ARM GAS  /tmp/cceQvfFh.s 			page 11


 332 0032 C020     		movs	r0, #192
 333 0034 C000     		lsls	r0, r0, #3
 334 0036 0243     		orrs	r2, r0
 335              	.LVL20:
 243:Drivers/STM32F0xx_HAL_Driver/Src/stm32f0xx_ll_usb.c **** 
 336              		.loc 1 243 7 is_stmt 1 view .LVU78
 225:Drivers/STM32F0xx_HAL_Driver/Src/stm32f0xx_ll_usb.c ****   uint16_t wEpRegVal;
 337              		.loc 1 225 21 is_stmt 0 view .LVU79
 338 0038 0020     		movs	r0, #0
 243:Drivers/STM32F0xx_HAL_Driver/Src/stm32f0xx_ll_usb.c **** 
 339              		.loc 1 243 7 view .LVU80
 340 003a 04E0     		b	.L13
 341              	.L49:
 342              		.loc 1 250 11 view .LVU81
 343 003c 0120     		movs	r0, #1
 344 003e 02E0     		b	.L13
 345              	.L15:
 234:Drivers/STM32F0xx_HAL_Driver/Src/stm32f0xx_ll_usb.c ****       break;
 346              		.loc 1 234 7 is_stmt 1 view .LVU82
 234:Drivers/STM32F0xx_HAL_Driver/Src/stm32f0xx_ll_usb.c ****       break;
 347              		.loc 1 234 17 is_stmt 0 view .LVU83
 348 0040 8024     		movs	r4, #128
 349 0042 A400     		lsls	r4, r4, #2
 350 0044 2243     		orrs	r2, r4
 351              	.LVL21:
 235:Drivers/STM32F0xx_HAL_Driver/Src/stm32f0xx_ll_usb.c **** 
 352              		.loc 1 235 7 is_stmt 1 view .LVU84
 353              	.L13:
 251:Drivers/STM32F0xx_HAL_Driver/Src/stm32f0xx_ll_usb.c ****       break;
 252:Drivers/STM32F0xx_HAL_Driver/Src/stm32f0xx_ll_usb.c ****   }
 253:Drivers/STM32F0xx_HAL_Driver/Src/stm32f0xx_ll_usb.c **** 
 254:Drivers/STM32F0xx_HAL_Driver/Src/stm32f0xx_ll_usb.c ****   PCD_SET_ENDPOINT(USBx, ep->num, (wEpRegVal | USB_EP_CTR_RX | USB_EP_CTR_TX));
 354              		.loc 1 254 3 view .LVU85
 355 0046 AC4C     		ldr	r4, .L51+4
 356 0048 2243     		orrs	r2, r4
 357              	.LVL22:
 358              		.loc 1 254 3 is_stmt 0 view .LVU86
 359 004a 92B2     		uxth	r2, r2
 360 004c 2A80     		strh	r2, [r5]
 255:Drivers/STM32F0xx_HAL_Driver/Src/stm32f0xx_ll_usb.c **** 
 256:Drivers/STM32F0xx_HAL_Driver/Src/stm32f0xx_ll_usb.c ****   PCD_SET_EP_ADDRESS(USBx, ep->num, ep->num);
 361              		.loc 1 256 3 is_stmt 1 view .LVU87
 362              	.LBB2:
 363              		.loc 1 256 3 view .LVU88
 364              		.loc 1 256 3 view .LVU89
 365 004e 0D78     		ldrb	r5, [r1]
 366 0050 AA00     		lsls	r2, r5, #2
 367 0052 9A18     		adds	r2, r3, r2
 368 0054 1688     		ldrh	r6, [r2]
 369 0056 A94F     		ldr	r7, .L51+8
 370 0058 3E40     		ands	r6, r7
 371 005a 3543     		orrs	r5, r6
 372              	.LVL23:
 373              		.loc 1 256 3 view .LVU90
 374 005c 2C43     		orrs	r4, r5
 375 005e A4B2     		uxth	r4, r4
 376 0060 1480     		strh	r4, [r2]
ARM GAS  /tmp/cceQvfFh.s 			page 12


 377              	.LBE2:
 378              		.loc 1 256 3 view .LVU91
 257:Drivers/STM32F0xx_HAL_Driver/Src/stm32f0xx_ll_usb.c **** 
 258:Drivers/STM32F0xx_HAL_Driver/Src/stm32f0xx_ll_usb.c ****   if (ep->doublebuffer == 0U)
 379              		.loc 1 258 3 view .LVU92
 380              		.loc 1 258 9 is_stmt 0 view .LVU93
 381 0062 0A7B     		ldrb	r2, [r1, #12]
 382              		.loc 1 258 6 view .LVU94
 383 0064 002A     		cmp	r2, #0
 384 0066 00D0     		beq	.LCB296
 385 0068 9EE0     		b	.L18	@long jump
 386              	.LCB296:
 259:Drivers/STM32F0xx_HAL_Driver/Src/stm32f0xx_ll_usb.c ****   {
 260:Drivers/STM32F0xx_HAL_Driver/Src/stm32f0xx_ll_usb.c ****     if (ep->is_in != 0U)
 387              		.loc 1 260 5 is_stmt 1 view .LVU95
 388              		.loc 1 260 11 is_stmt 0 view .LVU96
 389 006a 4A78     		ldrb	r2, [r1, #1]
 390              		.loc 1 260 8 view .LVU97
 391 006c 002A     		cmp	r2, #0
 392 006e 37D0     		beq	.L19
 261:Drivers/STM32F0xx_HAL_Driver/Src/stm32f0xx_ll_usb.c ****     {
 262:Drivers/STM32F0xx_HAL_Driver/Src/stm32f0xx_ll_usb.c ****       /*Set the endpoint Transmit buffer address */
 263:Drivers/STM32F0xx_HAL_Driver/Src/stm32f0xx_ll_usb.c ****       PCD_SET_EP_TX_ADDRESS(USBx, ep->num, ep->pmaadress);
 393              		.loc 1 263 7 is_stmt 1 view .LVU98
 394              	.LBB3:
 395              		.loc 1 263 7 view .LVU99
 396              		.loc 1 263 7 view .LVU100
 397              	.LVL24:
 398              		.loc 1 263 7 view .LVU101
 399 0070 5022     		movs	r2, #80
 400 0072 9C5A     		ldrh	r4, [r3, r2]
 401 0074 1C19     		adds	r4, r3, r4
 402              	.LVL25:
 403              		.loc 1 263 7 view .LVU102
 404 0076 0A78     		ldrb	r2, [r1]
 405 0078 D200     		lsls	r2, r2, #3
 406 007a 1219     		adds	r2, r2, r4
 407 007c 8024     		movs	r4, #128
 408              	.LVL26:
 409              		.loc 1 263 7 is_stmt 0 view .LVU103
 410 007e E400     		lsls	r4, r4, #3
 411 0080 A446     		mov	ip, r4
 412 0082 6244     		add	r2, r2, ip
 413              	.LVL27:
 414              		.loc 1 263 7 is_stmt 1 view .LVU104
 415 0084 CC88     		ldrh	r4, [r1, #6]
 416 0086 6408     		lsrs	r4, r4, #1
 417 0088 6400     		lsls	r4, r4, #1
 418 008a 1480     		strh	r4, [r2]
 419              	.LBE3:
 420              		.loc 1 263 7 view .LVU105
 264:Drivers/STM32F0xx_HAL_Driver/Src/stm32f0xx_ll_usb.c ****       PCD_CLEAR_TX_DTOG(USBx, ep->num);
 421              		.loc 1 264 7 view .LVU106
 422              	.LBB4:
 423              		.loc 1 264 7 view .LVU107
 424              		.loc 1 264 7 view .LVU108
 425 008c 0A78     		ldrb	r2, [r1]
ARM GAS  /tmp/cceQvfFh.s 			page 13


 426              	.LVL28:
 427              		.loc 1 264 7 is_stmt 0 view .LVU109
 428 008e 9200     		lsls	r2, r2, #2
 429 0090 9A18     		adds	r2, r3, r2
 430 0092 1488     		ldrh	r4, [r2]
 431              	.LVL29:
 432              		.loc 1 264 7 is_stmt 1 view .LVU110
 433 0094 6406     		lsls	r4, r4, #25
 434 0096 05D5     		bpl	.L20
 435              	.LVL30:
 436              		.loc 1 264 7 discriminator 1 view .LVU111
 437              	.LBB5:
 438              		.loc 1 264 7 discriminator 1 view .LVU112
 439              		.loc 1 264 7 discriminator 1 view .LVU113
 440 0098 1588     		ldrh	r5, [r2]
 441              	.LVL31:
 442              		.loc 1 264 7 is_stmt 0 discriminator 1 view .LVU114
 443 009a 3D40     		ands	r5, r7
 444              	.LVL32:
 445              		.loc 1 264 7 is_stmt 1 view .LVU115
 446              		.loc 1 264 7 is_stmt 0 discriminator 1 view .LVU116
 447 009c 984C     		ldr	r4, .L51+12
 448 009e 2C43     		orrs	r4, r5
 449 00a0 A4B2     		uxth	r4, r4
 450 00a2 1480     		strh	r4, [r2]
 451              	.LVL33:
 452              	.L20:
 453              		.loc 1 264 7 discriminator 1 view .LVU117
 454              	.LBE5:
 455              		.loc 1 264 7 is_stmt 1 discriminator 3 view .LVU118
 456              	.LBE4:
 457              		.loc 1 264 7 discriminator 3 view .LVU119
 265:Drivers/STM32F0xx_HAL_Driver/Src/stm32f0xx_ll_usb.c **** 
 266:Drivers/STM32F0xx_HAL_Driver/Src/stm32f0xx_ll_usb.c ****       if (ep->type != EP_TYPE_ISOC)
 458              		.loc 1 266 7 view .LVU120
 459              		.loc 1 266 13 is_stmt 0 view .LVU121
 460 00a4 CA78     		ldrb	r2, [r1, #3]
 461              		.loc 1 266 10 view .LVU122
 462 00a6 012A     		cmp	r2, #1
 463 00a8 0FD0     		beq	.L21
 267:Drivers/STM32F0xx_HAL_Driver/Src/stm32f0xx_ll_usb.c ****       {
 268:Drivers/STM32F0xx_HAL_Driver/Src/stm32f0xx_ll_usb.c ****         /* Configure NAK status for the Endpoint */
 269:Drivers/STM32F0xx_HAL_Driver/Src/stm32f0xx_ll_usb.c ****         PCD_SET_EP_TX_STATUS(USBx, ep->num, USB_EP_TX_NAK);
 464              		.loc 1 269 9 is_stmt 1 view .LVU123
 465              	.LBB6:
 466              		.loc 1 269 9 view .LVU124
 467              		.loc 1 269 9 view .LVU125
 468 00aa 0A78     		ldrb	r2, [r1]
 469 00ac 9200     		lsls	r2, r2, #2
 470 00ae 9A18     		adds	r2, r3, r2
 471 00b0 1388     		ldrh	r3, [r2]
 472              	.LVL34:
 473              		.loc 1 269 9 is_stmt 0 view .LVU126
 474 00b2 9449     		ldr	r1, .L51+16
 475              	.LVL35:
 476              		.loc 1 269 9 view .LVU127
 477 00b4 0B40     		ands	r3, r1
ARM GAS  /tmp/cceQvfFh.s 			page 14


 478              	.LVL36:
 479              		.loc 1 269 9 is_stmt 1 view .LVU128
 480              		.loc 1 269 9 discriminator 3 view .LVU129
 481              		.loc 1 269 9 discriminator 4 view .LVU130
 482 00b6 2021     		movs	r1, #32
 483 00b8 4B40     		eors	r3, r1
 484              	.LVL37:
 485              		.loc 1 269 9 is_stmt 0 discriminator 4 view .LVU131
 486 00ba 9BB2     		uxth	r3, r3
 487              	.LVL38:
 488              		.loc 1 269 9 is_stmt 1 discriminator 6 view .LVU132
 489 00bc 8E49     		ldr	r1, .L51+4
 490 00be 0B43     		orrs	r3, r1
 491              	.LVL39:
 492              		.loc 1 269 9 is_stmt 0 discriminator 6 view .LVU133
 493 00c0 9BB2     		uxth	r3, r3
 494 00c2 1380     		strh	r3, [r2]
 495              	.LBE6:
 496              		.loc 1 269 9 is_stmt 1 view .LVU134
 497 00c4 CAE0     		b	.L22
 498              	.LVL40:
 499              	.L39:
 231:Drivers/STM32F0xx_HAL_Driver/Src/stm32f0xx_ll_usb.c ****   {
 500              		.loc 1 231 3 is_stmt 0 view .LVU135
 501 00c6 0020     		movs	r0, #0
 502 00c8 BDE7     		b	.L13
 503              	.LVL41:
 504              	.L21:
 270:Drivers/STM32F0xx_HAL_Driver/Src/stm32f0xx_ll_usb.c ****       }
 271:Drivers/STM32F0xx_HAL_Driver/Src/stm32f0xx_ll_usb.c ****       else
 272:Drivers/STM32F0xx_HAL_Driver/Src/stm32f0xx_ll_usb.c ****       {
 273:Drivers/STM32F0xx_HAL_Driver/Src/stm32f0xx_ll_usb.c ****         /* Configure TX Endpoint to disabled state */
 274:Drivers/STM32F0xx_HAL_Driver/Src/stm32f0xx_ll_usb.c ****         PCD_SET_EP_TX_STATUS(USBx, ep->num, USB_EP_TX_DIS);
 505              		.loc 1 274 9 is_stmt 1 view .LVU136
 506              	.LBB7:
 507              		.loc 1 274 9 view .LVU137
 508              		.loc 1 274 9 view .LVU138
 509 00ca 0A78     		ldrb	r2, [r1]
 510 00cc 9200     		lsls	r2, r2, #2
 511 00ce 9B18     		adds	r3, r3, r2
 512              	.LVL42:
 513              		.loc 1 274 9 is_stmt 0 view .LVU139
 514 00d0 1988     		ldrh	r1, [r3]
 515              	.LVL43:
 516              		.loc 1 274 9 view .LVU140
 517 00d2 8C4A     		ldr	r2, .L51+16
 518 00d4 1140     		ands	r1, r2
 519              	.LVL44:
 520              		.loc 1 274 9 is_stmt 1 view .LVU141
 521              		.loc 1 274 9 discriminator 3 view .LVU142
 522              		.loc 1 274 9 discriminator 6 view .LVU143
 523 00d6 884A     		ldr	r2, .L51+4
 524 00d8 0A43     		orrs	r2, r1
 525 00da 92B2     		uxth	r2, r2
 526 00dc 1A80     		strh	r2, [r3]
 527 00de BDE0     		b	.L22
 528              	.LVL45:
ARM GAS  /tmp/cceQvfFh.s 			page 15


 529              	.L19:
 530              		.loc 1 274 9 is_stmt 0 discriminator 6 view .LVU144
 531              	.LBE7:
 275:Drivers/STM32F0xx_HAL_Driver/Src/stm32f0xx_ll_usb.c ****       }
 276:Drivers/STM32F0xx_HAL_Driver/Src/stm32f0xx_ll_usb.c ****     }
 277:Drivers/STM32F0xx_HAL_Driver/Src/stm32f0xx_ll_usb.c ****     else
 278:Drivers/STM32F0xx_HAL_Driver/Src/stm32f0xx_ll_usb.c ****     {
 279:Drivers/STM32F0xx_HAL_Driver/Src/stm32f0xx_ll_usb.c ****       /* Set the endpoint Receive buffer address */
 280:Drivers/STM32F0xx_HAL_Driver/Src/stm32f0xx_ll_usb.c ****       PCD_SET_EP_RX_ADDRESS(USBx, ep->num, ep->pmaadress);
 532              		.loc 1 280 7 is_stmt 1 view .LVU145
 533              	.LBB8:
 534              		.loc 1 280 7 view .LVU146
 535              		.loc 1 280 7 view .LVU147
 536              		.loc 1 280 7 view .LVU148
 537 00e0 5025     		movs	r5, #80
 538              	.LVL46:
 539              		.loc 1 280 7 is_stmt 0 view .LVU149
 540 00e2 5C5B     		ldrh	r4, [r3, r5]
 541 00e4 1C19     		adds	r4, r3, r4
 542              	.LVL47:
 543              		.loc 1 280 7 is_stmt 1 view .LVU150
 544 00e6 0A78     		ldrb	r2, [r1]
 545 00e8 D200     		lsls	r2, r2, #3
 546 00ea 1219     		adds	r2, r2, r4
 547 00ec 864C     		ldr	r4, .L51+20
 548              	.LVL48:
 549              		.loc 1 280 7 is_stmt 0 view .LVU151
 550 00ee A446     		mov	ip, r4
 551 00f0 6244     		add	r2, r2, ip
 552              	.LVL49:
 553              		.loc 1 280 7 is_stmt 1 view .LVU152
 554 00f2 CC88     		ldrh	r4, [r1, #6]
 555 00f4 6408     		lsrs	r4, r4, #1
 556 00f6 6400     		lsls	r4, r4, #1
 557 00f8 1480     		strh	r4, [r2]
 558              	.LBE8:
 559              		.loc 1 280 7 view .LVU153
 281:Drivers/STM32F0xx_HAL_Driver/Src/stm32f0xx_ll_usb.c **** 
 282:Drivers/STM32F0xx_HAL_Driver/Src/stm32f0xx_ll_usb.c ****       /* Set the endpoint Receive buffer counter */
 283:Drivers/STM32F0xx_HAL_Driver/Src/stm32f0xx_ll_usb.c ****       PCD_SET_EP_RX_CNT(USBx, ep->num, ep->maxpacket);
 560              		.loc 1 283 7 view .LVU154
 561              	.LBB9:
 562              		.loc 1 283 7 view .LVU155
 563              	.LVL50:
 564              		.loc 1 283 7 view .LVU156
 565              		.loc 1 283 7 view .LVU157
 566 00fa 5C5B     		ldrh	r4, [r3, r5]
 567 00fc 1C19     		adds	r4, r3, r4
 568              	.LVL51:
 569              		.loc 1 283 7 view .LVU158
 570 00fe 0A78     		ldrb	r2, [r1]
 571              	.LVL52:
 572              		.loc 1 283 7 is_stmt 0 view .LVU159
 573 0100 D200     		lsls	r2, r2, #3
 574 0102 1219     		adds	r2, r2, r4
 575 0104 814C     		ldr	r4, .L51+24
 576              	.LVL53:
ARM GAS  /tmp/cceQvfFh.s 			page 16


 577              		.loc 1 283 7 view .LVU160
 578 0106 A446     		mov	ip, r4
 579 0108 6244     		add	r2, r2, ip
 580              	.LVL54:
 581              		.loc 1 283 7 is_stmt 1 view .LVU161
 582              	.LBB10:
 583              		.loc 1 283 7 view .LVU162
 584              		.loc 1 283 7 view .LVU163
 585 010a 1488     		ldrh	r4, [r2]
 586 010c A405     		lsls	r4, r4, #22
 587 010e A40D     		lsrs	r4, r4, #22
 588 0110 1480     		strh	r4, [r2]
 589              		.loc 1 283 7 view .LVU164
 590 0112 0C69     		ldr	r4, [r1, #16]
 591 0114 002C     		cmp	r4, #0
 592 0116 21D1     		bne	.L23
 593              		.loc 1 283 7 discriminator 1 view .LVU165
 594 0118 1488     		ldrh	r4, [r2]
 595 011a 7D4D     		ldr	r5, .L51+28
 596 011c 2C43     		orrs	r4, r5
 597 011e A4B2     		uxth	r4, r4
 598 0120 1480     		strh	r4, [r2]
 599              	.L24:
 600              		.loc 1 283 7 discriminator 13 view .LVU166
 601              	.LBE10:
 602              		.loc 1 283 7 discriminator 13 view .LVU167
 603              	.LBE9:
 604              		.loc 1 283 7 discriminator 13 view .LVU168
 284:Drivers/STM32F0xx_HAL_Driver/Src/stm32f0xx_ll_usb.c ****       PCD_CLEAR_RX_DTOG(USBx, ep->num);
 605              		.loc 1 284 7 view .LVU169
 606              	.LBB12:
 607              		.loc 1 284 7 view .LVU170
 608              		.loc 1 284 7 view .LVU171
 609 0122 0A78     		ldrb	r2, [r1]
 610              	.LVL55:
 611              		.loc 1 284 7 is_stmt 0 view .LVU172
 612 0124 9200     		lsls	r2, r2, #2
 613 0126 9A18     		adds	r2, r3, r2
 614 0128 1488     		ldrh	r4, [r2]
 615              	.LVL56:
 616              		.loc 1 284 7 is_stmt 1 view .LVU173
 617 012a 6404     		lsls	r4, r4, #17
 618 012c 06D5     		bpl	.L28
 619              	.LVL57:
 620              		.loc 1 284 7 discriminator 1 view .LVU174
 621              	.LBB13:
 622              		.loc 1 284 7 discriminator 1 view .LVU175
 623              		.loc 1 284 7 discriminator 1 view .LVU176
 624 012e 1588     		ldrh	r5, [r2]
 625 0130 724C     		ldr	r4, .L51+8
 626 0132 2540     		ands	r5, r4
 627              	.LVL58:
 628              		.loc 1 284 7 view .LVU177
 629              		.loc 1 284 7 is_stmt 0 discriminator 1 view .LVU178
 630 0134 774C     		ldr	r4, .L51+32
 631 0136 2C43     		orrs	r4, r5
 632 0138 A4B2     		uxth	r4, r4
ARM GAS  /tmp/cceQvfFh.s 			page 17


 633 013a 1480     		strh	r4, [r2]
 634              	.LVL59:
 635              	.L28:
 636              		.loc 1 284 7 discriminator 1 view .LVU179
 637              	.LBE13:
 638              		.loc 1 284 7 is_stmt 1 discriminator 3 view .LVU180
 639              	.LBE12:
 640              		.loc 1 284 7 discriminator 3 view .LVU181
 285:Drivers/STM32F0xx_HAL_Driver/Src/stm32f0xx_ll_usb.c **** 
 286:Drivers/STM32F0xx_HAL_Driver/Src/stm32f0xx_ll_usb.c ****       if (ep->num == 0U)
 641              		.loc 1 286 7 view .LVU182
 642              		.loc 1 286 13 is_stmt 0 view .LVU183
 643 013c 0A78     		ldrb	r2, [r1]
 644              		.loc 1 286 10 view .LVU184
 645 013e 002A     		cmp	r2, #0
 646 0140 25D1     		bne	.L29
 287:Drivers/STM32F0xx_HAL_Driver/Src/stm32f0xx_ll_usb.c ****       {
 288:Drivers/STM32F0xx_HAL_Driver/Src/stm32f0xx_ll_usb.c ****         /* Configure VALID status for EP0 */
 289:Drivers/STM32F0xx_HAL_Driver/Src/stm32f0xx_ll_usb.c ****         PCD_SET_EP_RX_STATUS(USBx, ep->num, USB_EP_RX_VALID);
 647              		.loc 1 289 9 is_stmt 1 view .LVU185
 648              	.LBB14:
 649              		.loc 1 289 9 view .LVU186
 650              		.loc 1 289 9 view .LVU187
 651 0142 9200     		lsls	r2, r2, #2
 652 0144 9A18     		adds	r2, r3, r2
 653 0146 1388     		ldrh	r3, [r2]
 654              	.LVL60:
 655              		.loc 1 289 9 is_stmt 0 view .LVU188
 656 0148 7349     		ldr	r1, .L51+36
 657              	.LVL61:
 658              		.loc 1 289 9 view .LVU189
 659 014a 0B40     		ands	r3, r1
 660              	.LVL62:
 661              		.loc 1 289 9 is_stmt 1 view .LVU190
 662              		.loc 1 289 9 discriminator 1 view .LVU191
 663              		.loc 1 289 9 discriminator 3 view .LVU192
 664              		.loc 1 289 9 discriminator 4 view .LVU193
 665 014c C021     		movs	r1, #192
 666 014e 8901     		lsls	r1, r1, #6
 667 0150 5940     		eors	r1, r3
 668              	.LVL63:
 669              		.loc 1 289 9 discriminator 6 view .LVU194
 670 0152 694B     		ldr	r3, .L51+4
 671 0154 0B43     		orrs	r3, r1
 672 0156 9BB2     		uxth	r3, r3
 673 0158 1380     		strh	r3, [r2]
 674              	.LBE14:
 675              		.loc 1 289 9 view .LVU195
 676 015a 7FE0     		b	.L22
 677              	.LVL64:
 678              	.L23:
 679              	.LBB15:
 680              	.LBB11:
 283:Drivers/STM32F0xx_HAL_Driver/Src/stm32f0xx_ll_usb.c ****       PCD_CLEAR_RX_DTOG(USBx, ep->num);
 681              		.loc 1 283 7 discriminator 2 view .LVU196
 682 015c 3E2C     		cmp	r4, #62
 683 015e 09D8     		bhi	.L25
ARM GAS  /tmp/cceQvfFh.s 			page 18


 283:Drivers/STM32F0xx_HAL_Driver/Src/stm32f0xx_ll_usb.c ****       PCD_CLEAR_RX_DTOG(USBx, ep->num);
 684              		.loc 1 283 7 discriminator 4 view .LVU197
 283:Drivers/STM32F0xx_HAL_Driver/Src/stm32f0xx_ll_usb.c ****       PCD_CLEAR_RX_DTOG(USBx, ep->num);
 685              		.loc 1 283 7 discriminator 4 view .LVU198
 686 0160 6508     		lsrs	r5, r4, #1
 687              	.LVL65:
 283:Drivers/STM32F0xx_HAL_Driver/Src/stm32f0xx_ll_usb.c ****       PCD_CLEAR_RX_DTOG(USBx, ep->num);
 688              		.loc 1 283 7 view .LVU199
 283:Drivers/STM32F0xx_HAL_Driver/Src/stm32f0xx_ll_usb.c ****       PCD_CLEAR_RX_DTOG(USBx, ep->num);
 689              		.loc 1 283 7 is_stmt 0 discriminator 4 view .LVU200
 690 0162 E407     		lsls	r4, r4, #31
 691 0164 00D5     		bpl	.L26
 283:Drivers/STM32F0xx_HAL_Driver/Src/stm32f0xx_ll_usb.c ****       PCD_CLEAR_RX_DTOG(USBx, ep->num);
 692              		.loc 1 283 7 is_stmt 1 discriminator 6 view .LVU201
 693 0166 0135     		adds	r5, r5, #1
 694              	.LVL66:
 695              	.L26:
 283:Drivers/STM32F0xx_HAL_Driver/Src/stm32f0xx_ll_usb.c ****       PCD_CLEAR_RX_DTOG(USBx, ep->num);
 696              		.loc 1 283 7 discriminator 8 view .LVU202
 697 0168 1488     		ldrh	r4, [r2]
 698 016a AD02     		lsls	r5, r5, #10
 699              	.LVL67:
 283:Drivers/STM32F0xx_HAL_Driver/Src/stm32f0xx_ll_usb.c ****       PCD_CLEAR_RX_DTOG(USBx, ep->num);
 700              		.loc 1 283 7 is_stmt 0 discriminator 8 view .LVU203
 701 016c ADB2     		uxth	r5, r5
 702 016e 2C43     		orrs	r4, r5
 703 0170 1480     		strh	r4, [r2]
 283:Drivers/STM32F0xx_HAL_Driver/Src/stm32f0xx_ll_usb.c ****       PCD_CLEAR_RX_DTOG(USBx, ep->num);
 704              		.loc 1 283 7 is_stmt 1 view .LVU204
 705 0172 D6E7     		b	.L24
 706              	.LVL68:
 707              	.L25:
 283:Drivers/STM32F0xx_HAL_Driver/Src/stm32f0xx_ll_usb.c ****       PCD_CLEAR_RX_DTOG(USBx, ep->num);
 708              		.loc 1 283 7 discriminator 5 view .LVU205
 283:Drivers/STM32F0xx_HAL_Driver/Src/stm32f0xx_ll_usb.c ****       PCD_CLEAR_RX_DTOG(USBx, ep->num);
 709              		.loc 1 283 7 discriminator 5 view .LVU206
 710 0174 6509     		lsrs	r5, r4, #5
 711              	.LVL69:
 283:Drivers/STM32F0xx_HAL_Driver/Src/stm32f0xx_ll_usb.c ****       PCD_CLEAR_RX_DTOG(USBx, ep->num);
 712              		.loc 1 283 7 view .LVU207
 283:Drivers/STM32F0xx_HAL_Driver/Src/stm32f0xx_ll_usb.c ****       PCD_CLEAR_RX_DTOG(USBx, ep->num);
 713              		.loc 1 283 7 is_stmt 0 discriminator 5 view .LVU208
 714 0176 E406     		lsls	r4, r4, #27
 715 0178 00D1     		bne	.L27
 283:Drivers/STM32F0xx_HAL_Driver/Src/stm32f0xx_ll_usb.c ****       PCD_CLEAR_RX_DTOG(USBx, ep->num);
 716              		.loc 1 283 7 is_stmt 1 discriminator 10 view .LVU209
 717 017a 013D     		subs	r5, r5, #1
 718              	.LVL70:
 719              	.L27:
 283:Drivers/STM32F0xx_HAL_Driver/Src/stm32f0xx_ll_usb.c ****       PCD_CLEAR_RX_DTOG(USBx, ep->num);
 720              		.loc 1 283 7 discriminator 12 view .LVU210
 721 017c 1488     		ldrh	r4, [r2]
 722 017e AD02     		lsls	r5, r5, #10
 723              	.LVL71:
 283:Drivers/STM32F0xx_HAL_Driver/Src/stm32f0xx_ll_usb.c ****       PCD_CLEAR_RX_DTOG(USBx, ep->num);
 724              		.loc 1 283 7 is_stmt 0 discriminator 12 view .LVU211
 725 0180 ADB2     		uxth	r5, r5
ARM GAS  /tmp/cceQvfFh.s 			page 19


 726 0182 2543     		orrs	r5, r4
 727 0184 624C     		ldr	r4, .L51+28
 728 0186 2C43     		orrs	r4, r5
 729 0188 A4B2     		uxth	r4, r4
 730 018a 1480     		strh	r4, [r2]
 731 018c C9E7     		b	.L24
 732              	.LVL72:
 733              	.L29:
 283:Drivers/STM32F0xx_HAL_Driver/Src/stm32f0xx_ll_usb.c ****       PCD_CLEAR_RX_DTOG(USBx, ep->num);
 734              		.loc 1 283 7 discriminator 12 view .LVU212
 735              	.LBE11:
 736              	.LBE15:
 290:Drivers/STM32F0xx_HAL_Driver/Src/stm32f0xx_ll_usb.c ****       }
 291:Drivers/STM32F0xx_HAL_Driver/Src/stm32f0xx_ll_usb.c ****       else
 292:Drivers/STM32F0xx_HAL_Driver/Src/stm32f0xx_ll_usb.c ****       {
 293:Drivers/STM32F0xx_HAL_Driver/Src/stm32f0xx_ll_usb.c ****         /* Configure NAK status for OUT Endpoint */
 294:Drivers/STM32F0xx_HAL_Driver/Src/stm32f0xx_ll_usb.c ****         PCD_SET_EP_RX_STATUS(USBx, ep->num, USB_EP_RX_NAK);
 737              		.loc 1 294 9 is_stmt 1 view .LVU213
 738              	.LBB16:
 739              		.loc 1 294 9 view .LVU214
 740              		.loc 1 294 9 view .LVU215
 741 018e 9200     		lsls	r2, r2, #2
 742 0190 9A18     		adds	r2, r3, r2
 743 0192 1388     		ldrh	r3, [r2]
 744              	.LVL73:
 745              		.loc 1 294 9 is_stmt 0 view .LVU216
 746 0194 6049     		ldr	r1, .L51+36
 747              	.LVL74:
 748              		.loc 1 294 9 view .LVU217
 749 0196 0B40     		ands	r3, r1
 750              	.LVL75:
 751              		.loc 1 294 9 is_stmt 1 view .LVU218
 752              		.loc 1 294 9 discriminator 3 view .LVU219
 753              		.loc 1 294 9 discriminator 4 view .LVU220
 754 0198 8021     		movs	r1, #128
 755 019a 8901     		lsls	r1, r1, #6
 756 019c 5940     		eors	r1, r3
 757              	.LVL76:
 758              		.loc 1 294 9 discriminator 6 view .LVU221
 759 019e 564B     		ldr	r3, .L51+4
 760 01a0 0B43     		orrs	r3, r1
 761 01a2 9BB2     		uxth	r3, r3
 762 01a4 1380     		strh	r3, [r2]
 763 01a6 59E0     		b	.L22
 764              	.LVL77:
 765              	.L18:
 766              		.loc 1 294 9 is_stmt 0 discriminator 6 view .LVU222
 767              	.LBE16:
 295:Drivers/STM32F0xx_HAL_Driver/Src/stm32f0xx_ll_usb.c ****       }
 296:Drivers/STM32F0xx_HAL_Driver/Src/stm32f0xx_ll_usb.c ****     }
 297:Drivers/STM32F0xx_HAL_Driver/Src/stm32f0xx_ll_usb.c ****   }
 298:Drivers/STM32F0xx_HAL_Driver/Src/stm32f0xx_ll_usb.c **** #if (USE_USB_DOUBLE_BUFFER == 1U)
 299:Drivers/STM32F0xx_HAL_Driver/Src/stm32f0xx_ll_usb.c ****   /* Double Buffer */
 300:Drivers/STM32F0xx_HAL_Driver/Src/stm32f0xx_ll_usb.c ****   else
 301:Drivers/STM32F0xx_HAL_Driver/Src/stm32f0xx_ll_usb.c ****   {
 302:Drivers/STM32F0xx_HAL_Driver/Src/stm32f0xx_ll_usb.c ****     if (ep->type == EP_TYPE_BULK)
 768              		.loc 1 302 5 is_stmt 1 view .LVU223
ARM GAS  /tmp/cceQvfFh.s 			page 20


 769              		.loc 1 302 11 is_stmt 0 view .LVU224
 770 01a8 CA78     		ldrb	r2, [r1, #3]
 771              		.loc 1 302 8 view .LVU225
 772 01aa 022A     		cmp	r2, #2
 773 01ac 57D0     		beq	.L50
 303:Drivers/STM32F0xx_HAL_Driver/Src/stm32f0xx_ll_usb.c ****     {
 304:Drivers/STM32F0xx_HAL_Driver/Src/stm32f0xx_ll_usb.c ****       /* Set bulk endpoint as double buffered */
 305:Drivers/STM32F0xx_HAL_Driver/Src/stm32f0xx_ll_usb.c ****       PCD_SET_BULK_EP_DBUF(USBx, ep->num);
 306:Drivers/STM32F0xx_HAL_Driver/Src/stm32f0xx_ll_usb.c ****     }
 307:Drivers/STM32F0xx_HAL_Driver/Src/stm32f0xx_ll_usb.c ****     else
 308:Drivers/STM32F0xx_HAL_Driver/Src/stm32f0xx_ll_usb.c ****     {
 309:Drivers/STM32F0xx_HAL_Driver/Src/stm32f0xx_ll_usb.c ****       /* Set the ISOC endpoint in double buffer mode */
 310:Drivers/STM32F0xx_HAL_Driver/Src/stm32f0xx_ll_usb.c ****       PCD_CLEAR_EP_KIND(USBx, ep->num);
 774              		.loc 1 310 7 is_stmt 1 view .LVU226
 775              	.LBB17:
 776              		.loc 1 310 7 view .LVU227
 777              		.loc 1 310 7 view .LVU228
 778 01ae 0A78     		ldrb	r2, [r1]
 779 01b0 9200     		lsls	r2, r2, #2
 780 01b2 9A18     		adds	r2, r3, r2
 781 01b4 1588     		ldrh	r5, [r2]
 782              	.LVL78:
 783              		.loc 1 310 7 is_stmt 0 view .LVU229
 784 01b6 594C     		ldr	r4, .L51+40
 785 01b8 2540     		ands	r5, r4
 786              	.LVL79:
 787              		.loc 1 310 7 is_stmt 1 view .LVU230
 788 01ba 4F4C     		ldr	r4, .L51+4
 789 01bc 2C43     		orrs	r4, r5
 790 01be A4B2     		uxth	r4, r4
 791 01c0 1480     		strh	r4, [r2]
 792              	.LVL80:
 793              	.L31:
 794              		.loc 1 310 7 is_stmt 0 view .LVU231
 795              	.LBE17:
 796              		.loc 1 310 7 is_stmt 1 discriminator 1 view .LVU232
 311:Drivers/STM32F0xx_HAL_Driver/Src/stm32f0xx_ll_usb.c ****     }
 312:Drivers/STM32F0xx_HAL_Driver/Src/stm32f0xx_ll_usb.c **** 
 313:Drivers/STM32F0xx_HAL_Driver/Src/stm32f0xx_ll_usb.c ****     /* Set buffer address for double buffered mode */
 314:Drivers/STM32F0xx_HAL_Driver/Src/stm32f0xx_ll_usb.c ****     PCD_SET_EP_DBUF_ADDR(USBx, ep->num, ep->pmaaddr0, ep->pmaaddr1);
 797              		.loc 1 314 5 view .LVU233
 798              		.loc 1 314 5 view .LVU234
 799              		.loc 1 314 5 view .LVU235
 800              	.LBB18:
 801              		.loc 1 314 5 view .LVU236
 802              		.loc 1 314 5 view .LVU237
 803              		.loc 1 314 5 view .LVU238
 804 01c2 5025     		movs	r5, #80
 805 01c4 5C5B     		ldrh	r4, [r3, r5]
 806 01c6 1C19     		adds	r4, r3, r4
 807              	.LVL81:
 808              		.loc 1 314 5 view .LVU239
 809 01c8 0A78     		ldrb	r2, [r1]
 810 01ca D200     		lsls	r2, r2, #3
 811 01cc 1219     		adds	r2, r2, r4
 812 01ce 8024     		movs	r4, #128
 813              	.LVL82:
ARM GAS  /tmp/cceQvfFh.s 			page 21


 814              		.loc 1 314 5 is_stmt 0 view .LVU240
 815 01d0 E400     		lsls	r4, r4, #3
 816 01d2 A446     		mov	ip, r4
 817 01d4 6244     		add	r2, r2, ip
 818              	.LVL83:
 819              		.loc 1 314 5 is_stmt 1 view .LVU241
 820 01d6 0C89     		ldrh	r4, [r1, #8]
 821 01d8 6408     		lsrs	r4, r4, #1
 822 01da 6400     		lsls	r4, r4, #1
 823 01dc 1480     		strh	r4, [r2]
 824              	.LBE18:
 825              		.loc 1 314 5 view .LVU242
 826              		.loc 1 314 5 view .LVU243
 827              		.loc 1 314 5 view .LVU244
 828              		.loc 1 314 5 view .LVU245
 829              	.LBB19:
 830              		.loc 1 314 5 view .LVU246
 831              		.loc 1 314 5 view .LVU247
 832              	.LVL84:
 833              		.loc 1 314 5 view .LVU248
 834 01de 5C5B     		ldrh	r4, [r3, r5]
 835 01e0 1C19     		adds	r4, r3, r4
 836              	.LVL85:
 837              		.loc 1 314 5 view .LVU249
 838 01e2 0A78     		ldrb	r2, [r1]
 839              	.LVL86:
 840              		.loc 1 314 5 is_stmt 0 view .LVU250
 841 01e4 D200     		lsls	r2, r2, #3
 842 01e6 1219     		adds	r2, r2, r4
 843 01e8 474C     		ldr	r4, .L51+20
 844              	.LVL87:
 845              		.loc 1 314 5 view .LVU251
 846 01ea A446     		mov	ip, r4
 847 01ec 6244     		add	r2, r2, ip
 848              	.LVL88:
 849              		.loc 1 314 5 is_stmt 1 view .LVU252
 850 01ee 4C89     		ldrh	r4, [r1, #10]
 851 01f0 6408     		lsrs	r4, r4, #1
 852 01f2 6400     		lsls	r4, r4, #1
 853 01f4 1480     		strh	r4, [r2]
 854              	.LBE19:
 855              		.loc 1 314 5 view .LVU253
 856              		.loc 1 314 5 view .LVU254
 857              		.loc 1 314 5 view .LVU255
 315:Drivers/STM32F0xx_HAL_Driver/Src/stm32f0xx_ll_usb.c **** 
 316:Drivers/STM32F0xx_HAL_Driver/Src/stm32f0xx_ll_usb.c ****     if (ep->is_in == 0U)
 858              		.loc 1 316 5 view .LVU256
 859              		.loc 1 316 11 is_stmt 0 view .LVU257
 860 01f6 4A78     		ldrb	r2, [r1, #1]
 861              	.LVL89:
 862              		.loc 1 316 8 view .LVU258
 863 01f8 002A     		cmp	r2, #0
 864 01fa 3BD1     		bne	.L32
 317:Drivers/STM32F0xx_HAL_Driver/Src/stm32f0xx_ll_usb.c ****     {
 318:Drivers/STM32F0xx_HAL_Driver/Src/stm32f0xx_ll_usb.c ****       /* Clear the data toggle bits for the endpoint IN/OUT */
 319:Drivers/STM32F0xx_HAL_Driver/Src/stm32f0xx_ll_usb.c ****       PCD_CLEAR_RX_DTOG(USBx, ep->num);
 865              		.loc 1 319 7 is_stmt 1 view .LVU259
ARM GAS  /tmp/cceQvfFh.s 			page 22


 866              	.LBB20:
 867              		.loc 1 319 7 view .LVU260
 868              		.loc 1 319 7 view .LVU261
 869 01fc 0A78     		ldrb	r2, [r1]
 870 01fe 9200     		lsls	r2, r2, #2
 871 0200 9A18     		adds	r2, r3, r2
 872 0202 1488     		ldrh	r4, [r2]
 873              	.LVL90:
 874              		.loc 1 319 7 view .LVU262
 875 0204 6404     		lsls	r4, r4, #17
 876 0206 06D5     		bpl	.L33
 877              	.LVL91:
 878              		.loc 1 319 7 discriminator 1 view .LVU263
 879              	.LBB21:
 880              		.loc 1 319 7 discriminator 1 view .LVU264
 881              		.loc 1 319 7 discriminator 1 view .LVU265
 882 0208 1588     		ldrh	r5, [r2]
 883 020a 3C4C     		ldr	r4, .L51+8
 884 020c 2540     		ands	r5, r4
 885              	.LVL92:
 886              		.loc 1 319 7 view .LVU266
 887              		.loc 1 319 7 is_stmt 0 discriminator 1 view .LVU267
 888 020e 414C     		ldr	r4, .L51+32
 889 0210 2C43     		orrs	r4, r5
 890 0212 A4B2     		uxth	r4, r4
 891 0214 1480     		strh	r4, [r2]
 892              	.LVL93:
 893              	.L33:
 894              		.loc 1 319 7 discriminator 1 view .LVU268
 895              	.LBE21:
 896              		.loc 1 319 7 is_stmt 1 discriminator 3 view .LVU269
 897              	.LBE20:
 898              		.loc 1 319 7 discriminator 3 view .LVU270
 320:Drivers/STM32F0xx_HAL_Driver/Src/stm32f0xx_ll_usb.c ****       PCD_CLEAR_TX_DTOG(USBx, ep->num);
 899              		.loc 1 320 7 view .LVU271
 900              	.LBB22:
 901              		.loc 1 320 7 view .LVU272
 902              		.loc 1 320 7 view .LVU273
 903 0216 0A78     		ldrb	r2, [r1]
 904 0218 9200     		lsls	r2, r2, #2
 905 021a 9A18     		adds	r2, r3, r2
 906 021c 1488     		ldrh	r4, [r2]
 907              	.LVL94:
 908              		.loc 1 320 7 view .LVU274
 909 021e 6406     		lsls	r4, r4, #25
 910 0220 06D5     		bpl	.L34
 911              	.LVL95:
 912              		.loc 1 320 7 discriminator 1 view .LVU275
 913              	.LBB23:
 914              		.loc 1 320 7 discriminator 1 view .LVU276
 915              		.loc 1 320 7 discriminator 1 view .LVU277
 916 0222 1588     		ldrh	r5, [r2]
 917 0224 354C     		ldr	r4, .L51+8
 918 0226 2540     		ands	r5, r4
 919              	.LVL96:
 920              		.loc 1 320 7 view .LVU278
 921              		.loc 1 320 7 is_stmt 0 discriminator 1 view .LVU279
ARM GAS  /tmp/cceQvfFh.s 			page 23


 922 0228 354C     		ldr	r4, .L51+12
 923 022a 2C43     		orrs	r4, r5
 924 022c A4B2     		uxth	r4, r4
 925 022e 1480     		strh	r4, [r2]
 926              	.LVL97:
 927              	.L34:
 928              		.loc 1 320 7 discriminator 1 view .LVU280
 929              	.LBE23:
 930              		.loc 1 320 7 is_stmt 1 discriminator 3 view .LVU281
 931              	.LBE22:
 932              		.loc 1 320 7 discriminator 3 view .LVU282
 321:Drivers/STM32F0xx_HAL_Driver/Src/stm32f0xx_ll_usb.c **** 
 322:Drivers/STM32F0xx_HAL_Driver/Src/stm32f0xx_ll_usb.c ****       PCD_SET_EP_RX_STATUS(USBx, ep->num, USB_EP_RX_VALID);
 933              		.loc 1 322 7 view .LVU283
 934              	.LBB24:
 935              		.loc 1 322 7 view .LVU284
 936              		.loc 1 322 7 view .LVU285
 937 0230 0C78     		ldrb	r4, [r1]
 938 0232 A400     		lsls	r4, r4, #2
 939 0234 1C19     		adds	r4, r3, r4
 940 0236 2588     		ldrh	r5, [r4]
 941 0238 374A     		ldr	r2, .L51+36
 942 023a 1540     		ands	r5, r2
 943              	.LVL98:
 944              		.loc 1 322 7 view .LVU286
 945              		.loc 1 322 7 discriminator 1 view .LVU287
 946              		.loc 1 322 7 discriminator 3 view .LVU288
 947              		.loc 1 322 7 discriminator 4 view .LVU289
 948 023c C022     		movs	r2, #192
 949 023e 9201     		lsls	r2, r2, #6
 950 0240 6A40     		eors	r2, r5
 951              	.LVL99:
 952              		.loc 1 322 7 discriminator 6 view .LVU290
 953 0242 2D4D     		ldr	r5, .L51+4
 954 0244 2A43     		orrs	r2, r5
 955              	.LVL100:
 956              		.loc 1 322 7 is_stmt 0 discriminator 6 view .LVU291
 957 0246 92B2     		uxth	r2, r2
 958 0248 2280     		strh	r2, [r4]
 959              	.LBE24:
 960              		.loc 1 322 7 is_stmt 1 view .LVU292
 323:Drivers/STM32F0xx_HAL_Driver/Src/stm32f0xx_ll_usb.c ****       PCD_SET_EP_TX_STATUS(USBx, ep->num, USB_EP_TX_DIS);
 961              		.loc 1 323 7 view .LVU293
 962              	.LBB25:
 963              		.loc 1 323 7 view .LVU294
 964              		.loc 1 323 7 view .LVU295
 965 024a 0A78     		ldrb	r2, [r1]
 966 024c 9200     		lsls	r2, r2, #2
 967 024e 9B18     		adds	r3, r3, r2
 968              	.LVL101:
 969              		.loc 1 323 7 is_stmt 0 view .LVU296
 970 0250 1A88     		ldrh	r2, [r3]
 971 0252 2C49     		ldr	r1, .L51+16
 972              	.LVL102:
 973              		.loc 1 323 7 view .LVU297
 974 0254 0A40     		ands	r2, r1
 975              	.LVL103:
ARM GAS  /tmp/cceQvfFh.s 			page 24


 976              		.loc 1 323 7 is_stmt 1 view .LVU298
 977              		.loc 1 323 7 discriminator 3 view .LVU299
 978              		.loc 1 323 7 discriminator 6 view .LVU300
 979 0256 2A43     		orrs	r2, r5
 980              	.LVL104:
 981              		.loc 1 323 7 is_stmt 0 discriminator 6 view .LVU301
 982 0258 92B2     		uxth	r2, r2
 983 025a 1A80     		strh	r2, [r3]
 984              	.LBE25:
 985              		.loc 1 323 7 is_stmt 1 view .LVU302
 986              	.LVL105:
 987              	.L22:
 324:Drivers/STM32F0xx_HAL_Driver/Src/stm32f0xx_ll_usb.c ****     }
 325:Drivers/STM32F0xx_HAL_Driver/Src/stm32f0xx_ll_usb.c ****     else
 326:Drivers/STM32F0xx_HAL_Driver/Src/stm32f0xx_ll_usb.c ****     {
 327:Drivers/STM32F0xx_HAL_Driver/Src/stm32f0xx_ll_usb.c ****       /* Clear the data toggle bits for the endpoint IN/OUT */
 328:Drivers/STM32F0xx_HAL_Driver/Src/stm32f0xx_ll_usb.c ****       PCD_CLEAR_RX_DTOG(USBx, ep->num);
 329:Drivers/STM32F0xx_HAL_Driver/Src/stm32f0xx_ll_usb.c ****       PCD_CLEAR_TX_DTOG(USBx, ep->num);
 330:Drivers/STM32F0xx_HAL_Driver/Src/stm32f0xx_ll_usb.c **** 
 331:Drivers/STM32F0xx_HAL_Driver/Src/stm32f0xx_ll_usb.c ****       if (ep->type != EP_TYPE_ISOC)
 332:Drivers/STM32F0xx_HAL_Driver/Src/stm32f0xx_ll_usb.c ****       {
 333:Drivers/STM32F0xx_HAL_Driver/Src/stm32f0xx_ll_usb.c ****         /* Configure NAK status for the Endpoint */
 334:Drivers/STM32F0xx_HAL_Driver/Src/stm32f0xx_ll_usb.c ****         PCD_SET_EP_TX_STATUS(USBx, ep->num, USB_EP_TX_NAK);
 335:Drivers/STM32F0xx_HAL_Driver/Src/stm32f0xx_ll_usb.c ****       }
 336:Drivers/STM32F0xx_HAL_Driver/Src/stm32f0xx_ll_usb.c ****       else
 337:Drivers/STM32F0xx_HAL_Driver/Src/stm32f0xx_ll_usb.c ****       {
 338:Drivers/STM32F0xx_HAL_Driver/Src/stm32f0xx_ll_usb.c ****         /* Configure TX Endpoint to disabled state */
 339:Drivers/STM32F0xx_HAL_Driver/Src/stm32f0xx_ll_usb.c ****         PCD_SET_EP_TX_STATUS(USBx, ep->num, USB_EP_TX_DIS);
 340:Drivers/STM32F0xx_HAL_Driver/Src/stm32f0xx_ll_usb.c ****       }
 341:Drivers/STM32F0xx_HAL_Driver/Src/stm32f0xx_ll_usb.c **** 
 342:Drivers/STM32F0xx_HAL_Driver/Src/stm32f0xx_ll_usb.c ****       PCD_SET_EP_RX_STATUS(USBx, ep->num, USB_EP_RX_DIS);
 988              		.loc 1 342 7 discriminator 7 view .LVU303
 343:Drivers/STM32F0xx_HAL_Driver/Src/stm32f0xx_ll_usb.c ****     }
 344:Drivers/STM32F0xx_HAL_Driver/Src/stm32f0xx_ll_usb.c ****   }
 345:Drivers/STM32F0xx_HAL_Driver/Src/stm32f0xx_ll_usb.c **** #endif /* (USE_USB_DOUBLE_BUFFER == 1U) */
 346:Drivers/STM32F0xx_HAL_Driver/Src/stm32f0xx_ll_usb.c **** 
 347:Drivers/STM32F0xx_HAL_Driver/Src/stm32f0xx_ll_usb.c ****   return ret;
 989              		.loc 1 347 3 view .LVU304
 348:Drivers/STM32F0xx_HAL_Driver/Src/stm32f0xx_ll_usb.c **** }
 990              		.loc 1 348 1 is_stmt 0 view .LVU305
 991              		@ sp needed
 992 025c F0BD     		pop	{r4, r5, r6, r7, pc}
 993              	.LVL106:
 994              	.L50:
 305:Drivers/STM32F0xx_HAL_Driver/Src/stm32f0xx_ll_usb.c ****     }
 995              		.loc 1 305 7 is_stmt 1 view .LVU306
 996              	.LBB26:
 305:Drivers/STM32F0xx_HAL_Driver/Src/stm32f0xx_ll_usb.c ****     }
 997              		.loc 1 305 7 view .LVU307
 305:Drivers/STM32F0xx_HAL_Driver/Src/stm32f0xx_ll_usb.c ****     }
 998              		.loc 1 305 7 view .LVU308
 999 025e 0A78     		ldrb	r2, [r1]
 1000 0260 9200     		lsls	r2, r2, #2
 1001 0262 9A18     		adds	r2, r3, r2
 1002 0264 1588     		ldrh	r5, [r2]
 1003              	.LVL107:
 305:Drivers/STM32F0xx_HAL_Driver/Src/stm32f0xx_ll_usb.c ****     }
ARM GAS  /tmp/cceQvfFh.s 			page 25


 1004              		.loc 1 305 7 is_stmt 0 view .LVU309
 1005 0266 254C     		ldr	r4, .L51+8
 1006 0268 2540     		ands	r5, r4
 1007              	.LVL108:
 305:Drivers/STM32F0xx_HAL_Driver/Src/stm32f0xx_ll_usb.c ****     }
 1008              		.loc 1 305 7 is_stmt 1 view .LVU310
 1009 026a 2D4C     		ldr	r4, .L51+44
 1010 026c 2C43     		orrs	r4, r5
 1011 026e A4B2     		uxth	r4, r4
 1012 0270 1480     		strh	r4, [r2]
 1013              	.LBE26:
 305:Drivers/STM32F0xx_HAL_Driver/Src/stm32f0xx_ll_usb.c ****     }
 1014              		.loc 1 305 7 view .LVU311
 1015 0272 A6E7     		b	.L31
 1016              	.LVL109:
 1017              	.L32:
 328:Drivers/STM32F0xx_HAL_Driver/Src/stm32f0xx_ll_usb.c ****       PCD_CLEAR_TX_DTOG(USBx, ep->num);
 1018              		.loc 1 328 7 view .LVU312
 1019              	.LBB27:
 328:Drivers/STM32F0xx_HAL_Driver/Src/stm32f0xx_ll_usb.c ****       PCD_CLEAR_TX_DTOG(USBx, ep->num);
 1020              		.loc 1 328 7 view .LVU313
 328:Drivers/STM32F0xx_HAL_Driver/Src/stm32f0xx_ll_usb.c ****       PCD_CLEAR_TX_DTOG(USBx, ep->num);
 1021              		.loc 1 328 7 view .LVU314
 1022 0274 0A78     		ldrb	r2, [r1]
 1023 0276 9200     		lsls	r2, r2, #2
 1024 0278 9A18     		adds	r2, r3, r2
 1025 027a 1488     		ldrh	r4, [r2]
 1026              	.LVL110:
 328:Drivers/STM32F0xx_HAL_Driver/Src/stm32f0xx_ll_usb.c ****       PCD_CLEAR_TX_DTOG(USBx, ep->num);
 1027              		.loc 1 328 7 view .LVU315
 1028 027c 6404     		lsls	r4, r4, #17
 1029 027e 06D5     		bpl	.L35
 1030              	.LVL111:
 328:Drivers/STM32F0xx_HAL_Driver/Src/stm32f0xx_ll_usb.c ****       PCD_CLEAR_TX_DTOG(USBx, ep->num);
 1031              		.loc 1 328 7 discriminator 1 view .LVU316
 1032              	.LBB28:
 328:Drivers/STM32F0xx_HAL_Driver/Src/stm32f0xx_ll_usb.c ****       PCD_CLEAR_TX_DTOG(USBx, ep->num);
 1033              		.loc 1 328 7 discriminator 1 view .LVU317
 328:Drivers/STM32F0xx_HAL_Driver/Src/stm32f0xx_ll_usb.c ****       PCD_CLEAR_TX_DTOG(USBx, ep->num);
 1034              		.loc 1 328 7 discriminator 1 view .LVU318
 1035 0280 1588     		ldrh	r5, [r2]
 1036 0282 1E4C     		ldr	r4, .L51+8
 1037 0284 2540     		ands	r5, r4
 1038              	.LVL112:
 328:Drivers/STM32F0xx_HAL_Driver/Src/stm32f0xx_ll_usb.c ****       PCD_CLEAR_TX_DTOG(USBx, ep->num);
 1039              		.loc 1 328 7 view .LVU319
 328:Drivers/STM32F0xx_HAL_Driver/Src/stm32f0xx_ll_usb.c ****       PCD_CLEAR_TX_DTOG(USBx, ep->num);
 1040              		.loc 1 328 7 is_stmt 0 discriminator 1 view .LVU320
 1041 0286 234C     		ldr	r4, .L51+32
 1042 0288 2C43     		orrs	r4, r5
 1043 028a A4B2     		uxth	r4, r4
 1044 028c 1480     		strh	r4, [r2]
 1045              	.LVL113:
 1046              	.L35:
 328:Drivers/STM32F0xx_HAL_Driver/Src/stm32f0xx_ll_usb.c ****       PCD_CLEAR_TX_DTOG(USBx, ep->num);
 1047              		.loc 1 328 7 discriminator 1 view .LVU321
 1048              	.LBE28:
ARM GAS  /tmp/cceQvfFh.s 			page 26


 328:Drivers/STM32F0xx_HAL_Driver/Src/stm32f0xx_ll_usb.c ****       PCD_CLEAR_TX_DTOG(USBx, ep->num);
 1049              		.loc 1 328 7 is_stmt 1 discriminator 3 view .LVU322
 1050              	.LBE27:
 328:Drivers/STM32F0xx_HAL_Driver/Src/stm32f0xx_ll_usb.c ****       PCD_CLEAR_TX_DTOG(USBx, ep->num);
 1051              		.loc 1 328 7 discriminator 3 view .LVU323
 329:Drivers/STM32F0xx_HAL_Driver/Src/stm32f0xx_ll_usb.c **** 
 1052              		.loc 1 329 7 view .LVU324
 1053              	.LBB29:
 329:Drivers/STM32F0xx_HAL_Driver/Src/stm32f0xx_ll_usb.c **** 
 1054              		.loc 1 329 7 view .LVU325
 329:Drivers/STM32F0xx_HAL_Driver/Src/stm32f0xx_ll_usb.c **** 
 1055              		.loc 1 329 7 view .LVU326
 1056 028e 0A78     		ldrb	r2, [r1]
 1057 0290 9200     		lsls	r2, r2, #2
 1058 0292 9A18     		adds	r2, r3, r2
 1059 0294 1488     		ldrh	r4, [r2]
 1060              	.LVL114:
 329:Drivers/STM32F0xx_HAL_Driver/Src/stm32f0xx_ll_usb.c **** 
 1061              		.loc 1 329 7 view .LVU327
 1062 0296 6406     		lsls	r4, r4, #25
 1063 0298 06D5     		bpl	.L36
 1064              	.LVL115:
 329:Drivers/STM32F0xx_HAL_Driver/Src/stm32f0xx_ll_usb.c **** 
 1065              		.loc 1 329 7 discriminator 1 view .LVU328
 1066              	.LBB30:
 329:Drivers/STM32F0xx_HAL_Driver/Src/stm32f0xx_ll_usb.c **** 
 1067              		.loc 1 329 7 discriminator 1 view .LVU329
 329:Drivers/STM32F0xx_HAL_Driver/Src/stm32f0xx_ll_usb.c **** 
 1068              		.loc 1 329 7 discriminator 1 view .LVU330
 1069 029a 1588     		ldrh	r5, [r2]
 1070 029c 174C     		ldr	r4, .L51+8
 1071 029e 2540     		ands	r5, r4
 1072              	.LVL116:
 329:Drivers/STM32F0xx_HAL_Driver/Src/stm32f0xx_ll_usb.c **** 
 1073              		.loc 1 329 7 view .LVU331
 329:Drivers/STM32F0xx_HAL_Driver/Src/stm32f0xx_ll_usb.c **** 
 1074              		.loc 1 329 7 is_stmt 0 discriminator 1 view .LVU332
 1075 02a0 174C     		ldr	r4, .L51+12
 1076 02a2 2C43     		orrs	r4, r5
 1077 02a4 A4B2     		uxth	r4, r4
 1078 02a6 1480     		strh	r4, [r2]
 1079              	.LVL117:
 1080              	.L36:
 329:Drivers/STM32F0xx_HAL_Driver/Src/stm32f0xx_ll_usb.c **** 
 1081              		.loc 1 329 7 discriminator 1 view .LVU333
 1082              	.LBE30:
 329:Drivers/STM32F0xx_HAL_Driver/Src/stm32f0xx_ll_usb.c **** 
 1083              		.loc 1 329 7 is_stmt 1 discriminator 3 view .LVU334
 1084              	.LBE29:
 329:Drivers/STM32F0xx_HAL_Driver/Src/stm32f0xx_ll_usb.c **** 
 1085              		.loc 1 329 7 discriminator 3 view .LVU335
 331:Drivers/STM32F0xx_HAL_Driver/Src/stm32f0xx_ll_usb.c ****       {
 1086              		.loc 1 331 7 view .LVU336
 331:Drivers/STM32F0xx_HAL_Driver/Src/stm32f0xx_ll_usb.c ****       {
 1087              		.loc 1 331 13 is_stmt 0 view .LVU337
 1088 02a8 CA78     		ldrb	r2, [r1, #3]
 331:Drivers/STM32F0xx_HAL_Driver/Src/stm32f0xx_ll_usb.c ****       {
ARM GAS  /tmp/cceQvfFh.s 			page 27


 1089              		.loc 1 331 10 view .LVU338
 1090 02aa 012A     		cmp	r2, #1
 1091 02ac 17D0     		beq	.L37
 334:Drivers/STM32F0xx_HAL_Driver/Src/stm32f0xx_ll_usb.c ****       }
 1092              		.loc 1 334 9 is_stmt 1 view .LVU339
 1093              	.LBB31:
 334:Drivers/STM32F0xx_HAL_Driver/Src/stm32f0xx_ll_usb.c ****       }
 1094              		.loc 1 334 9 view .LVU340
 334:Drivers/STM32F0xx_HAL_Driver/Src/stm32f0xx_ll_usb.c ****       }
 1095              		.loc 1 334 9 view .LVU341
 1096 02ae 0C78     		ldrb	r4, [r1]
 1097 02b0 A400     		lsls	r4, r4, #2
 1098 02b2 1C19     		adds	r4, r3, r4
 1099 02b4 2288     		ldrh	r2, [r4]
 1100 02b6 134D     		ldr	r5, .L51+16
 1101 02b8 2A40     		ands	r2, r5
 1102              	.LVL118:
 334:Drivers/STM32F0xx_HAL_Driver/Src/stm32f0xx_ll_usb.c ****       }
 1103              		.loc 1 334 9 view .LVU342
 334:Drivers/STM32F0xx_HAL_Driver/Src/stm32f0xx_ll_usb.c ****       }
 1104              		.loc 1 334 9 discriminator 3 view .LVU343
 334:Drivers/STM32F0xx_HAL_Driver/Src/stm32f0xx_ll_usb.c ****       }
 1105              		.loc 1 334 9 discriminator 4 view .LVU344
 1106 02ba 2025     		movs	r5, #32
 1107 02bc 6A40     		eors	r2, r5
 1108              	.LVL119:
 334:Drivers/STM32F0xx_HAL_Driver/Src/stm32f0xx_ll_usb.c ****       }
 1109              		.loc 1 334 9 is_stmt 0 discriminator 4 view .LVU345
 1110 02be 92B2     		uxth	r2, r2
 1111              	.LVL120:
 334:Drivers/STM32F0xx_HAL_Driver/Src/stm32f0xx_ll_usb.c ****       }
 1112              		.loc 1 334 9 is_stmt 1 discriminator 6 view .LVU346
 1113 02c0 0D4D     		ldr	r5, .L51+4
 1114 02c2 2A43     		orrs	r2, r5
 1115              	.LVL121:
 334:Drivers/STM32F0xx_HAL_Driver/Src/stm32f0xx_ll_usb.c ****       }
 1116              		.loc 1 334 9 is_stmt 0 discriminator 6 view .LVU347
 1117 02c4 92B2     		uxth	r2, r2
 1118 02c6 2280     		strh	r2, [r4]
 1119              	.LBE31:
 334:Drivers/STM32F0xx_HAL_Driver/Src/stm32f0xx_ll_usb.c ****       }
 1120              		.loc 1 334 9 is_stmt 1 view .LVU348
 1121              	.LVL122:
 1122              	.L38:
 339:Drivers/STM32F0xx_HAL_Driver/Src/stm32f0xx_ll_usb.c ****       }
 1123              		.loc 1 339 9 discriminator 7 view .LVU349
 342:Drivers/STM32F0xx_HAL_Driver/Src/stm32f0xx_ll_usb.c ****     }
 1124              		.loc 1 342 7 view .LVU350
 1125              	.LBB32:
 342:Drivers/STM32F0xx_HAL_Driver/Src/stm32f0xx_ll_usb.c ****     }
 1126              		.loc 1 342 7 view .LVU351
 342:Drivers/STM32F0xx_HAL_Driver/Src/stm32f0xx_ll_usb.c ****     }
 1127              		.loc 1 342 7 view .LVU352
 1128 02c8 0A78     		ldrb	r2, [r1]
 1129 02ca 9200     		lsls	r2, r2, #2
 1130 02cc 9B18     		adds	r3, r3, r2
 1131              	.LVL123:
ARM GAS  /tmp/cceQvfFh.s 			page 28


 342:Drivers/STM32F0xx_HAL_Driver/Src/stm32f0xx_ll_usb.c ****     }
 1132              		.loc 1 342 7 is_stmt 0 view .LVU353
 1133 02ce 1988     		ldrh	r1, [r3]
 1134              	.LVL124:
 342:Drivers/STM32F0xx_HAL_Driver/Src/stm32f0xx_ll_usb.c ****     }
 1135              		.loc 1 342 7 view .LVU354
 1136 02d0 114A     		ldr	r2, .L51+36
 1137 02d2 1140     		ands	r1, r2
 1138              	.LVL125:
 342:Drivers/STM32F0xx_HAL_Driver/Src/stm32f0xx_ll_usb.c ****     }
 1139              		.loc 1 342 7 is_stmt 1 view .LVU355
 342:Drivers/STM32F0xx_HAL_Driver/Src/stm32f0xx_ll_usb.c ****     }
 1140              		.loc 1 342 7 discriminator 3 view .LVU356
 342:Drivers/STM32F0xx_HAL_Driver/Src/stm32f0xx_ll_usb.c ****     }
 1141              		.loc 1 342 7 discriminator 6 view .LVU357
 1142 02d4 084A     		ldr	r2, .L51+4
 1143 02d6 0A43     		orrs	r2, r1
 1144 02d8 92B2     		uxth	r2, r2
 1145 02da 1A80     		strh	r2, [r3]
 1146 02dc BEE7     		b	.L22
 1147              	.LVL126:
 1148              	.L37:
 342:Drivers/STM32F0xx_HAL_Driver/Src/stm32f0xx_ll_usb.c ****     }
 1149              		.loc 1 342 7 is_stmt 0 discriminator 6 view .LVU358
 1150              	.LBE32:
 339:Drivers/STM32F0xx_HAL_Driver/Src/stm32f0xx_ll_usb.c ****       }
 1151              		.loc 1 339 9 is_stmt 1 view .LVU359
 1152              	.LBB33:
 339:Drivers/STM32F0xx_HAL_Driver/Src/stm32f0xx_ll_usb.c ****       }
 1153              		.loc 1 339 9 view .LVU360
 339:Drivers/STM32F0xx_HAL_Driver/Src/stm32f0xx_ll_usb.c ****       }
 1154              		.loc 1 339 9 view .LVU361
 1155 02de 0A78     		ldrb	r2, [r1]
 1156 02e0 9200     		lsls	r2, r2, #2
 1157 02e2 9A18     		adds	r2, r3, r2
 1158 02e4 1588     		ldrh	r5, [r2]
 1159 02e6 074C     		ldr	r4, .L51+16
 1160 02e8 2540     		ands	r5, r4
 1161              	.LVL127:
 339:Drivers/STM32F0xx_HAL_Driver/Src/stm32f0xx_ll_usb.c ****       }
 1162              		.loc 1 339 9 view .LVU362
 339:Drivers/STM32F0xx_HAL_Driver/Src/stm32f0xx_ll_usb.c ****       }
 1163              		.loc 1 339 9 discriminator 3 view .LVU363
 339:Drivers/STM32F0xx_HAL_Driver/Src/stm32f0xx_ll_usb.c ****       }
 1164              		.loc 1 339 9 discriminator 6 view .LVU364
 1165 02ea 034C     		ldr	r4, .L51+4
 1166 02ec 2C43     		orrs	r4, r5
 1167 02ee A4B2     		uxth	r4, r4
 1168 02f0 1480     		strh	r4, [r2]
 1169 02f2 E9E7     		b	.L38
 1170              	.L52:
 1171              		.align	2
 1172              	.L51:
 1173 02f4 8F89FFFF 		.word	-30321
 1174 02f8 8080FFFF 		.word	-32640
 1175 02fc 8F8FFFFF 		.word	-28785
 1176 0300 C080FFFF 		.word	-32576
ARM GAS  /tmp/cceQvfFh.s 			page 29


 1177 0304 BF8FFFFF 		.word	-28737
 1178 0308 04040000 		.word	1028
 1179 030c 06040000 		.word	1030
 1180 0310 0080FFFF 		.word	-32768
 1181 0314 80C0FFFF 		.word	-16256
 1182 0318 8FBFFFFF 		.word	-16497
 1183 031c 8F8EFFFF 		.word	-29041
 1184 0320 8081FFFF 		.word	-32384
 1185              	.LBE33:
 1186              		.cfi_endproc
 1187              	.LFE47:
 1189              		.section	.text.USB_DeactivateEndpoint,"ax",%progbits
 1190              		.align	1
 1191              		.global	USB_DeactivateEndpoint
 1192              		.syntax unified
 1193              		.code	16
 1194              		.thumb_func
 1196              	USB_DeactivateEndpoint:
 1197              	.LVL128:
 1198              	.LFB48:
 349:Drivers/STM32F0xx_HAL_Driver/Src/stm32f0xx_ll_usb.c **** 
 350:Drivers/STM32F0xx_HAL_Driver/Src/stm32f0xx_ll_usb.c **** /**
 351:Drivers/STM32F0xx_HAL_Driver/Src/stm32f0xx_ll_usb.c ****   * @brief  De-activate and de-initialize an endpoint
 352:Drivers/STM32F0xx_HAL_Driver/Src/stm32f0xx_ll_usb.c ****   * @param  USBx Selected device
 353:Drivers/STM32F0xx_HAL_Driver/Src/stm32f0xx_ll_usb.c ****   * @param  ep pointer to endpoint structure
 354:Drivers/STM32F0xx_HAL_Driver/Src/stm32f0xx_ll_usb.c ****   * @retval HAL status
 355:Drivers/STM32F0xx_HAL_Driver/Src/stm32f0xx_ll_usb.c ****   */
 356:Drivers/STM32F0xx_HAL_Driver/Src/stm32f0xx_ll_usb.c **** HAL_StatusTypeDef USB_DeactivateEndpoint(USB_TypeDef *USBx, USB_EPTypeDef *ep)
 357:Drivers/STM32F0xx_HAL_Driver/Src/stm32f0xx_ll_usb.c **** {
 1199              		.loc 1 357 1 view -0
 1200              		.cfi_startproc
 1201              		@ args = 0, pretend = 0, frame = 0
 1202              		@ frame_needed = 0, uses_anonymous_args = 0
 1203              		.loc 1 357 1 is_stmt 0 view .LVU366
 1204 0000 10B5     		push	{r4, lr}
 1205              		.cfi_def_cfa_offset 8
 1206              		.cfi_offset 4, -8
 1207              		.cfi_offset 14, -4
 358:Drivers/STM32F0xx_HAL_Driver/Src/stm32f0xx_ll_usb.c ****   if (ep->doublebuffer == 0U)
 1208              		.loc 1 358 3 is_stmt 1 view .LVU367
 1209              		.loc 1 358 9 is_stmt 0 view .LVU368
 1210 0002 0B7B     		ldrb	r3, [r1, #12]
 1211              		.loc 1 358 6 view .LVU369
 1212 0004 002B     		cmp	r3, #0
 1213 0006 33D1     		bne	.L54
 359:Drivers/STM32F0xx_HAL_Driver/Src/stm32f0xx_ll_usb.c ****   {
 360:Drivers/STM32F0xx_HAL_Driver/Src/stm32f0xx_ll_usb.c ****     if (ep->is_in != 0U)
 1214              		.loc 1 360 5 is_stmt 1 view .LVU370
 1215              		.loc 1 360 11 is_stmt 0 view .LVU371
 1216 0008 4B78     		ldrb	r3, [r1, #1]
 1217              		.loc 1 360 8 view .LVU372
 1218 000a 002B     		cmp	r3, #0
 1219 000c 18D0     		beq	.L55
 361:Drivers/STM32F0xx_HAL_Driver/Src/stm32f0xx_ll_usb.c ****     {
 362:Drivers/STM32F0xx_HAL_Driver/Src/stm32f0xx_ll_usb.c ****       PCD_CLEAR_TX_DTOG(USBx, ep->num);
 1220              		.loc 1 362 7 is_stmt 1 view .LVU373
 1221              	.LBB34:
ARM GAS  /tmp/cceQvfFh.s 			page 30


 1222              		.loc 1 362 7 view .LVU374
 1223              		.loc 1 362 7 view .LVU375
 1224 000e 0B78     		ldrb	r3, [r1]
 1225 0010 9B00     		lsls	r3, r3, #2
 1226 0012 C318     		adds	r3, r0, r3
 1227 0014 1A88     		ldrh	r2, [r3]
 1228              	.LVL129:
 1229              		.loc 1 362 7 view .LVU376
 1230 0016 5206     		lsls	r2, r2, #25
 1231 0018 06D5     		bpl	.L56
 1232              	.LVL130:
 1233              		.loc 1 362 7 discriminator 1 view .LVU377
 1234              	.LBB35:
 1235              		.loc 1 362 7 discriminator 1 view .LVU378
 1236              		.loc 1 362 7 discriminator 1 view .LVU379
 1237 001a 1C88     		ldrh	r4, [r3]
 1238 001c 4E4A     		ldr	r2, .L70
 1239 001e 1440     		ands	r4, r2
 1240              	.LVL131:
 1241              		.loc 1 362 7 view .LVU380
 1242              		.loc 1 362 7 is_stmt 0 discriminator 1 view .LVU381
 1243 0020 4E4A     		ldr	r2, .L70+4
 1244 0022 2243     		orrs	r2, r4
 1245 0024 92B2     		uxth	r2, r2
 1246 0026 1A80     		strh	r2, [r3]
 1247              	.LVL132:
 1248              	.L56:
 1249              		.loc 1 362 7 discriminator 1 view .LVU382
 1250              	.LBE35:
 1251              		.loc 1 362 7 is_stmt 1 discriminator 3 view .LVU383
 1252              	.LBE34:
 1253              		.loc 1 362 7 discriminator 3 view .LVU384
 363:Drivers/STM32F0xx_HAL_Driver/Src/stm32f0xx_ll_usb.c **** 
 364:Drivers/STM32F0xx_HAL_Driver/Src/stm32f0xx_ll_usb.c ****       /* Configure DISABLE status for the Endpoint */
 365:Drivers/STM32F0xx_HAL_Driver/Src/stm32f0xx_ll_usb.c ****       PCD_SET_EP_TX_STATUS(USBx, ep->num, USB_EP_TX_DIS);
 1254              		.loc 1 365 7 view .LVU385
 1255              	.LBB36:
 1256              		.loc 1 365 7 view .LVU386
 1257              		.loc 1 365 7 view .LVU387
 1258 0028 0B78     		ldrb	r3, [r1]
 1259 002a 9B00     		lsls	r3, r3, #2
 1260 002c C318     		adds	r3, r0, r3
 1261 002e 1988     		ldrh	r1, [r3]
 1262              	.LVL133:
 1263              		.loc 1 365 7 is_stmt 0 view .LVU388
 1264 0030 4B4A     		ldr	r2, .L70+8
 1265 0032 1140     		ands	r1, r2
 1266              	.LVL134:
 1267              		.loc 1 365 7 is_stmt 1 view .LVU389
 1268              		.loc 1 365 7 discriminator 3 view .LVU390
 1269              		.loc 1 365 7 discriminator 6 view .LVU391
 1270 0034 4B4A     		ldr	r2, .L70+12
 1271 0036 0A43     		orrs	r2, r1
 1272 0038 92B2     		uxth	r2, r2
 1273 003a 1A80     		strh	r2, [r3]
 1274              	.LBE36:
 1275              		.loc 1 365 7 view .LVU392
ARM GAS  /tmp/cceQvfFh.s 			page 31


 1276              	.LVL135:
 1277              	.L57:
 366:Drivers/STM32F0xx_HAL_Driver/Src/stm32f0xx_ll_usb.c ****     }
 367:Drivers/STM32F0xx_HAL_Driver/Src/stm32f0xx_ll_usb.c **** 
 368:Drivers/STM32F0xx_HAL_Driver/Src/stm32f0xx_ll_usb.c ****     else
 369:Drivers/STM32F0xx_HAL_Driver/Src/stm32f0xx_ll_usb.c ****     {
 370:Drivers/STM32F0xx_HAL_Driver/Src/stm32f0xx_ll_usb.c ****       PCD_CLEAR_RX_DTOG(USBx, ep->num);
 371:Drivers/STM32F0xx_HAL_Driver/Src/stm32f0xx_ll_usb.c **** 
 372:Drivers/STM32F0xx_HAL_Driver/Src/stm32f0xx_ll_usb.c ****       /* Configure DISABLE status for the Endpoint */
 373:Drivers/STM32F0xx_HAL_Driver/Src/stm32f0xx_ll_usb.c ****       PCD_SET_EP_RX_STATUS(USBx, ep->num, USB_EP_RX_DIS);
 374:Drivers/STM32F0xx_HAL_Driver/Src/stm32f0xx_ll_usb.c ****     }
 375:Drivers/STM32F0xx_HAL_Driver/Src/stm32f0xx_ll_usb.c ****   }
 376:Drivers/STM32F0xx_HAL_Driver/Src/stm32f0xx_ll_usb.c **** #if (USE_USB_DOUBLE_BUFFER == 1U)
 377:Drivers/STM32F0xx_HAL_Driver/Src/stm32f0xx_ll_usb.c ****   /* Double Buffer */
 378:Drivers/STM32F0xx_HAL_Driver/Src/stm32f0xx_ll_usb.c ****   else
 379:Drivers/STM32F0xx_HAL_Driver/Src/stm32f0xx_ll_usb.c ****   {
 380:Drivers/STM32F0xx_HAL_Driver/Src/stm32f0xx_ll_usb.c ****     if (ep->is_in == 0U)
 381:Drivers/STM32F0xx_HAL_Driver/Src/stm32f0xx_ll_usb.c ****     {
 382:Drivers/STM32F0xx_HAL_Driver/Src/stm32f0xx_ll_usb.c ****       /* Clear the data toggle bits for the endpoint IN/OUT*/
 383:Drivers/STM32F0xx_HAL_Driver/Src/stm32f0xx_ll_usb.c ****       PCD_CLEAR_RX_DTOG(USBx, ep->num);
 384:Drivers/STM32F0xx_HAL_Driver/Src/stm32f0xx_ll_usb.c ****       PCD_CLEAR_TX_DTOG(USBx, ep->num);
 385:Drivers/STM32F0xx_HAL_Driver/Src/stm32f0xx_ll_usb.c **** 
 386:Drivers/STM32F0xx_HAL_Driver/Src/stm32f0xx_ll_usb.c ****       /* Reset value of the data toggle bits for the endpoint out*/
 387:Drivers/STM32F0xx_HAL_Driver/Src/stm32f0xx_ll_usb.c ****       PCD_TX_DTOG(USBx, ep->num);
 388:Drivers/STM32F0xx_HAL_Driver/Src/stm32f0xx_ll_usb.c **** 
 389:Drivers/STM32F0xx_HAL_Driver/Src/stm32f0xx_ll_usb.c ****       PCD_SET_EP_RX_STATUS(USBx, ep->num, USB_EP_RX_DIS);
 390:Drivers/STM32F0xx_HAL_Driver/Src/stm32f0xx_ll_usb.c ****       PCD_SET_EP_TX_STATUS(USBx, ep->num, USB_EP_TX_DIS);
 391:Drivers/STM32F0xx_HAL_Driver/Src/stm32f0xx_ll_usb.c ****     }
 392:Drivers/STM32F0xx_HAL_Driver/Src/stm32f0xx_ll_usb.c ****     else
 393:Drivers/STM32F0xx_HAL_Driver/Src/stm32f0xx_ll_usb.c ****     {
 394:Drivers/STM32F0xx_HAL_Driver/Src/stm32f0xx_ll_usb.c ****       /* Clear the data toggle bits for the endpoint IN/OUT*/
 395:Drivers/STM32F0xx_HAL_Driver/Src/stm32f0xx_ll_usb.c ****       PCD_CLEAR_RX_DTOG(USBx, ep->num);
 396:Drivers/STM32F0xx_HAL_Driver/Src/stm32f0xx_ll_usb.c ****       PCD_CLEAR_TX_DTOG(USBx, ep->num);
 397:Drivers/STM32F0xx_HAL_Driver/Src/stm32f0xx_ll_usb.c ****       PCD_RX_DTOG(USBx, ep->num);
 398:Drivers/STM32F0xx_HAL_Driver/Src/stm32f0xx_ll_usb.c **** 
 399:Drivers/STM32F0xx_HAL_Driver/Src/stm32f0xx_ll_usb.c ****       /* Configure DISABLE status for the Endpoint*/
 400:Drivers/STM32F0xx_HAL_Driver/Src/stm32f0xx_ll_usb.c ****       PCD_SET_EP_TX_STATUS(USBx, ep->num, USB_EP_TX_DIS);
 401:Drivers/STM32F0xx_HAL_Driver/Src/stm32f0xx_ll_usb.c ****       PCD_SET_EP_RX_STATUS(USBx, ep->num, USB_EP_RX_DIS);
 1278              		.loc 1 401 7 discriminator 7 view .LVU393
 402:Drivers/STM32F0xx_HAL_Driver/Src/stm32f0xx_ll_usb.c ****     }
 403:Drivers/STM32F0xx_HAL_Driver/Src/stm32f0xx_ll_usb.c ****   }
 404:Drivers/STM32F0xx_HAL_Driver/Src/stm32f0xx_ll_usb.c **** #endif /* (USE_USB_DOUBLE_BUFFER == 1U) */
 405:Drivers/STM32F0xx_HAL_Driver/Src/stm32f0xx_ll_usb.c **** 
 406:Drivers/STM32F0xx_HAL_Driver/Src/stm32f0xx_ll_usb.c ****   return HAL_OK;
 1279              		.loc 1 406 3 view .LVU394
 407:Drivers/STM32F0xx_HAL_Driver/Src/stm32f0xx_ll_usb.c **** }
 1280              		.loc 1 407 1 is_stmt 0 view .LVU395
 1281 003c 0020     		movs	r0, #0
 1282              		@ sp needed
 1283 003e 10BD     		pop	{r4, pc}
 1284              	.LVL136:
 1285              	.L55:
 370:Drivers/STM32F0xx_HAL_Driver/Src/stm32f0xx_ll_usb.c **** 
 1286              		.loc 1 370 7 is_stmt 1 view .LVU396
 1287              	.LBB37:
 370:Drivers/STM32F0xx_HAL_Driver/Src/stm32f0xx_ll_usb.c **** 
 1288              		.loc 1 370 7 view .LVU397
ARM GAS  /tmp/cceQvfFh.s 			page 32


 370:Drivers/STM32F0xx_HAL_Driver/Src/stm32f0xx_ll_usb.c **** 
 1289              		.loc 1 370 7 view .LVU398
 1290 0040 0B78     		ldrb	r3, [r1]
 1291 0042 9B00     		lsls	r3, r3, #2
 1292 0044 C318     		adds	r3, r0, r3
 1293 0046 1A88     		ldrh	r2, [r3]
 1294              	.LVL137:
 370:Drivers/STM32F0xx_HAL_Driver/Src/stm32f0xx_ll_usb.c **** 
 1295              		.loc 1 370 7 view .LVU399
 1296 0048 5204     		lsls	r2, r2, #17
 1297 004a 06D5     		bpl	.L58
 1298              	.LVL138:
 370:Drivers/STM32F0xx_HAL_Driver/Src/stm32f0xx_ll_usb.c **** 
 1299              		.loc 1 370 7 discriminator 1 view .LVU400
 1300              	.LBB38:
 370:Drivers/STM32F0xx_HAL_Driver/Src/stm32f0xx_ll_usb.c **** 
 1301              		.loc 1 370 7 discriminator 1 view .LVU401
 370:Drivers/STM32F0xx_HAL_Driver/Src/stm32f0xx_ll_usb.c **** 
 1302              		.loc 1 370 7 discriminator 1 view .LVU402
 1303 004c 1C88     		ldrh	r4, [r3]
 1304 004e 424A     		ldr	r2, .L70
 1305 0050 1440     		ands	r4, r2
 1306              	.LVL139:
 370:Drivers/STM32F0xx_HAL_Driver/Src/stm32f0xx_ll_usb.c **** 
 1307              		.loc 1 370 7 view .LVU403
 370:Drivers/STM32F0xx_HAL_Driver/Src/stm32f0xx_ll_usb.c **** 
 1308              		.loc 1 370 7 is_stmt 0 discriminator 1 view .LVU404
 1309 0052 454A     		ldr	r2, .L70+16
 1310 0054 2243     		orrs	r2, r4
 1311 0056 92B2     		uxth	r2, r2
 1312 0058 1A80     		strh	r2, [r3]
 1313              	.LVL140:
 1314              	.L58:
 370:Drivers/STM32F0xx_HAL_Driver/Src/stm32f0xx_ll_usb.c **** 
 1315              		.loc 1 370 7 discriminator 1 view .LVU405
 1316              	.LBE38:
 370:Drivers/STM32F0xx_HAL_Driver/Src/stm32f0xx_ll_usb.c **** 
 1317              		.loc 1 370 7 is_stmt 1 discriminator 3 view .LVU406
 1318              	.LBE37:
 370:Drivers/STM32F0xx_HAL_Driver/Src/stm32f0xx_ll_usb.c **** 
 1319              		.loc 1 370 7 discriminator 3 view .LVU407
 373:Drivers/STM32F0xx_HAL_Driver/Src/stm32f0xx_ll_usb.c ****     }
 1320              		.loc 1 373 7 view .LVU408
 1321              	.LBB39:
 373:Drivers/STM32F0xx_HAL_Driver/Src/stm32f0xx_ll_usb.c ****     }
 1322              		.loc 1 373 7 view .LVU409
 373:Drivers/STM32F0xx_HAL_Driver/Src/stm32f0xx_ll_usb.c ****     }
 1323              		.loc 1 373 7 view .LVU410
 1324 005a 0B78     		ldrb	r3, [r1]
 1325 005c 9B00     		lsls	r3, r3, #2
 1326 005e C318     		adds	r3, r0, r3
 1327 0060 1988     		ldrh	r1, [r3]
 1328              	.LVL141:
 373:Drivers/STM32F0xx_HAL_Driver/Src/stm32f0xx_ll_usb.c ****     }
 1329              		.loc 1 373 7 is_stmt 0 view .LVU411
 1330 0062 424A     		ldr	r2, .L70+20
 1331 0064 1140     		ands	r1, r2
ARM GAS  /tmp/cceQvfFh.s 			page 33


 1332              	.LVL142:
 373:Drivers/STM32F0xx_HAL_Driver/Src/stm32f0xx_ll_usb.c ****     }
 1333              		.loc 1 373 7 is_stmt 1 view .LVU412
 373:Drivers/STM32F0xx_HAL_Driver/Src/stm32f0xx_ll_usb.c ****     }
 1334              		.loc 1 373 7 discriminator 3 view .LVU413
 373:Drivers/STM32F0xx_HAL_Driver/Src/stm32f0xx_ll_usb.c ****     }
 1335              		.loc 1 373 7 discriminator 6 view .LVU414
 1336 0066 3F4A     		ldr	r2, .L70+12
 1337 0068 0A43     		orrs	r2, r1
 1338 006a 92B2     		uxth	r2, r2
 1339 006c 1A80     		strh	r2, [r3]
 1340 006e E5E7     		b	.L57
 1341              	.LVL143:
 1342              	.L54:
 373:Drivers/STM32F0xx_HAL_Driver/Src/stm32f0xx_ll_usb.c ****     }
 1343              		.loc 1 373 7 is_stmt 0 discriminator 6 view .LVU415
 1344              	.LBE39:
 380:Drivers/STM32F0xx_HAL_Driver/Src/stm32f0xx_ll_usb.c ****     {
 1345              		.loc 1 380 5 is_stmt 1 view .LVU416
 380:Drivers/STM32F0xx_HAL_Driver/Src/stm32f0xx_ll_usb.c ****     {
 1346              		.loc 1 380 11 is_stmt 0 view .LVU417
 1347 0070 4B78     		ldrb	r3, [r1, #1]
 380:Drivers/STM32F0xx_HAL_Driver/Src/stm32f0xx_ll_usb.c ****     {
 1348              		.loc 1 380 8 view .LVU418
 1349 0072 002B     		cmp	r3, #0
 1350 0074 37D1     		bne	.L59
 383:Drivers/STM32F0xx_HAL_Driver/Src/stm32f0xx_ll_usb.c ****       PCD_CLEAR_TX_DTOG(USBx, ep->num);
 1351              		.loc 1 383 7 is_stmt 1 view .LVU419
 1352              	.LBB40:
 383:Drivers/STM32F0xx_HAL_Driver/Src/stm32f0xx_ll_usb.c ****       PCD_CLEAR_TX_DTOG(USBx, ep->num);
 1353              		.loc 1 383 7 view .LVU420
 383:Drivers/STM32F0xx_HAL_Driver/Src/stm32f0xx_ll_usb.c ****       PCD_CLEAR_TX_DTOG(USBx, ep->num);
 1354              		.loc 1 383 7 view .LVU421
 1355 0076 0B78     		ldrb	r3, [r1]
 1356 0078 9B00     		lsls	r3, r3, #2
 1357 007a C318     		adds	r3, r0, r3
 1358 007c 1A88     		ldrh	r2, [r3]
 1359              	.LVL144:
 383:Drivers/STM32F0xx_HAL_Driver/Src/stm32f0xx_ll_usb.c ****       PCD_CLEAR_TX_DTOG(USBx, ep->num);
 1360              		.loc 1 383 7 view .LVU422
 1361 007e 5204     		lsls	r2, r2, #17
 1362 0080 06D5     		bpl	.L60
 1363              	.LVL145:
 383:Drivers/STM32F0xx_HAL_Driver/Src/stm32f0xx_ll_usb.c ****       PCD_CLEAR_TX_DTOG(USBx, ep->num);
 1364              		.loc 1 383 7 discriminator 1 view .LVU423
 1365              	.LBB41:
 383:Drivers/STM32F0xx_HAL_Driver/Src/stm32f0xx_ll_usb.c ****       PCD_CLEAR_TX_DTOG(USBx, ep->num);
 1366              		.loc 1 383 7 discriminator 1 view .LVU424
 383:Drivers/STM32F0xx_HAL_Driver/Src/stm32f0xx_ll_usb.c ****       PCD_CLEAR_TX_DTOG(USBx, ep->num);
 1367              		.loc 1 383 7 discriminator 1 view .LVU425
 1368 0082 1C88     		ldrh	r4, [r3]
 1369 0084 344A     		ldr	r2, .L70
 1370 0086 1440     		ands	r4, r2
 1371              	.LVL146:
 383:Drivers/STM32F0xx_HAL_Driver/Src/stm32f0xx_ll_usb.c ****       PCD_CLEAR_TX_DTOG(USBx, ep->num);
 1372              		.loc 1 383 7 view .LVU426
 383:Drivers/STM32F0xx_HAL_Driver/Src/stm32f0xx_ll_usb.c ****       PCD_CLEAR_TX_DTOG(USBx, ep->num);
ARM GAS  /tmp/cceQvfFh.s 			page 34


 1373              		.loc 1 383 7 is_stmt 0 discriminator 1 view .LVU427
 1374 0088 374A     		ldr	r2, .L70+16
 1375 008a 2243     		orrs	r2, r4
 1376 008c 92B2     		uxth	r2, r2
 1377 008e 1A80     		strh	r2, [r3]
 1378              	.LVL147:
 1379              	.L60:
 383:Drivers/STM32F0xx_HAL_Driver/Src/stm32f0xx_ll_usb.c ****       PCD_CLEAR_TX_DTOG(USBx, ep->num);
 1380              		.loc 1 383 7 discriminator 1 view .LVU428
 1381              	.LBE41:
 383:Drivers/STM32F0xx_HAL_Driver/Src/stm32f0xx_ll_usb.c ****       PCD_CLEAR_TX_DTOG(USBx, ep->num);
 1382              		.loc 1 383 7 is_stmt 1 discriminator 3 view .LVU429
 1383              	.LBE40:
 383:Drivers/STM32F0xx_HAL_Driver/Src/stm32f0xx_ll_usb.c ****       PCD_CLEAR_TX_DTOG(USBx, ep->num);
 1384              		.loc 1 383 7 discriminator 3 view .LVU430
 384:Drivers/STM32F0xx_HAL_Driver/Src/stm32f0xx_ll_usb.c **** 
 1385              		.loc 1 384 7 view .LVU431
 1386              	.LBB42:
 384:Drivers/STM32F0xx_HAL_Driver/Src/stm32f0xx_ll_usb.c **** 
 1387              		.loc 1 384 7 view .LVU432
 384:Drivers/STM32F0xx_HAL_Driver/Src/stm32f0xx_ll_usb.c **** 
 1388              		.loc 1 384 7 view .LVU433
 1389 0090 0B78     		ldrb	r3, [r1]
 1390 0092 9B00     		lsls	r3, r3, #2
 1391 0094 C318     		adds	r3, r0, r3
 1392 0096 1A88     		ldrh	r2, [r3]
 1393              	.LVL148:
 384:Drivers/STM32F0xx_HAL_Driver/Src/stm32f0xx_ll_usb.c **** 
 1394              		.loc 1 384 7 view .LVU434
 1395 0098 5206     		lsls	r2, r2, #25
 1396 009a 06D5     		bpl	.L61
 1397              	.LVL149:
 384:Drivers/STM32F0xx_HAL_Driver/Src/stm32f0xx_ll_usb.c **** 
 1398              		.loc 1 384 7 discriminator 1 view .LVU435
 1399              	.LBB43:
 384:Drivers/STM32F0xx_HAL_Driver/Src/stm32f0xx_ll_usb.c **** 
 1400              		.loc 1 384 7 discriminator 1 view .LVU436
 384:Drivers/STM32F0xx_HAL_Driver/Src/stm32f0xx_ll_usb.c **** 
 1401              		.loc 1 384 7 discriminator 1 view .LVU437
 1402 009c 1C88     		ldrh	r4, [r3]
 1403 009e 2E4A     		ldr	r2, .L70
 1404 00a0 1440     		ands	r4, r2
 1405              	.LVL150:
 384:Drivers/STM32F0xx_HAL_Driver/Src/stm32f0xx_ll_usb.c **** 
 1406              		.loc 1 384 7 view .LVU438
 384:Drivers/STM32F0xx_HAL_Driver/Src/stm32f0xx_ll_usb.c **** 
 1407              		.loc 1 384 7 is_stmt 0 discriminator 1 view .LVU439
 1408 00a2 2E4A     		ldr	r2, .L70+4
 1409 00a4 2243     		orrs	r2, r4
 1410 00a6 92B2     		uxth	r2, r2
 1411 00a8 1A80     		strh	r2, [r3]
 1412              	.LVL151:
 1413              	.L61:
 384:Drivers/STM32F0xx_HAL_Driver/Src/stm32f0xx_ll_usb.c **** 
 1414              		.loc 1 384 7 discriminator 1 view .LVU440
 1415              	.LBE43:
 384:Drivers/STM32F0xx_HAL_Driver/Src/stm32f0xx_ll_usb.c **** 
ARM GAS  /tmp/cceQvfFh.s 			page 35


 1416              		.loc 1 384 7 is_stmt 1 discriminator 3 view .LVU441
 1417              	.LBE42:
 384:Drivers/STM32F0xx_HAL_Driver/Src/stm32f0xx_ll_usb.c **** 
 1418              		.loc 1 384 7 discriminator 3 view .LVU442
 387:Drivers/STM32F0xx_HAL_Driver/Src/stm32f0xx_ll_usb.c **** 
 1419              		.loc 1 387 7 view .LVU443
 1420              	.LBB44:
 387:Drivers/STM32F0xx_HAL_Driver/Src/stm32f0xx_ll_usb.c **** 
 1421              		.loc 1 387 7 view .LVU444
 387:Drivers/STM32F0xx_HAL_Driver/Src/stm32f0xx_ll_usb.c **** 
 1422              		.loc 1 387 7 view .LVU445
 1423 00aa 0B78     		ldrb	r3, [r1]
 1424 00ac 9B00     		lsls	r3, r3, #2
 1425 00ae C318     		adds	r3, r0, r3
 1426 00b0 1C88     		ldrh	r4, [r3]
 1427 00b2 294A     		ldr	r2, .L70
 1428 00b4 1440     		ands	r4, r2
 1429              	.LVL152:
 387:Drivers/STM32F0xx_HAL_Driver/Src/stm32f0xx_ll_usb.c **** 
 1430              		.loc 1 387 7 view .LVU446
 1431 00b6 294A     		ldr	r2, .L70+4
 1432 00b8 2243     		orrs	r2, r4
 1433 00ba 92B2     		uxth	r2, r2
 1434 00bc 1A80     		strh	r2, [r3]
 1435              	.LBE44:
 387:Drivers/STM32F0xx_HAL_Driver/Src/stm32f0xx_ll_usb.c **** 
 1436              		.loc 1 387 7 view .LVU447
 389:Drivers/STM32F0xx_HAL_Driver/Src/stm32f0xx_ll_usb.c ****       PCD_SET_EP_TX_STATUS(USBx, ep->num, USB_EP_TX_DIS);
 1437              		.loc 1 389 7 view .LVU448
 1438              	.LBB45:
 389:Drivers/STM32F0xx_HAL_Driver/Src/stm32f0xx_ll_usb.c ****       PCD_SET_EP_TX_STATUS(USBx, ep->num, USB_EP_TX_DIS);
 1439              		.loc 1 389 7 view .LVU449
 389:Drivers/STM32F0xx_HAL_Driver/Src/stm32f0xx_ll_usb.c ****       PCD_SET_EP_TX_STATUS(USBx, ep->num, USB_EP_TX_DIS);
 1440              		.loc 1 389 7 view .LVU450
 1441 00be 0C78     		ldrb	r4, [r1]
 1442              	.LVL153:
 389:Drivers/STM32F0xx_HAL_Driver/Src/stm32f0xx_ll_usb.c ****       PCD_SET_EP_TX_STATUS(USBx, ep->num, USB_EP_TX_DIS);
 1443              		.loc 1 389 7 is_stmt 0 view .LVU451
 1444 00c0 A400     		lsls	r4, r4, #2
 1445 00c2 0419     		adds	r4, r0, r4
 1446 00c4 2388     		ldrh	r3, [r4]
 1447 00c6 294A     		ldr	r2, .L70+20
 1448 00c8 1340     		ands	r3, r2
 1449              	.LVL154:
 389:Drivers/STM32F0xx_HAL_Driver/Src/stm32f0xx_ll_usb.c ****       PCD_SET_EP_TX_STATUS(USBx, ep->num, USB_EP_TX_DIS);
 1450              		.loc 1 389 7 is_stmt 1 view .LVU452
 389:Drivers/STM32F0xx_HAL_Driver/Src/stm32f0xx_ll_usb.c ****       PCD_SET_EP_TX_STATUS(USBx, ep->num, USB_EP_TX_DIS);
 1451              		.loc 1 389 7 discriminator 3 view .LVU453
 389:Drivers/STM32F0xx_HAL_Driver/Src/stm32f0xx_ll_usb.c ****       PCD_SET_EP_TX_STATUS(USBx, ep->num, USB_EP_TX_DIS);
 1452              		.loc 1 389 7 discriminator 6 view .LVU454
 1453 00ca 264A     		ldr	r2, .L70+12
 1454 00cc 1343     		orrs	r3, r2
 1455              	.LVL155:
 389:Drivers/STM32F0xx_HAL_Driver/Src/stm32f0xx_ll_usb.c ****       PCD_SET_EP_TX_STATUS(USBx, ep->num, USB_EP_TX_DIS);
 1456              		.loc 1 389 7 is_stmt 0 discriminator 6 view .LVU455
 1457 00ce 9BB2     		uxth	r3, r3
 1458 00d0 2380     		strh	r3, [r4]
ARM GAS  /tmp/cceQvfFh.s 			page 36


 1459              	.LBE45:
 389:Drivers/STM32F0xx_HAL_Driver/Src/stm32f0xx_ll_usb.c ****       PCD_SET_EP_TX_STATUS(USBx, ep->num, USB_EP_TX_DIS);
 1460              		.loc 1 389 7 is_stmt 1 view .LVU456
 390:Drivers/STM32F0xx_HAL_Driver/Src/stm32f0xx_ll_usb.c ****     }
 1461              		.loc 1 390 7 view .LVU457
 1462              	.LBB46:
 390:Drivers/STM32F0xx_HAL_Driver/Src/stm32f0xx_ll_usb.c ****     }
 1463              		.loc 1 390 7 view .LVU458
 390:Drivers/STM32F0xx_HAL_Driver/Src/stm32f0xx_ll_usb.c ****     }
 1464              		.loc 1 390 7 view .LVU459
 1465 00d2 0B78     		ldrb	r3, [r1]
 1466 00d4 9B00     		lsls	r3, r3, #2
 1467 00d6 C318     		adds	r3, r0, r3
 1468 00d8 1988     		ldrh	r1, [r3]
 1469              	.LVL156:
 390:Drivers/STM32F0xx_HAL_Driver/Src/stm32f0xx_ll_usb.c ****     }
 1470              		.loc 1 390 7 is_stmt 0 view .LVU460
 1471 00da 2148     		ldr	r0, .L70+8
 1472              	.LVL157:
 390:Drivers/STM32F0xx_HAL_Driver/Src/stm32f0xx_ll_usb.c ****     }
 1473              		.loc 1 390 7 view .LVU461
 1474 00dc 0140     		ands	r1, r0
 1475              	.LVL158:
 390:Drivers/STM32F0xx_HAL_Driver/Src/stm32f0xx_ll_usb.c ****     }
 1476              		.loc 1 390 7 is_stmt 1 view .LVU462
 390:Drivers/STM32F0xx_HAL_Driver/Src/stm32f0xx_ll_usb.c ****     }
 1477              		.loc 1 390 7 discriminator 3 view .LVU463
 390:Drivers/STM32F0xx_HAL_Driver/Src/stm32f0xx_ll_usb.c ****     }
 1478              		.loc 1 390 7 discriminator 6 view .LVU464
 1479 00de 0A43     		orrs	r2, r1
 1480 00e0 92B2     		uxth	r2, r2
 1481 00e2 1A80     		strh	r2, [r3]
 1482              	.LBE46:
 390:Drivers/STM32F0xx_HAL_Driver/Src/stm32f0xx_ll_usb.c ****     }
 1483              		.loc 1 390 7 view .LVU465
 1484 00e4 AAE7     		b	.L57
 1485              	.LVL159:
 1486              	.L59:
 395:Drivers/STM32F0xx_HAL_Driver/Src/stm32f0xx_ll_usb.c ****       PCD_CLEAR_TX_DTOG(USBx, ep->num);
 1487              		.loc 1 395 7 view .LVU466
 1488              	.LBB47:
 395:Drivers/STM32F0xx_HAL_Driver/Src/stm32f0xx_ll_usb.c ****       PCD_CLEAR_TX_DTOG(USBx, ep->num);
 1489              		.loc 1 395 7 view .LVU467
 395:Drivers/STM32F0xx_HAL_Driver/Src/stm32f0xx_ll_usb.c ****       PCD_CLEAR_TX_DTOG(USBx, ep->num);
 1490              		.loc 1 395 7 view .LVU468
 1491 00e6 0B78     		ldrb	r3, [r1]
 1492 00e8 9B00     		lsls	r3, r3, #2
 1493 00ea C318     		adds	r3, r0, r3
 1494 00ec 1A88     		ldrh	r2, [r3]
 1495              	.LVL160:
 395:Drivers/STM32F0xx_HAL_Driver/Src/stm32f0xx_ll_usb.c ****       PCD_CLEAR_TX_DTOG(USBx, ep->num);
 1496              		.loc 1 395 7 view .LVU469
 1497 00ee 5204     		lsls	r2, r2, #17
 1498 00f0 06D5     		bpl	.L62
 1499              	.LVL161:
 395:Drivers/STM32F0xx_HAL_Driver/Src/stm32f0xx_ll_usb.c ****       PCD_CLEAR_TX_DTOG(USBx, ep->num);
 1500              		.loc 1 395 7 discriminator 1 view .LVU470
ARM GAS  /tmp/cceQvfFh.s 			page 37


 1501              	.LBB48:
 395:Drivers/STM32F0xx_HAL_Driver/Src/stm32f0xx_ll_usb.c ****       PCD_CLEAR_TX_DTOG(USBx, ep->num);
 1502              		.loc 1 395 7 discriminator 1 view .LVU471
 395:Drivers/STM32F0xx_HAL_Driver/Src/stm32f0xx_ll_usb.c ****       PCD_CLEAR_TX_DTOG(USBx, ep->num);
 1503              		.loc 1 395 7 discriminator 1 view .LVU472
 1504 00f2 1C88     		ldrh	r4, [r3]
 1505 00f4 184A     		ldr	r2, .L70
 1506 00f6 1440     		ands	r4, r2
 1507              	.LVL162:
 395:Drivers/STM32F0xx_HAL_Driver/Src/stm32f0xx_ll_usb.c ****       PCD_CLEAR_TX_DTOG(USBx, ep->num);
 1508              		.loc 1 395 7 view .LVU473
 395:Drivers/STM32F0xx_HAL_Driver/Src/stm32f0xx_ll_usb.c ****       PCD_CLEAR_TX_DTOG(USBx, ep->num);
 1509              		.loc 1 395 7 is_stmt 0 discriminator 1 view .LVU474
 1510 00f8 1B4A     		ldr	r2, .L70+16
 1511 00fa 2243     		orrs	r2, r4
 1512 00fc 92B2     		uxth	r2, r2
 1513 00fe 1A80     		strh	r2, [r3]
 1514              	.LVL163:
 1515              	.L62:
 395:Drivers/STM32F0xx_HAL_Driver/Src/stm32f0xx_ll_usb.c ****       PCD_CLEAR_TX_DTOG(USBx, ep->num);
 1516              		.loc 1 395 7 discriminator 1 view .LVU475
 1517              	.LBE48:
 395:Drivers/STM32F0xx_HAL_Driver/Src/stm32f0xx_ll_usb.c ****       PCD_CLEAR_TX_DTOG(USBx, ep->num);
 1518              		.loc 1 395 7 is_stmt 1 discriminator 3 view .LVU476
 1519              	.LBE47:
 395:Drivers/STM32F0xx_HAL_Driver/Src/stm32f0xx_ll_usb.c ****       PCD_CLEAR_TX_DTOG(USBx, ep->num);
 1520              		.loc 1 395 7 discriminator 3 view .LVU477
 396:Drivers/STM32F0xx_HAL_Driver/Src/stm32f0xx_ll_usb.c ****       PCD_RX_DTOG(USBx, ep->num);
 1521              		.loc 1 396 7 view .LVU478
 1522              	.LBB49:
 396:Drivers/STM32F0xx_HAL_Driver/Src/stm32f0xx_ll_usb.c ****       PCD_RX_DTOG(USBx, ep->num);
 1523              		.loc 1 396 7 view .LVU479
 396:Drivers/STM32F0xx_HAL_Driver/Src/stm32f0xx_ll_usb.c ****       PCD_RX_DTOG(USBx, ep->num);
 1524              		.loc 1 396 7 view .LVU480
 1525 0100 0B78     		ldrb	r3, [r1]
 1526 0102 9B00     		lsls	r3, r3, #2
 1527 0104 C318     		adds	r3, r0, r3
 1528 0106 1A88     		ldrh	r2, [r3]
 1529              	.LVL164:
 396:Drivers/STM32F0xx_HAL_Driver/Src/stm32f0xx_ll_usb.c ****       PCD_RX_DTOG(USBx, ep->num);
 1530              		.loc 1 396 7 view .LVU481
 1531 0108 5206     		lsls	r2, r2, #25
 1532 010a 06D5     		bpl	.L63
 1533              	.LVL165:
 396:Drivers/STM32F0xx_HAL_Driver/Src/stm32f0xx_ll_usb.c ****       PCD_RX_DTOG(USBx, ep->num);
 1534              		.loc 1 396 7 discriminator 1 view .LVU482
 1535              	.LBB50:
 396:Drivers/STM32F0xx_HAL_Driver/Src/stm32f0xx_ll_usb.c ****       PCD_RX_DTOG(USBx, ep->num);
 1536              		.loc 1 396 7 discriminator 1 view .LVU483
 396:Drivers/STM32F0xx_HAL_Driver/Src/stm32f0xx_ll_usb.c ****       PCD_RX_DTOG(USBx, ep->num);
 1537              		.loc 1 396 7 discriminator 1 view .LVU484
 1538 010c 1C88     		ldrh	r4, [r3]
 1539 010e 124A     		ldr	r2, .L70
 1540 0110 1440     		ands	r4, r2
 1541              	.LVL166:
 396:Drivers/STM32F0xx_HAL_Driver/Src/stm32f0xx_ll_usb.c ****       PCD_RX_DTOG(USBx, ep->num);
 1542              		.loc 1 396 7 view .LVU485
ARM GAS  /tmp/cceQvfFh.s 			page 38


 396:Drivers/STM32F0xx_HAL_Driver/Src/stm32f0xx_ll_usb.c ****       PCD_RX_DTOG(USBx, ep->num);
 1543              		.loc 1 396 7 is_stmt 0 discriminator 1 view .LVU486
 1544 0112 124A     		ldr	r2, .L70+4
 1545 0114 2243     		orrs	r2, r4
 1546 0116 92B2     		uxth	r2, r2
 1547 0118 1A80     		strh	r2, [r3]
 1548              	.LVL167:
 1549              	.L63:
 396:Drivers/STM32F0xx_HAL_Driver/Src/stm32f0xx_ll_usb.c ****       PCD_RX_DTOG(USBx, ep->num);
 1550              		.loc 1 396 7 discriminator 1 view .LVU487
 1551              	.LBE50:
 396:Drivers/STM32F0xx_HAL_Driver/Src/stm32f0xx_ll_usb.c ****       PCD_RX_DTOG(USBx, ep->num);
 1552              		.loc 1 396 7 is_stmt 1 discriminator 3 view .LVU488
 1553              	.LBE49:
 396:Drivers/STM32F0xx_HAL_Driver/Src/stm32f0xx_ll_usb.c ****       PCD_RX_DTOG(USBx, ep->num);
 1554              		.loc 1 396 7 discriminator 3 view .LVU489
 397:Drivers/STM32F0xx_HAL_Driver/Src/stm32f0xx_ll_usb.c **** 
 1555              		.loc 1 397 7 view .LVU490
 1556              	.LBB51:
 397:Drivers/STM32F0xx_HAL_Driver/Src/stm32f0xx_ll_usb.c **** 
 1557              		.loc 1 397 7 view .LVU491
 397:Drivers/STM32F0xx_HAL_Driver/Src/stm32f0xx_ll_usb.c **** 
 1558              		.loc 1 397 7 view .LVU492
 1559 011a 0B78     		ldrb	r3, [r1]
 1560 011c 9B00     		lsls	r3, r3, #2
 1561 011e C318     		adds	r3, r0, r3
 1562 0120 1C88     		ldrh	r4, [r3]
 1563 0122 0D4A     		ldr	r2, .L70
 1564 0124 1440     		ands	r4, r2
 1565              	.LVL168:
 397:Drivers/STM32F0xx_HAL_Driver/Src/stm32f0xx_ll_usb.c **** 
 1566              		.loc 1 397 7 view .LVU493
 1567 0126 104A     		ldr	r2, .L70+16
 1568 0128 2243     		orrs	r2, r4
 1569 012a 92B2     		uxth	r2, r2
 1570 012c 1A80     		strh	r2, [r3]
 1571              	.LBE51:
 397:Drivers/STM32F0xx_HAL_Driver/Src/stm32f0xx_ll_usb.c **** 
 1572              		.loc 1 397 7 view .LVU494
 400:Drivers/STM32F0xx_HAL_Driver/Src/stm32f0xx_ll_usb.c ****       PCD_SET_EP_RX_STATUS(USBx, ep->num, USB_EP_RX_DIS);
 1573              		.loc 1 400 7 view .LVU495
 1574              	.LBB52:
 400:Drivers/STM32F0xx_HAL_Driver/Src/stm32f0xx_ll_usb.c ****       PCD_SET_EP_RX_STATUS(USBx, ep->num, USB_EP_RX_DIS);
 1575              		.loc 1 400 7 view .LVU496
 400:Drivers/STM32F0xx_HAL_Driver/Src/stm32f0xx_ll_usb.c ****       PCD_SET_EP_RX_STATUS(USBx, ep->num, USB_EP_RX_DIS);
 1576              		.loc 1 400 7 view .LVU497
 1577 012e 0C78     		ldrb	r4, [r1]
 1578              	.LVL169:
 400:Drivers/STM32F0xx_HAL_Driver/Src/stm32f0xx_ll_usb.c ****       PCD_SET_EP_RX_STATUS(USBx, ep->num, USB_EP_RX_DIS);
 1579              		.loc 1 400 7 is_stmt 0 view .LVU498
 1580 0130 A400     		lsls	r4, r4, #2
 1581 0132 0419     		adds	r4, r0, r4
 1582 0134 2388     		ldrh	r3, [r4]
 1583 0136 0A4A     		ldr	r2, .L70+8
 1584 0138 1340     		ands	r3, r2
 1585              	.LVL170:
 400:Drivers/STM32F0xx_HAL_Driver/Src/stm32f0xx_ll_usb.c ****       PCD_SET_EP_RX_STATUS(USBx, ep->num, USB_EP_RX_DIS);
ARM GAS  /tmp/cceQvfFh.s 			page 39


 1586              		.loc 1 400 7 is_stmt 1 view .LVU499
 400:Drivers/STM32F0xx_HAL_Driver/Src/stm32f0xx_ll_usb.c ****       PCD_SET_EP_RX_STATUS(USBx, ep->num, USB_EP_RX_DIS);
 1587              		.loc 1 400 7 discriminator 3 view .LVU500
 400:Drivers/STM32F0xx_HAL_Driver/Src/stm32f0xx_ll_usb.c ****       PCD_SET_EP_RX_STATUS(USBx, ep->num, USB_EP_RX_DIS);
 1588              		.loc 1 400 7 discriminator 6 view .LVU501
 1589 013a 0A4A     		ldr	r2, .L70+12
 1590 013c 1343     		orrs	r3, r2
 1591              	.LVL171:
 400:Drivers/STM32F0xx_HAL_Driver/Src/stm32f0xx_ll_usb.c ****       PCD_SET_EP_RX_STATUS(USBx, ep->num, USB_EP_RX_DIS);
 1592              		.loc 1 400 7 is_stmt 0 discriminator 6 view .LVU502
 1593 013e 9BB2     		uxth	r3, r3
 1594 0140 2380     		strh	r3, [r4]
 1595              	.LBE52:
 400:Drivers/STM32F0xx_HAL_Driver/Src/stm32f0xx_ll_usb.c ****       PCD_SET_EP_RX_STATUS(USBx, ep->num, USB_EP_RX_DIS);
 1596              		.loc 1 400 7 is_stmt 1 view .LVU503
 401:Drivers/STM32F0xx_HAL_Driver/Src/stm32f0xx_ll_usb.c ****     }
 1597              		.loc 1 401 7 view .LVU504
 1598              	.LBB53:
 401:Drivers/STM32F0xx_HAL_Driver/Src/stm32f0xx_ll_usb.c ****     }
 1599              		.loc 1 401 7 view .LVU505
 401:Drivers/STM32F0xx_HAL_Driver/Src/stm32f0xx_ll_usb.c ****     }
 1600              		.loc 1 401 7 view .LVU506
 1601 0142 0B78     		ldrb	r3, [r1]
 1602 0144 9B00     		lsls	r3, r3, #2
 1603 0146 C018     		adds	r0, r0, r3
 1604              	.LVL172:
 401:Drivers/STM32F0xx_HAL_Driver/Src/stm32f0xx_ll_usb.c ****     }
 1605              		.loc 1 401 7 is_stmt 0 view .LVU507
 1606 0148 0388     		ldrh	r3, [r0]
 1607 014a 0849     		ldr	r1, .L70+20
 1608              	.LVL173:
 401:Drivers/STM32F0xx_HAL_Driver/Src/stm32f0xx_ll_usb.c ****     }
 1609              		.loc 1 401 7 view .LVU508
 1610 014c 0B40     		ands	r3, r1
 1611              	.LVL174:
 401:Drivers/STM32F0xx_HAL_Driver/Src/stm32f0xx_ll_usb.c ****     }
 1612              		.loc 1 401 7 is_stmt 1 view .LVU509
 401:Drivers/STM32F0xx_HAL_Driver/Src/stm32f0xx_ll_usb.c ****     }
 1613              		.loc 1 401 7 discriminator 3 view .LVU510
 401:Drivers/STM32F0xx_HAL_Driver/Src/stm32f0xx_ll_usb.c ****     }
 1614              		.loc 1 401 7 discriminator 6 view .LVU511
 1615 014e 1A43     		orrs	r2, r3
 1616 0150 92B2     		uxth	r2, r2
 1617 0152 0280     		strh	r2, [r0]
 1618 0154 72E7     		b	.L57
 1619              	.L71:
 1620 0156 C046     		.align	2
 1621              	.L70:
 1622 0158 8F8FFFFF 		.word	-28785
 1623 015c C080FFFF 		.word	-32576
 1624 0160 BF8FFFFF 		.word	-28737
 1625 0164 8080FFFF 		.word	-32640
 1626 0168 80C0FFFF 		.word	-16256
 1627 016c 8FBFFFFF 		.word	-16497
 1628              	.LBE53:
 1629              		.cfi_endproc
 1630              	.LFE48:
ARM GAS  /tmp/cceQvfFh.s 			page 40


 1632              		.section	.text.USB_EPSetStall,"ax",%progbits
 1633              		.align	1
 1634              		.global	USB_EPSetStall
 1635              		.syntax unified
 1636              		.code	16
 1637              		.thumb_func
 1639              	USB_EPSetStall:
 1640              	.LVL175:
 1641              	.LFB50:
 408:Drivers/STM32F0xx_HAL_Driver/Src/stm32f0xx_ll_usb.c **** 
 409:Drivers/STM32F0xx_HAL_Driver/Src/stm32f0xx_ll_usb.c **** /**
 410:Drivers/STM32F0xx_HAL_Driver/Src/stm32f0xx_ll_usb.c ****   * @brief  USB_EPStartXfer setup and starts a transfer over an EP
 411:Drivers/STM32F0xx_HAL_Driver/Src/stm32f0xx_ll_usb.c ****   * @param  USBx Selected device
 412:Drivers/STM32F0xx_HAL_Driver/Src/stm32f0xx_ll_usb.c ****   * @param  ep pointer to endpoint structure
 413:Drivers/STM32F0xx_HAL_Driver/Src/stm32f0xx_ll_usb.c ****   * @retval HAL status
 414:Drivers/STM32F0xx_HAL_Driver/Src/stm32f0xx_ll_usb.c ****   */
 415:Drivers/STM32F0xx_HAL_Driver/Src/stm32f0xx_ll_usb.c **** HAL_StatusTypeDef USB_EPStartXfer(USB_TypeDef *USBx, USB_EPTypeDef *ep)
 416:Drivers/STM32F0xx_HAL_Driver/Src/stm32f0xx_ll_usb.c **** {
 417:Drivers/STM32F0xx_HAL_Driver/Src/stm32f0xx_ll_usb.c ****   uint32_t len;
 418:Drivers/STM32F0xx_HAL_Driver/Src/stm32f0xx_ll_usb.c **** #if (USE_USB_DOUBLE_BUFFER == 1U)
 419:Drivers/STM32F0xx_HAL_Driver/Src/stm32f0xx_ll_usb.c ****   uint16_t pmabuffer;
 420:Drivers/STM32F0xx_HAL_Driver/Src/stm32f0xx_ll_usb.c ****   uint16_t wEPVal;
 421:Drivers/STM32F0xx_HAL_Driver/Src/stm32f0xx_ll_usb.c **** #endif /* (USE_USB_DOUBLE_BUFFER == 1U) */
 422:Drivers/STM32F0xx_HAL_Driver/Src/stm32f0xx_ll_usb.c **** 
 423:Drivers/STM32F0xx_HAL_Driver/Src/stm32f0xx_ll_usb.c ****   /* IN endpoint */
 424:Drivers/STM32F0xx_HAL_Driver/Src/stm32f0xx_ll_usb.c ****   if (ep->is_in == 1U)
 425:Drivers/STM32F0xx_HAL_Driver/Src/stm32f0xx_ll_usb.c ****   {
 426:Drivers/STM32F0xx_HAL_Driver/Src/stm32f0xx_ll_usb.c ****     /*Multi packet transfer*/
 427:Drivers/STM32F0xx_HAL_Driver/Src/stm32f0xx_ll_usb.c ****     if (ep->xfer_len > ep->maxpacket)
 428:Drivers/STM32F0xx_HAL_Driver/Src/stm32f0xx_ll_usb.c ****     {
 429:Drivers/STM32F0xx_HAL_Driver/Src/stm32f0xx_ll_usb.c ****       len = ep->maxpacket;
 430:Drivers/STM32F0xx_HAL_Driver/Src/stm32f0xx_ll_usb.c ****     }
 431:Drivers/STM32F0xx_HAL_Driver/Src/stm32f0xx_ll_usb.c ****     else
 432:Drivers/STM32F0xx_HAL_Driver/Src/stm32f0xx_ll_usb.c ****     {
 433:Drivers/STM32F0xx_HAL_Driver/Src/stm32f0xx_ll_usb.c ****       len = ep->xfer_len;
 434:Drivers/STM32F0xx_HAL_Driver/Src/stm32f0xx_ll_usb.c ****     }
 435:Drivers/STM32F0xx_HAL_Driver/Src/stm32f0xx_ll_usb.c **** 
 436:Drivers/STM32F0xx_HAL_Driver/Src/stm32f0xx_ll_usb.c ****     /* configure and validate Tx endpoint */
 437:Drivers/STM32F0xx_HAL_Driver/Src/stm32f0xx_ll_usb.c ****     if (ep->doublebuffer == 0U)
 438:Drivers/STM32F0xx_HAL_Driver/Src/stm32f0xx_ll_usb.c ****     {
 439:Drivers/STM32F0xx_HAL_Driver/Src/stm32f0xx_ll_usb.c ****       USB_WritePMA(USBx, ep->xfer_buff, ep->pmaadress, (uint16_t)len);
 440:Drivers/STM32F0xx_HAL_Driver/Src/stm32f0xx_ll_usb.c ****       PCD_SET_EP_TX_CNT(USBx, ep->num, len);
 441:Drivers/STM32F0xx_HAL_Driver/Src/stm32f0xx_ll_usb.c ****     }
 442:Drivers/STM32F0xx_HAL_Driver/Src/stm32f0xx_ll_usb.c **** #if (USE_USB_DOUBLE_BUFFER == 1U)
 443:Drivers/STM32F0xx_HAL_Driver/Src/stm32f0xx_ll_usb.c ****     else
 444:Drivers/STM32F0xx_HAL_Driver/Src/stm32f0xx_ll_usb.c ****     {
 445:Drivers/STM32F0xx_HAL_Driver/Src/stm32f0xx_ll_usb.c ****       /* double buffer bulk management */
 446:Drivers/STM32F0xx_HAL_Driver/Src/stm32f0xx_ll_usb.c ****       if (ep->type == EP_TYPE_BULK)
 447:Drivers/STM32F0xx_HAL_Driver/Src/stm32f0xx_ll_usb.c ****       {
 448:Drivers/STM32F0xx_HAL_Driver/Src/stm32f0xx_ll_usb.c ****         if (ep->xfer_len_db > ep->maxpacket)
 449:Drivers/STM32F0xx_HAL_Driver/Src/stm32f0xx_ll_usb.c ****         {
 450:Drivers/STM32F0xx_HAL_Driver/Src/stm32f0xx_ll_usb.c ****           /* enable double buffer */
 451:Drivers/STM32F0xx_HAL_Driver/Src/stm32f0xx_ll_usb.c ****           PCD_SET_BULK_EP_DBUF(USBx, ep->num);
 452:Drivers/STM32F0xx_HAL_Driver/Src/stm32f0xx_ll_usb.c **** 
 453:Drivers/STM32F0xx_HAL_Driver/Src/stm32f0xx_ll_usb.c ****           /* each Time to write in PMA xfer_len_db will */
 454:Drivers/STM32F0xx_HAL_Driver/Src/stm32f0xx_ll_usb.c ****           ep->xfer_len_db -= len;
 455:Drivers/STM32F0xx_HAL_Driver/Src/stm32f0xx_ll_usb.c **** 
ARM GAS  /tmp/cceQvfFh.s 			page 41


 456:Drivers/STM32F0xx_HAL_Driver/Src/stm32f0xx_ll_usb.c ****           /* Fill the two first buffer in the Buffer0 & Buffer1 */
 457:Drivers/STM32F0xx_HAL_Driver/Src/stm32f0xx_ll_usb.c ****           if ((PCD_GET_ENDPOINT(USBx, ep->num) & USB_EP_DTOG_TX) != 0U)
 458:Drivers/STM32F0xx_HAL_Driver/Src/stm32f0xx_ll_usb.c ****           {
 459:Drivers/STM32F0xx_HAL_Driver/Src/stm32f0xx_ll_usb.c ****             /* Set the Double buffer counter for pmabuffer1 */
 460:Drivers/STM32F0xx_HAL_Driver/Src/stm32f0xx_ll_usb.c ****             PCD_SET_EP_DBUF1_CNT(USBx, ep->num, ep->is_in, len);
 461:Drivers/STM32F0xx_HAL_Driver/Src/stm32f0xx_ll_usb.c ****             pmabuffer = ep->pmaaddr1;
 462:Drivers/STM32F0xx_HAL_Driver/Src/stm32f0xx_ll_usb.c **** 
 463:Drivers/STM32F0xx_HAL_Driver/Src/stm32f0xx_ll_usb.c ****             /* Write the user buffer to USB PMA */
 464:Drivers/STM32F0xx_HAL_Driver/Src/stm32f0xx_ll_usb.c ****             USB_WritePMA(USBx, ep->xfer_buff, pmabuffer, (uint16_t)len);
 465:Drivers/STM32F0xx_HAL_Driver/Src/stm32f0xx_ll_usb.c ****             ep->xfer_buff += len;
 466:Drivers/STM32F0xx_HAL_Driver/Src/stm32f0xx_ll_usb.c **** 
 467:Drivers/STM32F0xx_HAL_Driver/Src/stm32f0xx_ll_usb.c ****             if (ep->xfer_len_db > ep->maxpacket)
 468:Drivers/STM32F0xx_HAL_Driver/Src/stm32f0xx_ll_usb.c ****             {
 469:Drivers/STM32F0xx_HAL_Driver/Src/stm32f0xx_ll_usb.c ****               ep->xfer_len_db -= len;
 470:Drivers/STM32F0xx_HAL_Driver/Src/stm32f0xx_ll_usb.c ****             }
 471:Drivers/STM32F0xx_HAL_Driver/Src/stm32f0xx_ll_usb.c ****             else
 472:Drivers/STM32F0xx_HAL_Driver/Src/stm32f0xx_ll_usb.c ****             {
 473:Drivers/STM32F0xx_HAL_Driver/Src/stm32f0xx_ll_usb.c ****               len = ep->xfer_len_db;
 474:Drivers/STM32F0xx_HAL_Driver/Src/stm32f0xx_ll_usb.c ****               ep->xfer_len_db = 0U;
 475:Drivers/STM32F0xx_HAL_Driver/Src/stm32f0xx_ll_usb.c ****             }
 476:Drivers/STM32F0xx_HAL_Driver/Src/stm32f0xx_ll_usb.c **** 
 477:Drivers/STM32F0xx_HAL_Driver/Src/stm32f0xx_ll_usb.c ****             /* Set the Double buffer counter for pmabuffer0 */
 478:Drivers/STM32F0xx_HAL_Driver/Src/stm32f0xx_ll_usb.c ****             PCD_SET_EP_DBUF0_CNT(USBx, ep->num, ep->is_in, len);
 479:Drivers/STM32F0xx_HAL_Driver/Src/stm32f0xx_ll_usb.c ****             pmabuffer = ep->pmaaddr0;
 480:Drivers/STM32F0xx_HAL_Driver/Src/stm32f0xx_ll_usb.c **** 
 481:Drivers/STM32F0xx_HAL_Driver/Src/stm32f0xx_ll_usb.c ****             /* Write the user buffer to USB PMA */
 482:Drivers/STM32F0xx_HAL_Driver/Src/stm32f0xx_ll_usb.c ****             USB_WritePMA(USBx, ep->xfer_buff, pmabuffer, (uint16_t)len);
 483:Drivers/STM32F0xx_HAL_Driver/Src/stm32f0xx_ll_usb.c ****           }
 484:Drivers/STM32F0xx_HAL_Driver/Src/stm32f0xx_ll_usb.c ****           else
 485:Drivers/STM32F0xx_HAL_Driver/Src/stm32f0xx_ll_usb.c ****           {
 486:Drivers/STM32F0xx_HAL_Driver/Src/stm32f0xx_ll_usb.c ****             /* Set the Double buffer counter for pmabuffer0 */
 487:Drivers/STM32F0xx_HAL_Driver/Src/stm32f0xx_ll_usb.c ****             PCD_SET_EP_DBUF0_CNT(USBx, ep->num, ep->is_in, len);
 488:Drivers/STM32F0xx_HAL_Driver/Src/stm32f0xx_ll_usb.c ****             pmabuffer = ep->pmaaddr0;
 489:Drivers/STM32F0xx_HAL_Driver/Src/stm32f0xx_ll_usb.c **** 
 490:Drivers/STM32F0xx_HAL_Driver/Src/stm32f0xx_ll_usb.c ****             /* Write the user buffer to USB PMA */
 491:Drivers/STM32F0xx_HAL_Driver/Src/stm32f0xx_ll_usb.c ****             USB_WritePMA(USBx, ep->xfer_buff, pmabuffer, (uint16_t)len);
 492:Drivers/STM32F0xx_HAL_Driver/Src/stm32f0xx_ll_usb.c ****             ep->xfer_buff += len;
 493:Drivers/STM32F0xx_HAL_Driver/Src/stm32f0xx_ll_usb.c **** 
 494:Drivers/STM32F0xx_HAL_Driver/Src/stm32f0xx_ll_usb.c ****             if (ep->xfer_len_db > ep->maxpacket)
 495:Drivers/STM32F0xx_HAL_Driver/Src/stm32f0xx_ll_usb.c ****             {
 496:Drivers/STM32F0xx_HAL_Driver/Src/stm32f0xx_ll_usb.c ****               ep->xfer_len_db -= len;
 497:Drivers/STM32F0xx_HAL_Driver/Src/stm32f0xx_ll_usb.c ****             }
 498:Drivers/STM32F0xx_HAL_Driver/Src/stm32f0xx_ll_usb.c ****             else
 499:Drivers/STM32F0xx_HAL_Driver/Src/stm32f0xx_ll_usb.c ****             {
 500:Drivers/STM32F0xx_HAL_Driver/Src/stm32f0xx_ll_usb.c ****               len = ep->xfer_len_db;
 501:Drivers/STM32F0xx_HAL_Driver/Src/stm32f0xx_ll_usb.c ****               ep->xfer_len_db = 0U;
 502:Drivers/STM32F0xx_HAL_Driver/Src/stm32f0xx_ll_usb.c ****             }
 503:Drivers/STM32F0xx_HAL_Driver/Src/stm32f0xx_ll_usb.c **** 
 504:Drivers/STM32F0xx_HAL_Driver/Src/stm32f0xx_ll_usb.c ****             /* Set the Double buffer counter for pmabuffer1 */
 505:Drivers/STM32F0xx_HAL_Driver/Src/stm32f0xx_ll_usb.c ****             PCD_SET_EP_DBUF1_CNT(USBx, ep->num, ep->is_in, len);
 506:Drivers/STM32F0xx_HAL_Driver/Src/stm32f0xx_ll_usb.c ****             pmabuffer = ep->pmaaddr1;
 507:Drivers/STM32F0xx_HAL_Driver/Src/stm32f0xx_ll_usb.c **** 
 508:Drivers/STM32F0xx_HAL_Driver/Src/stm32f0xx_ll_usb.c ****             /* Write the user buffer to USB PMA */
 509:Drivers/STM32F0xx_HAL_Driver/Src/stm32f0xx_ll_usb.c ****             USB_WritePMA(USBx, ep->xfer_buff, pmabuffer, (uint16_t)len);
 510:Drivers/STM32F0xx_HAL_Driver/Src/stm32f0xx_ll_usb.c ****           }
 511:Drivers/STM32F0xx_HAL_Driver/Src/stm32f0xx_ll_usb.c ****         }
 512:Drivers/STM32F0xx_HAL_Driver/Src/stm32f0xx_ll_usb.c ****         /* auto Switch to single buffer mode when transfer <Mps no need to manage in double buffer 
ARM GAS  /tmp/cceQvfFh.s 			page 42


 513:Drivers/STM32F0xx_HAL_Driver/Src/stm32f0xx_ll_usb.c ****         else
 514:Drivers/STM32F0xx_HAL_Driver/Src/stm32f0xx_ll_usb.c ****         {
 515:Drivers/STM32F0xx_HAL_Driver/Src/stm32f0xx_ll_usb.c ****           len = ep->xfer_len_db;
 516:Drivers/STM32F0xx_HAL_Driver/Src/stm32f0xx_ll_usb.c **** 
 517:Drivers/STM32F0xx_HAL_Driver/Src/stm32f0xx_ll_usb.c ****           /* disable double buffer mode for Bulk endpoint */
 518:Drivers/STM32F0xx_HAL_Driver/Src/stm32f0xx_ll_usb.c ****           PCD_CLEAR_BULK_EP_DBUF(USBx, ep->num);
 519:Drivers/STM32F0xx_HAL_Driver/Src/stm32f0xx_ll_usb.c **** 
 520:Drivers/STM32F0xx_HAL_Driver/Src/stm32f0xx_ll_usb.c ****           /* Set Tx count with nbre of byte to be transmitted */
 521:Drivers/STM32F0xx_HAL_Driver/Src/stm32f0xx_ll_usb.c ****           PCD_SET_EP_TX_CNT(USBx, ep->num, len);
 522:Drivers/STM32F0xx_HAL_Driver/Src/stm32f0xx_ll_usb.c ****           pmabuffer = ep->pmaaddr0;
 523:Drivers/STM32F0xx_HAL_Driver/Src/stm32f0xx_ll_usb.c **** 
 524:Drivers/STM32F0xx_HAL_Driver/Src/stm32f0xx_ll_usb.c ****           /* Write the user buffer to USB PMA */
 525:Drivers/STM32F0xx_HAL_Driver/Src/stm32f0xx_ll_usb.c ****           USB_WritePMA(USBx, ep->xfer_buff, pmabuffer, (uint16_t)len);
 526:Drivers/STM32F0xx_HAL_Driver/Src/stm32f0xx_ll_usb.c ****         }
 527:Drivers/STM32F0xx_HAL_Driver/Src/stm32f0xx_ll_usb.c ****       }
 528:Drivers/STM32F0xx_HAL_Driver/Src/stm32f0xx_ll_usb.c ****       else /* manage isochronous double buffer IN mode */
 529:Drivers/STM32F0xx_HAL_Driver/Src/stm32f0xx_ll_usb.c ****       {
 530:Drivers/STM32F0xx_HAL_Driver/Src/stm32f0xx_ll_usb.c ****         /* each Time to write in PMA xfer_len_db will */
 531:Drivers/STM32F0xx_HAL_Driver/Src/stm32f0xx_ll_usb.c ****         ep->xfer_len_db -= len;
 532:Drivers/STM32F0xx_HAL_Driver/Src/stm32f0xx_ll_usb.c **** 
 533:Drivers/STM32F0xx_HAL_Driver/Src/stm32f0xx_ll_usb.c ****         /* Fill the data buffer */
 534:Drivers/STM32F0xx_HAL_Driver/Src/stm32f0xx_ll_usb.c ****         if ((PCD_GET_ENDPOINT(USBx, ep->num) & USB_EP_DTOG_TX) != 0U)
 535:Drivers/STM32F0xx_HAL_Driver/Src/stm32f0xx_ll_usb.c ****         {
 536:Drivers/STM32F0xx_HAL_Driver/Src/stm32f0xx_ll_usb.c ****           /* Set the Double buffer counter for pmabuffer1 */
 537:Drivers/STM32F0xx_HAL_Driver/Src/stm32f0xx_ll_usb.c ****           PCD_SET_EP_DBUF1_CNT(USBx, ep->num, ep->is_in, len);
 538:Drivers/STM32F0xx_HAL_Driver/Src/stm32f0xx_ll_usb.c ****           pmabuffer = ep->pmaaddr1;
 539:Drivers/STM32F0xx_HAL_Driver/Src/stm32f0xx_ll_usb.c **** 
 540:Drivers/STM32F0xx_HAL_Driver/Src/stm32f0xx_ll_usb.c ****           /* Write the user buffer to USB PMA */
 541:Drivers/STM32F0xx_HAL_Driver/Src/stm32f0xx_ll_usb.c ****           USB_WritePMA(USBx, ep->xfer_buff, pmabuffer, (uint16_t)len);
 542:Drivers/STM32F0xx_HAL_Driver/Src/stm32f0xx_ll_usb.c ****         }
 543:Drivers/STM32F0xx_HAL_Driver/Src/stm32f0xx_ll_usb.c ****         else
 544:Drivers/STM32F0xx_HAL_Driver/Src/stm32f0xx_ll_usb.c ****         {
 545:Drivers/STM32F0xx_HAL_Driver/Src/stm32f0xx_ll_usb.c ****           /* Set the Double buffer counter for pmabuffer0 */
 546:Drivers/STM32F0xx_HAL_Driver/Src/stm32f0xx_ll_usb.c ****           PCD_SET_EP_DBUF0_CNT(USBx, ep->num, ep->is_in, len);
 547:Drivers/STM32F0xx_HAL_Driver/Src/stm32f0xx_ll_usb.c ****           pmabuffer = ep->pmaaddr0;
 548:Drivers/STM32F0xx_HAL_Driver/Src/stm32f0xx_ll_usb.c **** 
 549:Drivers/STM32F0xx_HAL_Driver/Src/stm32f0xx_ll_usb.c ****           /* Write the user buffer to USB PMA */
 550:Drivers/STM32F0xx_HAL_Driver/Src/stm32f0xx_ll_usb.c ****           USB_WritePMA(USBx, ep->xfer_buff, pmabuffer, (uint16_t)len);
 551:Drivers/STM32F0xx_HAL_Driver/Src/stm32f0xx_ll_usb.c ****         }
 552:Drivers/STM32F0xx_HAL_Driver/Src/stm32f0xx_ll_usb.c ****       }
 553:Drivers/STM32F0xx_HAL_Driver/Src/stm32f0xx_ll_usb.c ****     }
 554:Drivers/STM32F0xx_HAL_Driver/Src/stm32f0xx_ll_usb.c **** #endif /* (USE_USB_DOUBLE_BUFFER == 1U) */
 555:Drivers/STM32F0xx_HAL_Driver/Src/stm32f0xx_ll_usb.c **** 
 556:Drivers/STM32F0xx_HAL_Driver/Src/stm32f0xx_ll_usb.c ****     PCD_SET_EP_TX_STATUS(USBx, ep->num, USB_EP_TX_VALID);
 557:Drivers/STM32F0xx_HAL_Driver/Src/stm32f0xx_ll_usb.c ****   }
 558:Drivers/STM32F0xx_HAL_Driver/Src/stm32f0xx_ll_usb.c ****   else /* OUT endpoint */
 559:Drivers/STM32F0xx_HAL_Driver/Src/stm32f0xx_ll_usb.c ****   {
 560:Drivers/STM32F0xx_HAL_Driver/Src/stm32f0xx_ll_usb.c ****     if (ep->doublebuffer == 0U)
 561:Drivers/STM32F0xx_HAL_Driver/Src/stm32f0xx_ll_usb.c ****     {
 562:Drivers/STM32F0xx_HAL_Driver/Src/stm32f0xx_ll_usb.c ****       /* Multi packet transfer */
 563:Drivers/STM32F0xx_HAL_Driver/Src/stm32f0xx_ll_usb.c ****       if (ep->xfer_len > ep->maxpacket)
 564:Drivers/STM32F0xx_HAL_Driver/Src/stm32f0xx_ll_usb.c ****       {
 565:Drivers/STM32F0xx_HAL_Driver/Src/stm32f0xx_ll_usb.c ****         len = ep->maxpacket;
 566:Drivers/STM32F0xx_HAL_Driver/Src/stm32f0xx_ll_usb.c ****         ep->xfer_len -= len;
 567:Drivers/STM32F0xx_HAL_Driver/Src/stm32f0xx_ll_usb.c ****       }
 568:Drivers/STM32F0xx_HAL_Driver/Src/stm32f0xx_ll_usb.c ****       else
 569:Drivers/STM32F0xx_HAL_Driver/Src/stm32f0xx_ll_usb.c ****       {
ARM GAS  /tmp/cceQvfFh.s 			page 43


 570:Drivers/STM32F0xx_HAL_Driver/Src/stm32f0xx_ll_usb.c ****         len = ep->xfer_len;
 571:Drivers/STM32F0xx_HAL_Driver/Src/stm32f0xx_ll_usb.c ****         ep->xfer_len = 0U;
 572:Drivers/STM32F0xx_HAL_Driver/Src/stm32f0xx_ll_usb.c ****       }
 573:Drivers/STM32F0xx_HAL_Driver/Src/stm32f0xx_ll_usb.c ****       /* configure and validate Rx endpoint */
 574:Drivers/STM32F0xx_HAL_Driver/Src/stm32f0xx_ll_usb.c ****       PCD_SET_EP_RX_CNT(USBx, ep->num, len);
 575:Drivers/STM32F0xx_HAL_Driver/Src/stm32f0xx_ll_usb.c ****     }
 576:Drivers/STM32F0xx_HAL_Driver/Src/stm32f0xx_ll_usb.c **** #if (USE_USB_DOUBLE_BUFFER == 1U)
 577:Drivers/STM32F0xx_HAL_Driver/Src/stm32f0xx_ll_usb.c ****     else
 578:Drivers/STM32F0xx_HAL_Driver/Src/stm32f0xx_ll_usb.c ****     {
 579:Drivers/STM32F0xx_HAL_Driver/Src/stm32f0xx_ll_usb.c ****       /* First Transfer Coming From HAL_PCD_EP_Receive & From ISR */
 580:Drivers/STM32F0xx_HAL_Driver/Src/stm32f0xx_ll_usb.c ****       /* Set the Double buffer counter */
 581:Drivers/STM32F0xx_HAL_Driver/Src/stm32f0xx_ll_usb.c ****       if (ep->type == EP_TYPE_BULK)
 582:Drivers/STM32F0xx_HAL_Driver/Src/stm32f0xx_ll_usb.c ****       {
 583:Drivers/STM32F0xx_HAL_Driver/Src/stm32f0xx_ll_usb.c ****         PCD_SET_EP_DBUF_CNT(USBx, ep->num, ep->is_in, ep->maxpacket);
 584:Drivers/STM32F0xx_HAL_Driver/Src/stm32f0xx_ll_usb.c **** 
 585:Drivers/STM32F0xx_HAL_Driver/Src/stm32f0xx_ll_usb.c ****         /* Coming from ISR */
 586:Drivers/STM32F0xx_HAL_Driver/Src/stm32f0xx_ll_usb.c ****         if (ep->xfer_count != 0U)
 587:Drivers/STM32F0xx_HAL_Driver/Src/stm32f0xx_ll_usb.c ****         {
 588:Drivers/STM32F0xx_HAL_Driver/Src/stm32f0xx_ll_usb.c ****           /* update last value to check if there is blocking state */
 589:Drivers/STM32F0xx_HAL_Driver/Src/stm32f0xx_ll_usb.c ****           wEPVal = PCD_GET_ENDPOINT(USBx, ep->num);
 590:Drivers/STM32F0xx_HAL_Driver/Src/stm32f0xx_ll_usb.c **** 
 591:Drivers/STM32F0xx_HAL_Driver/Src/stm32f0xx_ll_usb.c ****           /*Blocking State */
 592:Drivers/STM32F0xx_HAL_Driver/Src/stm32f0xx_ll_usb.c ****           if ((((wEPVal & USB_EP_DTOG_RX) != 0U) && ((wEPVal & USB_EP_DTOG_TX) != 0U)) ||
 593:Drivers/STM32F0xx_HAL_Driver/Src/stm32f0xx_ll_usb.c ****               (((wEPVal & USB_EP_DTOG_RX) == 0U) && ((wEPVal & USB_EP_DTOG_TX) == 0U)))
 594:Drivers/STM32F0xx_HAL_Driver/Src/stm32f0xx_ll_usb.c ****           {
 595:Drivers/STM32F0xx_HAL_Driver/Src/stm32f0xx_ll_usb.c ****             PCD_FREE_USER_BUFFER(USBx, ep->num, 0U);
 596:Drivers/STM32F0xx_HAL_Driver/Src/stm32f0xx_ll_usb.c ****           }
 597:Drivers/STM32F0xx_HAL_Driver/Src/stm32f0xx_ll_usb.c ****         }
 598:Drivers/STM32F0xx_HAL_Driver/Src/stm32f0xx_ll_usb.c ****       }
 599:Drivers/STM32F0xx_HAL_Driver/Src/stm32f0xx_ll_usb.c ****       /* iso out double */
 600:Drivers/STM32F0xx_HAL_Driver/Src/stm32f0xx_ll_usb.c ****       else if (ep->type == EP_TYPE_ISOC)
 601:Drivers/STM32F0xx_HAL_Driver/Src/stm32f0xx_ll_usb.c ****       {
 602:Drivers/STM32F0xx_HAL_Driver/Src/stm32f0xx_ll_usb.c ****         /* Multi packet transfer */
 603:Drivers/STM32F0xx_HAL_Driver/Src/stm32f0xx_ll_usb.c ****         if (ep->xfer_len > ep->maxpacket)
 604:Drivers/STM32F0xx_HAL_Driver/Src/stm32f0xx_ll_usb.c ****         {
 605:Drivers/STM32F0xx_HAL_Driver/Src/stm32f0xx_ll_usb.c ****           len = ep->maxpacket;
 606:Drivers/STM32F0xx_HAL_Driver/Src/stm32f0xx_ll_usb.c ****           ep->xfer_len -= len;
 607:Drivers/STM32F0xx_HAL_Driver/Src/stm32f0xx_ll_usb.c ****         }
 608:Drivers/STM32F0xx_HAL_Driver/Src/stm32f0xx_ll_usb.c ****         else
 609:Drivers/STM32F0xx_HAL_Driver/Src/stm32f0xx_ll_usb.c ****         {
 610:Drivers/STM32F0xx_HAL_Driver/Src/stm32f0xx_ll_usb.c ****           len = ep->xfer_len;
 611:Drivers/STM32F0xx_HAL_Driver/Src/stm32f0xx_ll_usb.c ****           ep->xfer_len = 0U;
 612:Drivers/STM32F0xx_HAL_Driver/Src/stm32f0xx_ll_usb.c ****         }
 613:Drivers/STM32F0xx_HAL_Driver/Src/stm32f0xx_ll_usb.c ****         PCD_SET_EP_DBUF_CNT(USBx, ep->num, ep->is_in, len);
 614:Drivers/STM32F0xx_HAL_Driver/Src/stm32f0xx_ll_usb.c ****       }
 615:Drivers/STM32F0xx_HAL_Driver/Src/stm32f0xx_ll_usb.c ****       else
 616:Drivers/STM32F0xx_HAL_Driver/Src/stm32f0xx_ll_usb.c ****       {
 617:Drivers/STM32F0xx_HAL_Driver/Src/stm32f0xx_ll_usb.c ****         return HAL_ERROR;
 618:Drivers/STM32F0xx_HAL_Driver/Src/stm32f0xx_ll_usb.c ****       }
 619:Drivers/STM32F0xx_HAL_Driver/Src/stm32f0xx_ll_usb.c ****     }
 620:Drivers/STM32F0xx_HAL_Driver/Src/stm32f0xx_ll_usb.c **** #endif /* (USE_USB_DOUBLE_BUFFER == 1U) */
 621:Drivers/STM32F0xx_HAL_Driver/Src/stm32f0xx_ll_usb.c **** 
 622:Drivers/STM32F0xx_HAL_Driver/Src/stm32f0xx_ll_usb.c ****     PCD_SET_EP_RX_STATUS(USBx, ep->num, USB_EP_RX_VALID);
 623:Drivers/STM32F0xx_HAL_Driver/Src/stm32f0xx_ll_usb.c ****   }
 624:Drivers/STM32F0xx_HAL_Driver/Src/stm32f0xx_ll_usb.c **** 
 625:Drivers/STM32F0xx_HAL_Driver/Src/stm32f0xx_ll_usb.c ****   return HAL_OK;
 626:Drivers/STM32F0xx_HAL_Driver/Src/stm32f0xx_ll_usb.c **** }
ARM GAS  /tmp/cceQvfFh.s 			page 44


 627:Drivers/STM32F0xx_HAL_Driver/Src/stm32f0xx_ll_usb.c **** 
 628:Drivers/STM32F0xx_HAL_Driver/Src/stm32f0xx_ll_usb.c **** 
 629:Drivers/STM32F0xx_HAL_Driver/Src/stm32f0xx_ll_usb.c **** /**
 630:Drivers/STM32F0xx_HAL_Driver/Src/stm32f0xx_ll_usb.c ****   * @brief  USB_EPSetStall set a stall condition over an EP
 631:Drivers/STM32F0xx_HAL_Driver/Src/stm32f0xx_ll_usb.c ****   * @param  USBx Selected device
 632:Drivers/STM32F0xx_HAL_Driver/Src/stm32f0xx_ll_usb.c ****   * @param  ep pointer to endpoint structure
 633:Drivers/STM32F0xx_HAL_Driver/Src/stm32f0xx_ll_usb.c ****   * @retval HAL status
 634:Drivers/STM32F0xx_HAL_Driver/Src/stm32f0xx_ll_usb.c ****   */
 635:Drivers/STM32F0xx_HAL_Driver/Src/stm32f0xx_ll_usb.c **** HAL_StatusTypeDef USB_EPSetStall(USB_TypeDef *USBx, USB_EPTypeDef *ep)
 636:Drivers/STM32F0xx_HAL_Driver/Src/stm32f0xx_ll_usb.c **** {
 1642              		.loc 1 636 1 view -0
 1643              		.cfi_startproc
 1644              		@ args = 0, pretend = 0, frame = 0
 1645              		@ frame_needed = 0, uses_anonymous_args = 0
 1646              		@ link register save eliminated.
 637:Drivers/STM32F0xx_HAL_Driver/Src/stm32f0xx_ll_usb.c ****   if (ep->is_in != 0U)
 1647              		.loc 1 637 3 view .LVU513
 1648              		.loc 1 637 9 is_stmt 0 view .LVU514
 1649 0000 4B78     		ldrb	r3, [r1, #1]
 1650              		.loc 1 637 6 view .LVU515
 1651 0002 002B     		cmp	r3, #0
 1652 0004 0ED0     		beq	.L73
 638:Drivers/STM32F0xx_HAL_Driver/Src/stm32f0xx_ll_usb.c ****   {
 639:Drivers/STM32F0xx_HAL_Driver/Src/stm32f0xx_ll_usb.c ****     PCD_SET_EP_TX_STATUS(USBx, ep->num, USB_EP_TX_STALL);
 1653              		.loc 1 639 5 is_stmt 1 view .LVU516
 1654              	.LBB54:
 1655              		.loc 1 639 5 view .LVU517
 1656              		.loc 1 639 5 view .LVU518
 1657 0006 0B78     		ldrb	r3, [r1]
 1658 0008 9B00     		lsls	r3, r3, #2
 1659 000a C018     		adds	r0, r0, r3
 1660              	.LVL176:
 1661              		.loc 1 639 5 is_stmt 0 view .LVU519
 1662 000c 0388     		ldrh	r3, [r0]
 1663 000e 0C4A     		ldr	r2, .L75
 1664 0010 1340     		ands	r3, r2
 1665              	.LVL177:
 1666              		.loc 1 639 5 is_stmt 1 view .LVU520
 1667              		.loc 1 639 5 discriminator 1 view .LVU521
 1668 0012 1022     		movs	r2, #16
 1669 0014 5340     		eors	r3, r2
 1670              	.LVL178:
 1671              		.loc 1 639 5 is_stmt 0 discriminator 1 view .LVU522
 1672 0016 9BB2     		uxth	r3, r3
 1673              	.LVL179:
 1674              		.loc 1 639 5 is_stmt 1 discriminator 3 view .LVU523
 1675              		.loc 1 639 5 discriminator 6 view .LVU524
 1676 0018 0A4A     		ldr	r2, .L75+4
 1677 001a 1343     		orrs	r3, r2
 1678              	.LVL180:
 1679              		.loc 1 639 5 is_stmt 0 discriminator 6 view .LVU525
 1680 001c 9BB2     		uxth	r3, r3
 1681 001e 0380     		strh	r3, [r0]
 1682              	.LBE54:
 1683              		.loc 1 639 5 is_stmt 1 view .LVU526
 1684              	.LVL181:
 1685              	.L74:
ARM GAS  /tmp/cceQvfFh.s 			page 45


 640:Drivers/STM32F0xx_HAL_Driver/Src/stm32f0xx_ll_usb.c ****   }
 641:Drivers/STM32F0xx_HAL_Driver/Src/stm32f0xx_ll_usb.c ****   else
 642:Drivers/STM32F0xx_HAL_Driver/Src/stm32f0xx_ll_usb.c ****   {
 643:Drivers/STM32F0xx_HAL_Driver/Src/stm32f0xx_ll_usb.c ****     PCD_SET_EP_RX_STATUS(USBx, ep->num, USB_EP_RX_STALL);
 1686              		.loc 1 643 5 discriminator 7 view .LVU527
 644:Drivers/STM32F0xx_HAL_Driver/Src/stm32f0xx_ll_usb.c ****   }
 645:Drivers/STM32F0xx_HAL_Driver/Src/stm32f0xx_ll_usb.c **** 
 646:Drivers/STM32F0xx_HAL_Driver/Src/stm32f0xx_ll_usb.c ****   return HAL_OK;
 1687              		.loc 1 646 3 view .LVU528
 647:Drivers/STM32F0xx_HAL_Driver/Src/stm32f0xx_ll_usb.c **** }
 1688              		.loc 1 647 1 is_stmt 0 view .LVU529
 1689 0020 0020     		movs	r0, #0
 1690              		@ sp needed
 1691 0022 7047     		bx	lr
 1692              	.LVL182:
 1693              	.L73:
 643:Drivers/STM32F0xx_HAL_Driver/Src/stm32f0xx_ll_usb.c ****   }
 1694              		.loc 1 643 5 is_stmt 1 view .LVU530
 1695              	.LBB55:
 643:Drivers/STM32F0xx_HAL_Driver/Src/stm32f0xx_ll_usb.c ****   }
 1696              		.loc 1 643 5 view .LVU531
 643:Drivers/STM32F0xx_HAL_Driver/Src/stm32f0xx_ll_usb.c ****   }
 1697              		.loc 1 643 5 view .LVU532
 1698 0024 0B78     		ldrb	r3, [r1]
 1699 0026 9B00     		lsls	r3, r3, #2
 1700 0028 C018     		adds	r0, r0, r3
 1701              	.LVL183:
 643:Drivers/STM32F0xx_HAL_Driver/Src/stm32f0xx_ll_usb.c ****   }
 1702              		.loc 1 643 5 is_stmt 0 view .LVU533
 1703 002a 0388     		ldrh	r3, [r0]
 1704 002c 064A     		ldr	r2, .L75+8
 1705 002e 1340     		ands	r3, r2
 1706              	.LVL184:
 643:Drivers/STM32F0xx_HAL_Driver/Src/stm32f0xx_ll_usb.c ****   }
 1707              		.loc 1 643 5 is_stmt 1 view .LVU534
 643:Drivers/STM32F0xx_HAL_Driver/Src/stm32f0xx_ll_usb.c ****   }
 1708              		.loc 1 643 5 discriminator 1 view .LVU535
 1709 0030 8022     		movs	r2, #128
 1710 0032 5201     		lsls	r2, r2, #5
 1711 0034 5A40     		eors	r2, r3
 1712              	.LVL185:
 643:Drivers/STM32F0xx_HAL_Driver/Src/stm32f0xx_ll_usb.c ****   }
 1713              		.loc 1 643 5 discriminator 3 view .LVU536
 643:Drivers/STM32F0xx_HAL_Driver/Src/stm32f0xx_ll_usb.c ****   }
 1714              		.loc 1 643 5 discriminator 6 view .LVU537
 1715 0036 034B     		ldr	r3, .L75+4
 1716 0038 1343     		orrs	r3, r2
 1717 003a 9BB2     		uxth	r3, r3
 1718 003c 0380     		strh	r3, [r0]
 1719 003e EFE7     		b	.L74
 1720              	.L76:
 1721              		.align	2
 1722              	.L75:
 1723 0040 BF8FFFFF 		.word	-28737
 1724 0044 8080FFFF 		.word	-32640
 1725 0048 8FBFFFFF 		.word	-16497
 1726              	.LBE55:
ARM GAS  /tmp/cceQvfFh.s 			page 46


 1727              		.cfi_endproc
 1728              	.LFE50:
 1730              		.section	.text.USB_EPClearStall,"ax",%progbits
 1731              		.align	1
 1732              		.global	USB_EPClearStall
 1733              		.syntax unified
 1734              		.code	16
 1735              		.thumb_func
 1737              	USB_EPClearStall:
 1738              	.LVL186:
 1739              	.LFB51:
 648:Drivers/STM32F0xx_HAL_Driver/Src/stm32f0xx_ll_usb.c **** 
 649:Drivers/STM32F0xx_HAL_Driver/Src/stm32f0xx_ll_usb.c **** /**
 650:Drivers/STM32F0xx_HAL_Driver/Src/stm32f0xx_ll_usb.c ****   * @brief  USB_EPClearStall Clear a stall condition over an EP
 651:Drivers/STM32F0xx_HAL_Driver/Src/stm32f0xx_ll_usb.c ****   * @param  USBx Selected device
 652:Drivers/STM32F0xx_HAL_Driver/Src/stm32f0xx_ll_usb.c ****   * @param  ep pointer to endpoint structure
 653:Drivers/STM32F0xx_HAL_Driver/Src/stm32f0xx_ll_usb.c ****   * @retval HAL status
 654:Drivers/STM32F0xx_HAL_Driver/Src/stm32f0xx_ll_usb.c ****   */
 655:Drivers/STM32F0xx_HAL_Driver/Src/stm32f0xx_ll_usb.c **** HAL_StatusTypeDef USB_EPClearStall(USB_TypeDef *USBx, USB_EPTypeDef *ep)
 656:Drivers/STM32F0xx_HAL_Driver/Src/stm32f0xx_ll_usb.c **** {
 1740              		.loc 1 656 1 view -0
 1741              		.cfi_startproc
 1742              		@ args = 0, pretend = 0, frame = 0
 1743              		@ frame_needed = 0, uses_anonymous_args = 0
 1744              		.loc 1 656 1 is_stmt 0 view .LVU539
 1745 0000 10B5     		push	{r4, lr}
 1746              		.cfi_def_cfa_offset 8
 1747              		.cfi_offset 4, -8
 1748              		.cfi_offset 14, -4
 657:Drivers/STM32F0xx_HAL_Driver/Src/stm32f0xx_ll_usb.c ****   if (ep->doublebuffer == 0U)
 1749              		.loc 1 657 3 is_stmt 1 view .LVU540
 1750              		.loc 1 657 9 is_stmt 0 view .LVU541
 1751 0002 0B7B     		ldrb	r3, [r1, #12]
 1752              		.loc 1 657 6 view .LVU542
 1753 0004 002B     		cmp	r3, #0
 1754 0006 3AD1     		bne	.L78
 658:Drivers/STM32F0xx_HAL_Driver/Src/stm32f0xx_ll_usb.c ****   {
 659:Drivers/STM32F0xx_HAL_Driver/Src/stm32f0xx_ll_usb.c ****     if (ep->is_in != 0U)
 1755              		.loc 1 659 5 is_stmt 1 view .LVU543
 1756              		.loc 1 659 11 is_stmt 0 view .LVU544
 1757 0008 4B78     		ldrb	r3, [r1, #1]
 1758              		.loc 1 659 8 view .LVU545
 1759 000a 002B     		cmp	r3, #0
 1760 000c 1DD0     		beq	.L79
 660:Drivers/STM32F0xx_HAL_Driver/Src/stm32f0xx_ll_usb.c ****     {
 661:Drivers/STM32F0xx_HAL_Driver/Src/stm32f0xx_ll_usb.c ****       PCD_CLEAR_TX_DTOG(USBx, ep->num);
 1761              		.loc 1 661 7 is_stmt 1 view .LVU546
 1762              	.LBB56:
 1763              		.loc 1 661 7 view .LVU547
 1764              		.loc 1 661 7 view .LVU548
 1765 000e 0B78     		ldrb	r3, [r1]
 1766 0010 9B00     		lsls	r3, r3, #2
 1767 0012 C318     		adds	r3, r0, r3
 1768 0014 1A88     		ldrh	r2, [r3]
 1769              	.LVL187:
 1770              		.loc 1 661 7 view .LVU549
 1771 0016 5206     		lsls	r2, r2, #25
ARM GAS  /tmp/cceQvfFh.s 			page 47


 1772 0018 06D5     		bpl	.L80
 1773              	.LVL188:
 1774              		.loc 1 661 7 discriminator 1 view .LVU550
 1775              	.LBB57:
 1776              		.loc 1 661 7 discriminator 1 view .LVU551
 1777              		.loc 1 661 7 discriminator 1 view .LVU552
 1778 001a 1C88     		ldrh	r4, [r3]
 1779 001c 194A     		ldr	r2, .L84
 1780 001e 1440     		ands	r4, r2
 1781              	.LVL189:
 1782              		.loc 1 661 7 view .LVU553
 1783              		.loc 1 661 7 is_stmt 0 discriminator 1 view .LVU554
 1784 0020 194A     		ldr	r2, .L84+4
 1785 0022 2243     		orrs	r2, r4
 1786 0024 92B2     		uxth	r2, r2
 1787 0026 1A80     		strh	r2, [r3]
 1788              	.LVL190:
 1789              	.L80:
 1790              		.loc 1 661 7 discriminator 1 view .LVU555
 1791              	.LBE57:
 1792              		.loc 1 661 7 is_stmt 1 discriminator 3 view .LVU556
 1793              	.LBE56:
 1794              		.loc 1 661 7 discriminator 3 view .LVU557
 662:Drivers/STM32F0xx_HAL_Driver/Src/stm32f0xx_ll_usb.c **** 
 663:Drivers/STM32F0xx_HAL_Driver/Src/stm32f0xx_ll_usb.c ****       if (ep->type != EP_TYPE_ISOC)
 1795              		.loc 1 663 7 view .LVU558
 1796              		.loc 1 663 13 is_stmt 0 view .LVU559
 1797 0028 CB78     		ldrb	r3, [r1, #3]
 1798              		.loc 1 663 10 view .LVU560
 1799 002a 012B     		cmp	r3, #1
 1800 002c 27D0     		beq	.L78
 664:Drivers/STM32F0xx_HAL_Driver/Src/stm32f0xx_ll_usb.c ****       {
 665:Drivers/STM32F0xx_HAL_Driver/Src/stm32f0xx_ll_usb.c ****         /* Configure NAK status for the Endpoint */
 666:Drivers/STM32F0xx_HAL_Driver/Src/stm32f0xx_ll_usb.c ****         PCD_SET_EP_TX_STATUS(USBx, ep->num, USB_EP_TX_NAK);
 1801              		.loc 1 666 9 is_stmt 1 view .LVU561
 1802              	.LBB58:
 1803              		.loc 1 666 9 view .LVU562
 1804              		.loc 1 666 9 view .LVU563
 1805 002e 0A78     		ldrb	r2, [r1]
 1806 0030 9200     		lsls	r2, r2, #2
 1807 0032 8218     		adds	r2, r0, r2
 1808 0034 1388     		ldrh	r3, [r2]
 1809 0036 1549     		ldr	r1, .L84+8
 1810              	.LVL191:
 1811              		.loc 1 666 9 is_stmt 0 view .LVU564
 1812 0038 0B40     		ands	r3, r1
 1813              	.LVL192:
 1814              		.loc 1 666 9 is_stmt 1 view .LVU565
 1815              		.loc 1 666 9 discriminator 3 view .LVU566
 1816              		.loc 1 666 9 discriminator 4 view .LVU567
 1817 003a 2021     		movs	r1, #32
 1818 003c 4B40     		eors	r3, r1
 1819              	.LVL193:
 1820              		.loc 1 666 9 is_stmt 0 discriminator 4 view .LVU568
 1821 003e 9BB2     		uxth	r3, r3
 1822              	.LVL194:
 1823              		.loc 1 666 9 is_stmt 1 discriminator 6 view .LVU569
ARM GAS  /tmp/cceQvfFh.s 			page 48


 1824 0040 1349     		ldr	r1, .L84+12
 1825 0042 0B43     		orrs	r3, r1
 1826              	.LVL195:
 1827              		.loc 1 666 9 is_stmt 0 discriminator 6 view .LVU570
 1828 0044 9BB2     		uxth	r3, r3
 1829 0046 1380     		strh	r3, [r2]
 1830 0048 19E0     		b	.L78
 1831              	.LVL196:
 1832              	.L79:
 1833              		.loc 1 666 9 discriminator 6 view .LVU571
 1834              	.LBE58:
 667:Drivers/STM32F0xx_HAL_Driver/Src/stm32f0xx_ll_usb.c ****       }
 668:Drivers/STM32F0xx_HAL_Driver/Src/stm32f0xx_ll_usb.c ****     }
 669:Drivers/STM32F0xx_HAL_Driver/Src/stm32f0xx_ll_usb.c ****     else
 670:Drivers/STM32F0xx_HAL_Driver/Src/stm32f0xx_ll_usb.c ****     {
 671:Drivers/STM32F0xx_HAL_Driver/Src/stm32f0xx_ll_usb.c ****       PCD_CLEAR_RX_DTOG(USBx, ep->num);
 1835              		.loc 1 671 7 is_stmt 1 view .LVU572
 1836              	.LBB59:
 1837              		.loc 1 671 7 view .LVU573
 1838              		.loc 1 671 7 view .LVU574
 1839 004a 0B78     		ldrb	r3, [r1]
 1840 004c 9B00     		lsls	r3, r3, #2
 1841 004e C318     		adds	r3, r0, r3
 1842 0050 1A88     		ldrh	r2, [r3]
 1843              	.LVL197:
 1844              		.loc 1 671 7 view .LVU575
 1845 0052 5204     		lsls	r2, r2, #17
 1846 0054 06D5     		bpl	.L81
 1847              	.LVL198:
 1848              		.loc 1 671 7 discriminator 1 view .LVU576
 1849              	.LBB60:
 1850              		.loc 1 671 7 discriminator 1 view .LVU577
 1851              		.loc 1 671 7 discriminator 1 view .LVU578
 1852 0056 1C88     		ldrh	r4, [r3]
 1853 0058 0A4A     		ldr	r2, .L84
 1854 005a 1440     		ands	r4, r2
 1855              	.LVL199:
 1856              		.loc 1 671 7 view .LVU579
 1857              		.loc 1 671 7 is_stmt 0 discriminator 1 view .LVU580
 1858 005c 0D4A     		ldr	r2, .L84+16
 1859 005e 2243     		orrs	r2, r4
 1860 0060 92B2     		uxth	r2, r2
 1861 0062 1A80     		strh	r2, [r3]
 1862              	.LVL200:
 1863              	.L81:
 1864              		.loc 1 671 7 discriminator 1 view .LVU581
 1865              	.LBE60:
 1866              		.loc 1 671 7 is_stmt 1 discriminator 3 view .LVU582
 1867              	.LBE59:
 1868              		.loc 1 671 7 discriminator 3 view .LVU583
 672:Drivers/STM32F0xx_HAL_Driver/Src/stm32f0xx_ll_usb.c **** 
 673:Drivers/STM32F0xx_HAL_Driver/Src/stm32f0xx_ll_usb.c ****       /* Configure VALID status for the Endpoint */
 674:Drivers/STM32F0xx_HAL_Driver/Src/stm32f0xx_ll_usb.c ****       PCD_SET_EP_RX_STATUS(USBx, ep->num, USB_EP_RX_VALID);
 1869              		.loc 1 674 7 view .LVU584
 1870              	.LBB61:
 1871              		.loc 1 674 7 view .LVU585
 1872              		.loc 1 674 7 view .LVU586
ARM GAS  /tmp/cceQvfFh.s 			page 49


 1873 0064 0B78     		ldrb	r3, [r1]
 1874 0066 9B00     		lsls	r3, r3, #2
 1875 0068 C018     		adds	r0, r0, r3
 1876              	.LVL201:
 1877              		.loc 1 674 7 is_stmt 0 view .LVU587
 1878 006a 0388     		ldrh	r3, [r0]
 1879 006c 0A4A     		ldr	r2, .L84+20
 1880 006e 1340     		ands	r3, r2
 1881              	.LVL202:
 1882              		.loc 1 674 7 is_stmt 1 view .LVU588
 1883              		.loc 1 674 7 discriminator 1 view .LVU589
 1884              		.loc 1 674 7 discriminator 3 view .LVU590
 1885              		.loc 1 674 7 discriminator 4 view .LVU591
 1886 0070 C022     		movs	r2, #192
 1887 0072 9201     		lsls	r2, r2, #6
 1888 0074 5A40     		eors	r2, r3
 1889              	.LVL203:
 1890              		.loc 1 674 7 discriminator 6 view .LVU592
 1891 0076 064B     		ldr	r3, .L84+12
 1892 0078 1343     		orrs	r3, r2
 1893 007a 9BB2     		uxth	r3, r3
 1894 007c 0380     		strh	r3, [r0]
 1895              	.LVL204:
 1896              	.L78:
 1897              		.loc 1 674 7 is_stmt 0 discriminator 6 view .LVU593
 1898              	.LBE61:
 1899              		.loc 1 674 7 is_stmt 1 discriminator 7 view .LVU594
 675:Drivers/STM32F0xx_HAL_Driver/Src/stm32f0xx_ll_usb.c ****     }
 676:Drivers/STM32F0xx_HAL_Driver/Src/stm32f0xx_ll_usb.c ****   }
 677:Drivers/STM32F0xx_HAL_Driver/Src/stm32f0xx_ll_usb.c **** 
 678:Drivers/STM32F0xx_HAL_Driver/Src/stm32f0xx_ll_usb.c ****   return HAL_OK;
 1900              		.loc 1 678 3 view .LVU595
 679:Drivers/STM32F0xx_HAL_Driver/Src/stm32f0xx_ll_usb.c **** }
 1901              		.loc 1 679 1 is_stmt 0 view .LVU596
 1902 007e 0020     		movs	r0, #0
 1903              		@ sp needed
 1904 0080 10BD     		pop	{r4, pc}
 1905              	.L85:
 1906 0082 C046     		.align	2
 1907              	.L84:
 1908 0084 8F8FFFFF 		.word	-28785
 1909 0088 C080FFFF 		.word	-32576
 1910 008c BF8FFFFF 		.word	-28737
 1911 0090 8080FFFF 		.word	-32640
 1912 0094 80C0FFFF 		.word	-16256
 1913 0098 8FBFFFFF 		.word	-16497
 1914              		.cfi_endproc
 1915              	.LFE51:
 1917              		.section	.text.USB_EPStopXfer,"ax",%progbits
 1918              		.align	1
 1919              		.global	USB_EPStopXfer
 1920              		.syntax unified
 1921              		.code	16
 1922              		.thumb_func
 1924              	USB_EPStopXfer:
 1925              	.LVL205:
 1926              	.LFB52:
ARM GAS  /tmp/cceQvfFh.s 			page 50


 680:Drivers/STM32F0xx_HAL_Driver/Src/stm32f0xx_ll_usb.c **** 
 681:Drivers/STM32F0xx_HAL_Driver/Src/stm32f0xx_ll_usb.c **** /**
 682:Drivers/STM32F0xx_HAL_Driver/Src/stm32f0xx_ll_usb.c ****    * @brief  USB_EPStoptXfer  Stop transfer on an EP
 683:Drivers/STM32F0xx_HAL_Driver/Src/stm32f0xx_ll_usb.c ****    * @param  USBx  usb device instance
 684:Drivers/STM32F0xx_HAL_Driver/Src/stm32f0xx_ll_usb.c ****    * @param  ep pointer to endpoint structure
 685:Drivers/STM32F0xx_HAL_Driver/Src/stm32f0xx_ll_usb.c ****    * @retval HAL status
 686:Drivers/STM32F0xx_HAL_Driver/Src/stm32f0xx_ll_usb.c ****    */
 687:Drivers/STM32F0xx_HAL_Driver/Src/stm32f0xx_ll_usb.c **** HAL_StatusTypeDef USB_EPStopXfer(USB_TypeDef *USBx, USB_EPTypeDef *ep)
 688:Drivers/STM32F0xx_HAL_Driver/Src/stm32f0xx_ll_usb.c **** {
 1927              		.loc 1 688 1 is_stmt 1 view -0
 1928              		.cfi_startproc
 1929              		@ args = 0, pretend = 0, frame = 0
 1930              		@ frame_needed = 0, uses_anonymous_args = 0
 1931              		@ link register save eliminated.
 689:Drivers/STM32F0xx_HAL_Driver/Src/stm32f0xx_ll_usb.c ****   /* IN endpoint */
 690:Drivers/STM32F0xx_HAL_Driver/Src/stm32f0xx_ll_usb.c ****   if (ep->is_in == 1U)
 1932              		.loc 1 690 3 view .LVU598
 1933              		.loc 1 690 9 is_stmt 0 view .LVU599
 1934 0000 4B78     		ldrb	r3, [r1, #1]
 1935              		.loc 1 690 6 view .LVU600
 1936 0002 012B     		cmp	r3, #1
 1937 0004 14D0     		beq	.L91
 691:Drivers/STM32F0xx_HAL_Driver/Src/stm32f0xx_ll_usb.c ****   {
 692:Drivers/STM32F0xx_HAL_Driver/Src/stm32f0xx_ll_usb.c ****     if (ep->doublebuffer == 0U)
 693:Drivers/STM32F0xx_HAL_Driver/Src/stm32f0xx_ll_usb.c ****     {
 694:Drivers/STM32F0xx_HAL_Driver/Src/stm32f0xx_ll_usb.c ****       if (ep->type != EP_TYPE_ISOC)
 695:Drivers/STM32F0xx_HAL_Driver/Src/stm32f0xx_ll_usb.c ****       {
 696:Drivers/STM32F0xx_HAL_Driver/Src/stm32f0xx_ll_usb.c ****         /* Configure NAK status for the Endpoint */
 697:Drivers/STM32F0xx_HAL_Driver/Src/stm32f0xx_ll_usb.c ****         PCD_SET_EP_TX_STATUS(USBx, ep->num, USB_EP_TX_NAK);
 698:Drivers/STM32F0xx_HAL_Driver/Src/stm32f0xx_ll_usb.c ****       }
 699:Drivers/STM32F0xx_HAL_Driver/Src/stm32f0xx_ll_usb.c ****       else
 700:Drivers/STM32F0xx_HAL_Driver/Src/stm32f0xx_ll_usb.c ****       {
 701:Drivers/STM32F0xx_HAL_Driver/Src/stm32f0xx_ll_usb.c ****         /* Configure TX Endpoint to disabled state */
 702:Drivers/STM32F0xx_HAL_Driver/Src/stm32f0xx_ll_usb.c ****         PCD_SET_EP_TX_STATUS(USBx, ep->num, USB_EP_TX_DIS);
 703:Drivers/STM32F0xx_HAL_Driver/Src/stm32f0xx_ll_usb.c ****       }
 704:Drivers/STM32F0xx_HAL_Driver/Src/stm32f0xx_ll_usb.c ****     }
 705:Drivers/STM32F0xx_HAL_Driver/Src/stm32f0xx_ll_usb.c ****   }
 706:Drivers/STM32F0xx_HAL_Driver/Src/stm32f0xx_ll_usb.c ****   else /* OUT endpoint */
 707:Drivers/STM32F0xx_HAL_Driver/Src/stm32f0xx_ll_usb.c ****   {
 708:Drivers/STM32F0xx_HAL_Driver/Src/stm32f0xx_ll_usb.c ****     if (ep->doublebuffer == 0U)
 1938              		.loc 1 708 5 is_stmt 1 view .LVU601
 1939              		.loc 1 708 11 is_stmt 0 view .LVU602
 1940 0006 0B7B     		ldrb	r3, [r1, #12]
 1941              		.loc 1 708 8 view .LVU603
 1942 0008 002B     		cmp	r3, #0
 1943 000a 0FD1     		bne	.L88
 709:Drivers/STM32F0xx_HAL_Driver/Src/stm32f0xx_ll_usb.c ****     {
 710:Drivers/STM32F0xx_HAL_Driver/Src/stm32f0xx_ll_usb.c ****       if (ep->type != EP_TYPE_ISOC)
 1944              		.loc 1 710 7 is_stmt 1 view .LVU604
 1945              		.loc 1 710 13 is_stmt 0 view .LVU605
 1946 000c CB78     		ldrb	r3, [r1, #3]
 1947              		.loc 1 710 10 view .LVU606
 1948 000e 012B     		cmp	r3, #1
 1949 0010 2DD0     		beq	.L90
 711:Drivers/STM32F0xx_HAL_Driver/Src/stm32f0xx_ll_usb.c ****       {
 712:Drivers/STM32F0xx_HAL_Driver/Src/stm32f0xx_ll_usb.c ****         /* Configure NAK status for the Endpoint */
 713:Drivers/STM32F0xx_HAL_Driver/Src/stm32f0xx_ll_usb.c ****         PCD_SET_EP_RX_STATUS(USBx, ep->num, USB_EP_RX_NAK);
ARM GAS  /tmp/cceQvfFh.s 			page 51


 1950              		.loc 1 713 9 is_stmt 1 view .LVU607
 1951              	.LBB62:
 1952              		.loc 1 713 9 view .LVU608
 1953              		.loc 1 713 9 view .LVU609
 1954 0012 0B78     		ldrb	r3, [r1]
 1955 0014 9B00     		lsls	r3, r3, #2
 1956 0016 C318     		adds	r3, r0, r3
 1957 0018 1A88     		ldrh	r2, [r3]
 1958 001a 1A49     		ldr	r1, .L92
 1959              	.LVL206:
 1960              		.loc 1 713 9 is_stmt 0 view .LVU610
 1961 001c 0A40     		ands	r2, r1
 1962              	.LVL207:
 1963              		.loc 1 713 9 is_stmt 1 view .LVU611
 1964              		.loc 1 713 9 discriminator 3 view .LVU612
 1965              		.loc 1 713 9 discriminator 4 view .LVU613
 1966 001e 8021     		movs	r1, #128
 1967 0020 8901     		lsls	r1, r1, #6
 1968 0022 5140     		eors	r1, r2
 1969              	.LVL208:
 1970              		.loc 1 713 9 discriminator 6 view .LVU614
 1971 0024 184A     		ldr	r2, .L92+4
 1972 0026 0A43     		orrs	r2, r1
 1973 0028 92B2     		uxth	r2, r2
 1974 002a 1A80     		strh	r2, [r3]
 1975              	.LBE62:
 1976              		.loc 1 713 9 view .LVU615
 1977              	.LVL209:
 1978              	.L88:
 714:Drivers/STM32F0xx_HAL_Driver/Src/stm32f0xx_ll_usb.c ****       }
 715:Drivers/STM32F0xx_HAL_Driver/Src/stm32f0xx_ll_usb.c ****       else
 716:Drivers/STM32F0xx_HAL_Driver/Src/stm32f0xx_ll_usb.c ****       {
 717:Drivers/STM32F0xx_HAL_Driver/Src/stm32f0xx_ll_usb.c ****         /* Configure RX Endpoint to disabled state */
 718:Drivers/STM32F0xx_HAL_Driver/Src/stm32f0xx_ll_usb.c ****         PCD_SET_EP_RX_STATUS(USBx, ep->num, USB_EP_RX_DIS);
 1979              		.loc 1 718 9 discriminator 7 view .LVU616
 719:Drivers/STM32F0xx_HAL_Driver/Src/stm32f0xx_ll_usb.c ****       }
 720:Drivers/STM32F0xx_HAL_Driver/Src/stm32f0xx_ll_usb.c ****     }
 721:Drivers/STM32F0xx_HAL_Driver/Src/stm32f0xx_ll_usb.c ****   }
 722:Drivers/STM32F0xx_HAL_Driver/Src/stm32f0xx_ll_usb.c **** 
 723:Drivers/STM32F0xx_HAL_Driver/Src/stm32f0xx_ll_usb.c ****   return HAL_OK;
 1980              		.loc 1 723 3 view .LVU617
 724:Drivers/STM32F0xx_HAL_Driver/Src/stm32f0xx_ll_usb.c **** }
 1981              		.loc 1 724 1 is_stmt 0 view .LVU618
 1982 002c 0020     		movs	r0, #0
 1983              		@ sp needed
 1984 002e 7047     		bx	lr
 1985              	.LVL210:
 1986              	.L91:
 692:Drivers/STM32F0xx_HAL_Driver/Src/stm32f0xx_ll_usb.c ****     {
 1987              		.loc 1 692 5 is_stmt 1 view .LVU619
 692:Drivers/STM32F0xx_HAL_Driver/Src/stm32f0xx_ll_usb.c ****     {
 1988              		.loc 1 692 11 is_stmt 0 view .LVU620
 1989 0030 0B7B     		ldrb	r3, [r1, #12]
 692:Drivers/STM32F0xx_HAL_Driver/Src/stm32f0xx_ll_usb.c ****     {
 1990              		.loc 1 692 8 view .LVU621
 1991 0032 002B     		cmp	r3, #0
 1992 0034 FAD1     		bne	.L88
ARM GAS  /tmp/cceQvfFh.s 			page 52


 694:Drivers/STM32F0xx_HAL_Driver/Src/stm32f0xx_ll_usb.c ****       {
 1993              		.loc 1 694 7 is_stmt 1 view .LVU622
 694:Drivers/STM32F0xx_HAL_Driver/Src/stm32f0xx_ll_usb.c ****       {
 1994              		.loc 1 694 13 is_stmt 0 view .LVU623
 1995 0036 CB78     		ldrb	r3, [r1, #3]
 694:Drivers/STM32F0xx_HAL_Driver/Src/stm32f0xx_ll_usb.c ****       {
 1996              		.loc 1 694 10 view .LVU624
 1997 0038 012B     		cmp	r3, #1
 1998 003a 0DD0     		beq	.L89
 697:Drivers/STM32F0xx_HAL_Driver/Src/stm32f0xx_ll_usb.c ****       }
 1999              		.loc 1 697 9 is_stmt 1 view .LVU625
 2000              	.LBB63:
 697:Drivers/STM32F0xx_HAL_Driver/Src/stm32f0xx_ll_usb.c ****       }
 2001              		.loc 1 697 9 view .LVU626
 697:Drivers/STM32F0xx_HAL_Driver/Src/stm32f0xx_ll_usb.c ****       }
 2002              		.loc 1 697 9 view .LVU627
 2003 003c 0A78     		ldrb	r2, [r1]
 2004 003e 9200     		lsls	r2, r2, #2
 2005 0040 8218     		adds	r2, r0, r2
 2006 0042 1388     		ldrh	r3, [r2]
 2007 0044 1149     		ldr	r1, .L92+8
 2008              	.LVL211:
 697:Drivers/STM32F0xx_HAL_Driver/Src/stm32f0xx_ll_usb.c ****       }
 2009              		.loc 1 697 9 is_stmt 0 view .LVU628
 2010 0046 0B40     		ands	r3, r1
 2011              	.LVL212:
 697:Drivers/STM32F0xx_HAL_Driver/Src/stm32f0xx_ll_usb.c ****       }
 2012              		.loc 1 697 9 is_stmt 1 view .LVU629
 697:Drivers/STM32F0xx_HAL_Driver/Src/stm32f0xx_ll_usb.c ****       }
 2013              		.loc 1 697 9 discriminator 3 view .LVU630
 697:Drivers/STM32F0xx_HAL_Driver/Src/stm32f0xx_ll_usb.c ****       }
 2014              		.loc 1 697 9 discriminator 4 view .LVU631
 2015 0048 2021     		movs	r1, #32
 2016 004a 4B40     		eors	r3, r1
 2017              	.LVL213:
 697:Drivers/STM32F0xx_HAL_Driver/Src/stm32f0xx_ll_usb.c ****       }
 2018              		.loc 1 697 9 is_stmt 0 discriminator 4 view .LVU632
 2019 004c 9BB2     		uxth	r3, r3
 2020              	.LVL214:
 697:Drivers/STM32F0xx_HAL_Driver/Src/stm32f0xx_ll_usb.c ****       }
 2021              		.loc 1 697 9 is_stmt 1 discriminator 6 view .LVU633
 2022 004e 0E49     		ldr	r1, .L92+4
 2023 0050 0B43     		orrs	r3, r1
 2024              	.LVL215:
 697:Drivers/STM32F0xx_HAL_Driver/Src/stm32f0xx_ll_usb.c ****       }
 2025              		.loc 1 697 9 is_stmt 0 discriminator 6 view .LVU634
 2026 0052 9BB2     		uxth	r3, r3
 2027 0054 1380     		strh	r3, [r2]
 2028              	.LBE63:
 697:Drivers/STM32F0xx_HAL_Driver/Src/stm32f0xx_ll_usb.c ****       }
 2029              		.loc 1 697 9 is_stmt 1 view .LVU635
 2030 0056 E9E7     		b	.L88
 2031              	.LVL216:
 2032              	.L89:
 702:Drivers/STM32F0xx_HAL_Driver/Src/stm32f0xx_ll_usb.c ****       }
 2033              		.loc 1 702 9 view .LVU636
 2034              	.LBB64:
ARM GAS  /tmp/cceQvfFh.s 			page 53


 702:Drivers/STM32F0xx_HAL_Driver/Src/stm32f0xx_ll_usb.c ****       }
 2035              		.loc 1 702 9 view .LVU637
 702:Drivers/STM32F0xx_HAL_Driver/Src/stm32f0xx_ll_usb.c ****       }
 2036              		.loc 1 702 9 view .LVU638
 2037 0058 0B78     		ldrb	r3, [r1]
 2038 005a 9B00     		lsls	r3, r3, #2
 2039 005c C318     		adds	r3, r0, r3
 2040 005e 1988     		ldrh	r1, [r3]
 2041              	.LVL217:
 702:Drivers/STM32F0xx_HAL_Driver/Src/stm32f0xx_ll_usb.c ****       }
 2042              		.loc 1 702 9 is_stmt 0 view .LVU639
 2043 0060 0A4A     		ldr	r2, .L92+8
 2044 0062 1140     		ands	r1, r2
 2045              	.LVL218:
 702:Drivers/STM32F0xx_HAL_Driver/Src/stm32f0xx_ll_usb.c ****       }
 2046              		.loc 1 702 9 is_stmt 1 view .LVU640
 702:Drivers/STM32F0xx_HAL_Driver/Src/stm32f0xx_ll_usb.c ****       }
 2047              		.loc 1 702 9 discriminator 3 view .LVU641
 702:Drivers/STM32F0xx_HAL_Driver/Src/stm32f0xx_ll_usb.c ****       }
 2048              		.loc 1 702 9 discriminator 6 view .LVU642
 2049 0064 084A     		ldr	r2, .L92+4
 2050 0066 0A43     		orrs	r2, r1
 2051 0068 92B2     		uxth	r2, r2
 2052 006a 1A80     		strh	r2, [r3]
 2053 006c DEE7     		b	.L88
 2054              	.LVL219:
 2055              	.L90:
 702:Drivers/STM32F0xx_HAL_Driver/Src/stm32f0xx_ll_usb.c ****       }
 2056              		.loc 1 702 9 is_stmt 0 discriminator 6 view .LVU643
 2057              	.LBE64:
 718:Drivers/STM32F0xx_HAL_Driver/Src/stm32f0xx_ll_usb.c ****       }
 2058              		.loc 1 718 9 is_stmt 1 view .LVU644
 2059              	.LBB65:
 718:Drivers/STM32F0xx_HAL_Driver/Src/stm32f0xx_ll_usb.c ****       }
 2060              		.loc 1 718 9 view .LVU645
 718:Drivers/STM32F0xx_HAL_Driver/Src/stm32f0xx_ll_usb.c ****       }
 2061              		.loc 1 718 9 view .LVU646
 2062 006e 0B78     		ldrb	r3, [r1]
 2063 0070 9B00     		lsls	r3, r3, #2
 2064 0072 C018     		adds	r0, r0, r3
 2065              	.LVL220:
 718:Drivers/STM32F0xx_HAL_Driver/Src/stm32f0xx_ll_usb.c ****       }
 2066              		.loc 1 718 9 is_stmt 0 view .LVU647
 2067 0074 0288     		ldrh	r2, [r0]
 2068 0076 034B     		ldr	r3, .L92
 2069 0078 1A40     		ands	r2, r3
 2070              	.LVL221:
 718:Drivers/STM32F0xx_HAL_Driver/Src/stm32f0xx_ll_usb.c ****       }
 2071              		.loc 1 718 9 is_stmt 1 view .LVU648
 718:Drivers/STM32F0xx_HAL_Driver/Src/stm32f0xx_ll_usb.c ****       }
 2072              		.loc 1 718 9 discriminator 3 view .LVU649
 718:Drivers/STM32F0xx_HAL_Driver/Src/stm32f0xx_ll_usb.c ****       }
 2073              		.loc 1 718 9 discriminator 6 view .LVU650
 2074 007a 034B     		ldr	r3, .L92+4
 2075 007c 1343     		orrs	r3, r2
 2076 007e 9BB2     		uxth	r3, r3
 2077 0080 0380     		strh	r3, [r0]
ARM GAS  /tmp/cceQvfFh.s 			page 54


 2078 0082 D3E7     		b	.L88
 2079              	.L93:
 2080              		.align	2
 2081              	.L92:
 2082 0084 8FBFFFFF 		.word	-16497
 2083 0088 8080FFFF 		.word	-32640
 2084 008c BF8FFFFF 		.word	-28737
 2085              	.LBE65:
 2086              		.cfi_endproc
 2087              	.LFE52:
 2089              		.section	.text.USB_StopDevice,"ax",%progbits
 2090              		.align	1
 2091              		.global	USB_StopDevice
 2092              		.syntax unified
 2093              		.code	16
 2094              		.thumb_func
 2096              	USB_StopDevice:
 2097              	.LVL222:
 2098              	.LFB53:
 725:Drivers/STM32F0xx_HAL_Driver/Src/stm32f0xx_ll_usb.c **** #endif /* defined (HAL_PCD_MODULE_ENABLED) */
 726:Drivers/STM32F0xx_HAL_Driver/Src/stm32f0xx_ll_usb.c **** 
 727:Drivers/STM32F0xx_HAL_Driver/Src/stm32f0xx_ll_usb.c **** /**
 728:Drivers/STM32F0xx_HAL_Driver/Src/stm32f0xx_ll_usb.c ****   * @brief  USB_StopDevice Stop the usb device mode
 729:Drivers/STM32F0xx_HAL_Driver/Src/stm32f0xx_ll_usb.c ****   * @param  USBx Selected device
 730:Drivers/STM32F0xx_HAL_Driver/Src/stm32f0xx_ll_usb.c ****   * @retval HAL status
 731:Drivers/STM32F0xx_HAL_Driver/Src/stm32f0xx_ll_usb.c ****   */
 732:Drivers/STM32F0xx_HAL_Driver/Src/stm32f0xx_ll_usb.c **** HAL_StatusTypeDef USB_StopDevice(USB_TypeDef *USBx)
 733:Drivers/STM32F0xx_HAL_Driver/Src/stm32f0xx_ll_usb.c **** {
 2099              		.loc 1 733 1 view -0
 2100              		.cfi_startproc
 2101              		@ args = 0, pretend = 0, frame = 0
 2102              		@ frame_needed = 0, uses_anonymous_args = 0
 2103              		@ link register save eliminated.
 734:Drivers/STM32F0xx_HAL_Driver/Src/stm32f0xx_ll_usb.c ****   /* disable all interrupts and force USB reset */
 735:Drivers/STM32F0xx_HAL_Driver/Src/stm32f0xx_ll_usb.c ****   USBx->CNTR = (uint16_t)USB_CNTR_FRES;
 2104              		.loc 1 735 3 view .LVU652
 2105              		.loc 1 735 14 is_stmt 0 view .LVU653
 2106 0000 4023     		movs	r3, #64
 2107 0002 0122     		movs	r2, #1
 2108 0004 C252     		strh	r2, [r0, r3]
 736:Drivers/STM32F0xx_HAL_Driver/Src/stm32f0xx_ll_usb.c **** 
 737:Drivers/STM32F0xx_HAL_Driver/Src/stm32f0xx_ll_usb.c ****   /* clear interrupt status register */
 738:Drivers/STM32F0xx_HAL_Driver/Src/stm32f0xx_ll_usb.c ****   USBx->ISTR = 0U;
 2109              		.loc 1 738 3 is_stmt 1 view .LVU654
 2110              		.loc 1 738 14 is_stmt 0 view .LVU655
 2111 0006 4332     		adds	r2, r2, #67
 2112 0008 0021     		movs	r1, #0
 2113 000a 8152     		strh	r1, [r0, r2]
 739:Drivers/STM32F0xx_HAL_Driver/Src/stm32f0xx_ll_usb.c **** 
 740:Drivers/STM32F0xx_HAL_Driver/Src/stm32f0xx_ll_usb.c ****   /* switch-off device */
 741:Drivers/STM32F0xx_HAL_Driver/Src/stm32f0xx_ll_usb.c ****   USBx->CNTR = (uint16_t)(USB_CNTR_FRES | USB_CNTR_PDWN);
 2114              		.loc 1 741 3 is_stmt 1 view .LVU656
 2115              		.loc 1 741 14 is_stmt 0 view .LVU657
 2116 000c 413A     		subs	r2, r2, #65
 2117 000e C252     		strh	r2, [r0, r3]
 742:Drivers/STM32F0xx_HAL_Driver/Src/stm32f0xx_ll_usb.c **** 
 743:Drivers/STM32F0xx_HAL_Driver/Src/stm32f0xx_ll_usb.c ****   return HAL_OK;
ARM GAS  /tmp/cceQvfFh.s 			page 55


 2118              		.loc 1 743 3 is_stmt 1 view .LVU658
 744:Drivers/STM32F0xx_HAL_Driver/Src/stm32f0xx_ll_usb.c **** }
 2119              		.loc 1 744 1 is_stmt 0 view .LVU659
 2120 0010 0020     		movs	r0, #0
 2121              	.LVL223:
 2122              		.loc 1 744 1 view .LVU660
 2123              		@ sp needed
 2124 0012 7047     		bx	lr
 2125              		.cfi_endproc
 2126              	.LFE53:
 2128              		.section	.text.USB_SetDevAddress,"ax",%progbits
 2129              		.align	1
 2130              		.global	USB_SetDevAddress
 2131              		.syntax unified
 2132              		.code	16
 2133              		.thumb_func
 2135              	USB_SetDevAddress:
 2136              	.LVL224:
 2137              	.LFB54:
 745:Drivers/STM32F0xx_HAL_Driver/Src/stm32f0xx_ll_usb.c **** 
 746:Drivers/STM32F0xx_HAL_Driver/Src/stm32f0xx_ll_usb.c **** /**
 747:Drivers/STM32F0xx_HAL_Driver/Src/stm32f0xx_ll_usb.c ****   * @brief  USB_SetDevAddress Stop the usb device mode
 748:Drivers/STM32F0xx_HAL_Driver/Src/stm32f0xx_ll_usb.c ****   * @param  USBx Selected device
 749:Drivers/STM32F0xx_HAL_Driver/Src/stm32f0xx_ll_usb.c ****   * @param  address new device address to be assigned
 750:Drivers/STM32F0xx_HAL_Driver/Src/stm32f0xx_ll_usb.c ****   *          This parameter can be a value from 0 to 255
 751:Drivers/STM32F0xx_HAL_Driver/Src/stm32f0xx_ll_usb.c ****   * @retval HAL status
 752:Drivers/STM32F0xx_HAL_Driver/Src/stm32f0xx_ll_usb.c ****   */
 753:Drivers/STM32F0xx_HAL_Driver/Src/stm32f0xx_ll_usb.c **** HAL_StatusTypeDef  USB_SetDevAddress(USB_TypeDef *USBx, uint8_t address)
 754:Drivers/STM32F0xx_HAL_Driver/Src/stm32f0xx_ll_usb.c **** {
 2138              		.loc 1 754 1 is_stmt 1 view -0
 2139              		.cfi_startproc
 2140              		@ args = 0, pretend = 0, frame = 0
 2141              		@ frame_needed = 0, uses_anonymous_args = 0
 2142              		@ link register save eliminated.
 755:Drivers/STM32F0xx_HAL_Driver/Src/stm32f0xx_ll_usb.c ****   if (address == 0U)
 2143              		.loc 1 755 3 view .LVU662
 2144              		.loc 1 755 6 is_stmt 0 view .LVU663
 2145 0000 0029     		cmp	r1, #0
 2146 0002 02D1     		bne	.L96
 756:Drivers/STM32F0xx_HAL_Driver/Src/stm32f0xx_ll_usb.c ****   {
 757:Drivers/STM32F0xx_HAL_Driver/Src/stm32f0xx_ll_usb.c ****     /* set device address and enable function */
 758:Drivers/STM32F0xx_HAL_Driver/Src/stm32f0xx_ll_usb.c ****     USBx->DADDR = (uint16_t)USB_DADDR_EF;
 2147              		.loc 1 758 5 is_stmt 1 view .LVU664
 2148              		.loc 1 758 17 is_stmt 0 view .LVU665
 2149 0004 4C23     		movs	r3, #76
 2150 0006 8022     		movs	r2, #128
 2151 0008 C252     		strh	r2, [r0, r3]
 2152              	.L96:
 759:Drivers/STM32F0xx_HAL_Driver/Src/stm32f0xx_ll_usb.c ****   }
 760:Drivers/STM32F0xx_HAL_Driver/Src/stm32f0xx_ll_usb.c **** 
 761:Drivers/STM32F0xx_HAL_Driver/Src/stm32f0xx_ll_usb.c ****   return HAL_OK;
 2153              		.loc 1 761 3 is_stmt 1 view .LVU666
 762:Drivers/STM32F0xx_HAL_Driver/Src/stm32f0xx_ll_usb.c **** }
 2154              		.loc 1 762 1 is_stmt 0 view .LVU667
 2155 000a 0020     		movs	r0, #0
 2156              	.LVL225:
 2157              		.loc 1 762 1 view .LVU668
ARM GAS  /tmp/cceQvfFh.s 			page 56


 2158              		@ sp needed
 2159 000c 7047     		bx	lr
 2160              		.cfi_endproc
 2161              	.LFE54:
 2163              		.section	.text.USB_DevConnect,"ax",%progbits
 2164              		.align	1
 2165              		.global	USB_DevConnect
 2166              		.syntax unified
 2167              		.code	16
 2168              		.thumb_func
 2170              	USB_DevConnect:
 2171              	.LVL226:
 2172              	.LFB55:
 763:Drivers/STM32F0xx_HAL_Driver/Src/stm32f0xx_ll_usb.c **** 
 764:Drivers/STM32F0xx_HAL_Driver/Src/stm32f0xx_ll_usb.c **** /**
 765:Drivers/STM32F0xx_HAL_Driver/Src/stm32f0xx_ll_usb.c ****   * @brief  USB_DevConnect Connect the USB device by enabling the pull-up/pull-down
 766:Drivers/STM32F0xx_HAL_Driver/Src/stm32f0xx_ll_usb.c ****   * @param  USBx Selected device
 767:Drivers/STM32F0xx_HAL_Driver/Src/stm32f0xx_ll_usb.c ****   * @retval HAL status
 768:Drivers/STM32F0xx_HAL_Driver/Src/stm32f0xx_ll_usb.c ****   */
 769:Drivers/STM32F0xx_HAL_Driver/Src/stm32f0xx_ll_usb.c **** HAL_StatusTypeDef  USB_DevConnect(USB_TypeDef *USBx)
 770:Drivers/STM32F0xx_HAL_Driver/Src/stm32f0xx_ll_usb.c **** {
 2173              		.loc 1 770 1 is_stmt 1 view -0
 2174              		.cfi_startproc
 2175              		@ args = 0, pretend = 0, frame = 0
 2176              		@ frame_needed = 0, uses_anonymous_args = 0
 2177              		@ link register save eliminated.
 771:Drivers/STM32F0xx_HAL_Driver/Src/stm32f0xx_ll_usb.c ****   /* Enabling DP Pull-UP bit to Connect internal PU resistor on USB DP line */
 772:Drivers/STM32F0xx_HAL_Driver/Src/stm32f0xx_ll_usb.c ****   USBx->BCDR |= (uint16_t)USB_BCDR_DPPU;
 2178              		.loc 1 772 3 view .LVU670
 2179              		.loc 1 772 7 is_stmt 0 view .LVU671
 2180 0000 5822     		movs	r2, #88
 2181 0002 835A     		ldrh	r3, [r0, r2]
 2182              		.loc 1 772 14 view .LVU672
 2183 0004 0249     		ldr	r1, .L98
 2184 0006 0B43     		orrs	r3, r1
 2185 0008 9BB2     		uxth	r3, r3
 2186 000a 8352     		strh	r3, [r0, r2]
 773:Drivers/STM32F0xx_HAL_Driver/Src/stm32f0xx_ll_usb.c **** 
 774:Drivers/STM32F0xx_HAL_Driver/Src/stm32f0xx_ll_usb.c ****   return HAL_OK;
 2187              		.loc 1 774 3 is_stmt 1 view .LVU673
 775:Drivers/STM32F0xx_HAL_Driver/Src/stm32f0xx_ll_usb.c **** }
 2188              		.loc 1 775 1 is_stmt 0 view .LVU674
 2189 000c 0020     		movs	r0, #0
 2190              	.LVL227:
 2191              		.loc 1 775 1 view .LVU675
 2192              		@ sp needed
 2193 000e 7047     		bx	lr
 2194              	.L99:
 2195              		.align	2
 2196              	.L98:
 2197 0010 0080FFFF 		.word	-32768
 2198              		.cfi_endproc
 2199              	.LFE55:
 2201              		.section	.text.USB_DevDisconnect,"ax",%progbits
 2202              		.align	1
 2203              		.global	USB_DevDisconnect
 2204              		.syntax unified
ARM GAS  /tmp/cceQvfFh.s 			page 57


 2205              		.code	16
 2206              		.thumb_func
 2208              	USB_DevDisconnect:
 2209              	.LVL228:
 2210              	.LFB56:
 776:Drivers/STM32F0xx_HAL_Driver/Src/stm32f0xx_ll_usb.c **** 
 777:Drivers/STM32F0xx_HAL_Driver/Src/stm32f0xx_ll_usb.c **** /**
 778:Drivers/STM32F0xx_HAL_Driver/Src/stm32f0xx_ll_usb.c ****   * @brief  USB_DevDisconnect Disconnect the USB device by disabling the pull-up/pull-down
 779:Drivers/STM32F0xx_HAL_Driver/Src/stm32f0xx_ll_usb.c ****   * @param  USBx Selected device
 780:Drivers/STM32F0xx_HAL_Driver/Src/stm32f0xx_ll_usb.c ****   * @retval HAL status
 781:Drivers/STM32F0xx_HAL_Driver/Src/stm32f0xx_ll_usb.c ****   */
 782:Drivers/STM32F0xx_HAL_Driver/Src/stm32f0xx_ll_usb.c **** HAL_StatusTypeDef  USB_DevDisconnect(USB_TypeDef *USBx)
 783:Drivers/STM32F0xx_HAL_Driver/Src/stm32f0xx_ll_usb.c **** {
 2211              		.loc 1 783 1 is_stmt 1 view -0
 2212              		.cfi_startproc
 2213              		@ args = 0, pretend = 0, frame = 0
 2214              		@ frame_needed = 0, uses_anonymous_args = 0
 2215              		@ link register save eliminated.
 784:Drivers/STM32F0xx_HAL_Driver/Src/stm32f0xx_ll_usb.c ****   /* Disable DP Pull-Up bit to disconnect the Internal PU resistor on USB DP line */
 785:Drivers/STM32F0xx_HAL_Driver/Src/stm32f0xx_ll_usb.c ****   USBx->BCDR &= (uint16_t)(~(USB_BCDR_DPPU));
 2216              		.loc 1 785 3 view .LVU677
 2217              		.loc 1 785 7 is_stmt 0 view .LVU678
 2218 0000 5822     		movs	r2, #88
 2219 0002 835A     		ldrh	r3, [r0, r2]
 2220              		.loc 1 785 14 view .LVU679
 2221 0004 5B04     		lsls	r3, r3, #17
 2222 0006 5B0C     		lsrs	r3, r3, #17
 2223 0008 8352     		strh	r3, [r0, r2]
 786:Drivers/STM32F0xx_HAL_Driver/Src/stm32f0xx_ll_usb.c **** 
 787:Drivers/STM32F0xx_HAL_Driver/Src/stm32f0xx_ll_usb.c ****   return HAL_OK;
 2224              		.loc 1 787 3 is_stmt 1 view .LVU680
 788:Drivers/STM32F0xx_HAL_Driver/Src/stm32f0xx_ll_usb.c **** }
 2225              		.loc 1 788 1 is_stmt 0 view .LVU681
 2226 000a 0020     		movs	r0, #0
 2227              	.LVL229:
 2228              		.loc 1 788 1 view .LVU682
 2229              		@ sp needed
 2230 000c 7047     		bx	lr
 2231              		.cfi_endproc
 2232              	.LFE56:
 2234              		.section	.text.USB_ReadInterrupts,"ax",%progbits
 2235              		.align	1
 2236              		.global	USB_ReadInterrupts
 2237              		.syntax unified
 2238              		.code	16
 2239              		.thumb_func
 2241              	USB_ReadInterrupts:
 2242              	.LVL230:
 2243              	.LFB57:
 789:Drivers/STM32F0xx_HAL_Driver/Src/stm32f0xx_ll_usb.c **** 
 790:Drivers/STM32F0xx_HAL_Driver/Src/stm32f0xx_ll_usb.c **** /**
 791:Drivers/STM32F0xx_HAL_Driver/Src/stm32f0xx_ll_usb.c ****   * @brief  USB_ReadInterrupts return the global USB interrupt status
 792:Drivers/STM32F0xx_HAL_Driver/Src/stm32f0xx_ll_usb.c ****   * @param  USBx Selected device
 793:Drivers/STM32F0xx_HAL_Driver/Src/stm32f0xx_ll_usb.c ****   * @retval USB Global Interrupt status
 794:Drivers/STM32F0xx_HAL_Driver/Src/stm32f0xx_ll_usb.c ****   */
 795:Drivers/STM32F0xx_HAL_Driver/Src/stm32f0xx_ll_usb.c **** uint32_t USB_ReadInterrupts(USB_TypeDef const *USBx)
 796:Drivers/STM32F0xx_HAL_Driver/Src/stm32f0xx_ll_usb.c **** {
ARM GAS  /tmp/cceQvfFh.s 			page 58


 2244              		.loc 1 796 1 is_stmt 1 view -0
 2245              		.cfi_startproc
 2246              		@ args = 0, pretend = 0, frame = 0
 2247              		@ frame_needed = 0, uses_anonymous_args = 0
 2248              		@ link register save eliminated.
 797:Drivers/STM32F0xx_HAL_Driver/Src/stm32f0xx_ll_usb.c ****   uint32_t tmpreg;
 2249              		.loc 1 797 3 view .LVU684
 798:Drivers/STM32F0xx_HAL_Driver/Src/stm32f0xx_ll_usb.c **** 
 799:Drivers/STM32F0xx_HAL_Driver/Src/stm32f0xx_ll_usb.c ****   tmpreg = USBx->ISTR;
 2250              		.loc 1 799 3 view .LVU685
 2251              		.loc 1 799 16 is_stmt 0 view .LVU686
 2252 0000 4423     		movs	r3, #68
 2253 0002 C05A     		ldrh	r0, [r0, r3]
 2254              	.LVL231:
 2255              		.loc 1 799 16 view .LVU687
 2256 0004 80B2     		uxth	r0, r0
 2257              	.LVL232:
 800:Drivers/STM32F0xx_HAL_Driver/Src/stm32f0xx_ll_usb.c ****   return tmpreg;
 2258              		.loc 1 800 3 is_stmt 1 view .LVU688
 801:Drivers/STM32F0xx_HAL_Driver/Src/stm32f0xx_ll_usb.c **** }
 2259              		.loc 1 801 1 is_stmt 0 view .LVU689
 2260              		@ sp needed
 2261 0006 7047     		bx	lr
 2262              		.cfi_endproc
 2263              	.LFE57:
 2265              		.section	.text.USB_ActivateRemoteWakeup,"ax",%progbits
 2266              		.align	1
 2267              		.global	USB_ActivateRemoteWakeup
 2268              		.syntax unified
 2269              		.code	16
 2270              		.thumb_func
 2272              	USB_ActivateRemoteWakeup:
 2273              	.LVL233:
 2274              	.LFB58:
 802:Drivers/STM32F0xx_HAL_Driver/Src/stm32f0xx_ll_usb.c **** 
 803:Drivers/STM32F0xx_HAL_Driver/Src/stm32f0xx_ll_usb.c **** /**
 804:Drivers/STM32F0xx_HAL_Driver/Src/stm32f0xx_ll_usb.c ****   * @brief  USB_ActivateRemoteWakeup : active remote wakeup signalling
 805:Drivers/STM32F0xx_HAL_Driver/Src/stm32f0xx_ll_usb.c ****   * @param  USBx Selected device
 806:Drivers/STM32F0xx_HAL_Driver/Src/stm32f0xx_ll_usb.c ****   * @retval HAL status
 807:Drivers/STM32F0xx_HAL_Driver/Src/stm32f0xx_ll_usb.c ****   */
 808:Drivers/STM32F0xx_HAL_Driver/Src/stm32f0xx_ll_usb.c **** HAL_StatusTypeDef USB_ActivateRemoteWakeup(USB_TypeDef *USBx)
 809:Drivers/STM32F0xx_HAL_Driver/Src/stm32f0xx_ll_usb.c **** {
 2275              		.loc 1 809 1 is_stmt 1 view -0
 2276              		.cfi_startproc
 2277              		@ args = 0, pretend = 0, frame = 0
 2278              		@ frame_needed = 0, uses_anonymous_args = 0
 2279              		@ link register save eliminated.
 810:Drivers/STM32F0xx_HAL_Driver/Src/stm32f0xx_ll_usb.c ****   USBx->CNTR |= (uint16_t)USB_CNTR_RESUME;
 2280              		.loc 1 810 3 view .LVU691
 2281              		.loc 1 810 7 is_stmt 0 view .LVU692
 2282 0000 4022     		movs	r2, #64
 2283 0002 835A     		ldrh	r3, [r0, r2]
 2284              		.loc 1 810 14 view .LVU693
 2285 0004 1021     		movs	r1, #16
 2286 0006 0B43     		orrs	r3, r1
 2287 0008 9BB2     		uxth	r3, r3
 2288 000a 8352     		strh	r3, [r0, r2]
ARM GAS  /tmp/cceQvfFh.s 			page 59


 811:Drivers/STM32F0xx_HAL_Driver/Src/stm32f0xx_ll_usb.c **** 
 812:Drivers/STM32F0xx_HAL_Driver/Src/stm32f0xx_ll_usb.c ****   return HAL_OK;
 2289              		.loc 1 812 3 is_stmt 1 view .LVU694
 813:Drivers/STM32F0xx_HAL_Driver/Src/stm32f0xx_ll_usb.c **** }
 2290              		.loc 1 813 1 is_stmt 0 view .LVU695
 2291 000c 0020     		movs	r0, #0
 2292              	.LVL234:
 2293              		.loc 1 813 1 view .LVU696
 2294              		@ sp needed
 2295 000e 7047     		bx	lr
 2296              		.cfi_endproc
 2297              	.LFE58:
 2299              		.section	.text.USB_DeActivateRemoteWakeup,"ax",%progbits
 2300              		.align	1
 2301              		.global	USB_DeActivateRemoteWakeup
 2302              		.syntax unified
 2303              		.code	16
 2304              		.thumb_func
 2306              	USB_DeActivateRemoteWakeup:
 2307              	.LVL235:
 2308              	.LFB59:
 814:Drivers/STM32F0xx_HAL_Driver/Src/stm32f0xx_ll_usb.c **** 
 815:Drivers/STM32F0xx_HAL_Driver/Src/stm32f0xx_ll_usb.c **** /**
 816:Drivers/STM32F0xx_HAL_Driver/Src/stm32f0xx_ll_usb.c ****   * @brief  USB_DeActivateRemoteWakeup de-active remote wakeup signalling
 817:Drivers/STM32F0xx_HAL_Driver/Src/stm32f0xx_ll_usb.c ****   * @param  USBx Selected device
 818:Drivers/STM32F0xx_HAL_Driver/Src/stm32f0xx_ll_usb.c ****   * @retval HAL status
 819:Drivers/STM32F0xx_HAL_Driver/Src/stm32f0xx_ll_usb.c ****   */
 820:Drivers/STM32F0xx_HAL_Driver/Src/stm32f0xx_ll_usb.c **** HAL_StatusTypeDef USB_DeActivateRemoteWakeup(USB_TypeDef *USBx)
 821:Drivers/STM32F0xx_HAL_Driver/Src/stm32f0xx_ll_usb.c **** {
 2309              		.loc 1 821 1 is_stmt 1 view -0
 2310              		.cfi_startproc
 2311              		@ args = 0, pretend = 0, frame = 0
 2312              		@ frame_needed = 0, uses_anonymous_args = 0
 2313              		@ link register save eliminated.
 822:Drivers/STM32F0xx_HAL_Driver/Src/stm32f0xx_ll_usb.c ****   USBx->CNTR &= (uint16_t)(~USB_CNTR_RESUME);
 2314              		.loc 1 822 3 view .LVU698
 2315              		.loc 1 822 7 is_stmt 0 view .LVU699
 2316 0000 4022     		movs	r2, #64
 2317 0002 835A     		ldrh	r3, [r0, r2]
 2318              		.loc 1 822 14 view .LVU700
 2319 0004 1021     		movs	r1, #16
 2320 0006 8B43     		bics	r3, r1
 2321 0008 8352     		strh	r3, [r0, r2]
 823:Drivers/STM32F0xx_HAL_Driver/Src/stm32f0xx_ll_usb.c **** 
 824:Drivers/STM32F0xx_HAL_Driver/Src/stm32f0xx_ll_usb.c ****   return HAL_OK;
 2322              		.loc 1 824 3 is_stmt 1 view .LVU701
 825:Drivers/STM32F0xx_HAL_Driver/Src/stm32f0xx_ll_usb.c **** }
 2323              		.loc 1 825 1 is_stmt 0 view .LVU702
 2324 000a 0020     		movs	r0, #0
 2325              	.LVL236:
 2326              		.loc 1 825 1 view .LVU703
 2327              		@ sp needed
 2328 000c 7047     		bx	lr
 2329              		.cfi_endproc
 2330              	.LFE59:
 2332              		.section	.text.USB_WritePMA,"ax",%progbits
 2333              		.align	1
ARM GAS  /tmp/cceQvfFh.s 			page 60


 2334              		.global	USB_WritePMA
 2335              		.syntax unified
 2336              		.code	16
 2337              		.thumb_func
 2339              	USB_WritePMA:
 2340              	.LVL237:
 2341              	.LFB60:
 826:Drivers/STM32F0xx_HAL_Driver/Src/stm32f0xx_ll_usb.c **** 
 827:Drivers/STM32F0xx_HAL_Driver/Src/stm32f0xx_ll_usb.c **** /**
 828:Drivers/STM32F0xx_HAL_Driver/Src/stm32f0xx_ll_usb.c ****   * @brief Copy a buffer from user memory area to packet memory area (PMA)
 829:Drivers/STM32F0xx_HAL_Driver/Src/stm32f0xx_ll_usb.c ****   * @param   USBx USB peripheral instance register address.
 830:Drivers/STM32F0xx_HAL_Driver/Src/stm32f0xx_ll_usb.c ****   * @param   pbUsrBuf pointer to user memory area.
 831:Drivers/STM32F0xx_HAL_Driver/Src/stm32f0xx_ll_usb.c ****   * @param   wPMABufAddr address into PMA.
 832:Drivers/STM32F0xx_HAL_Driver/Src/stm32f0xx_ll_usb.c ****   * @param   wNBytes no. of bytes to be copied.
 833:Drivers/STM32F0xx_HAL_Driver/Src/stm32f0xx_ll_usb.c ****   * @retval None
 834:Drivers/STM32F0xx_HAL_Driver/Src/stm32f0xx_ll_usb.c ****   */
 835:Drivers/STM32F0xx_HAL_Driver/Src/stm32f0xx_ll_usb.c **** void USB_WritePMA(USB_TypeDef const *USBx, uint8_t *pbUsrBuf, uint16_t wPMABufAddr, uint16_t wNByte
 836:Drivers/STM32F0xx_HAL_Driver/Src/stm32f0xx_ll_usb.c **** {
 2342              		.loc 1 836 1 is_stmt 1 view -0
 2343              		.cfi_startproc
 2344              		@ args = 0, pretend = 0, frame = 0
 2345              		@ frame_needed = 0, uses_anonymous_args = 0
 2346              		.loc 1 836 1 is_stmt 0 view .LVU705
 2347 0000 10B5     		push	{r4, lr}
 2348              		.cfi_def_cfa_offset 8
 2349              		.cfi_offset 4, -8
 2350              		.cfi_offset 14, -4
 837:Drivers/STM32F0xx_HAL_Driver/Src/stm32f0xx_ll_usb.c ****   uint32_t n = ((uint32_t)wNBytes + 1U) >> 1;
 2351              		.loc 1 837 3 is_stmt 1 view .LVU706
 2352              		.loc 1 837 35 is_stmt 0 view .LVU707
 2353 0002 0133     		adds	r3, r3, #1
 2354              	.LVL238:
 2355              		.loc 1 837 12 view .LVU708
 2356 0004 5B08     		lsrs	r3, r3, #1
 2357              	.LVL239:
 838:Drivers/STM32F0xx_HAL_Driver/Src/stm32f0xx_ll_usb.c ****   uint32_t BaseAddr = (uint32_t)USBx;
 2358              		.loc 1 838 3 is_stmt 1 view .LVU709
 839:Drivers/STM32F0xx_HAL_Driver/Src/stm32f0xx_ll_usb.c ****   uint32_t count;
 2359              		.loc 1 839 3 view .LVU710
 840:Drivers/STM32F0xx_HAL_Driver/Src/stm32f0xx_ll_usb.c ****   uint16_t WrVal;
 2360              		.loc 1 840 3 view .LVU711
 841:Drivers/STM32F0xx_HAL_Driver/Src/stm32f0xx_ll_usb.c ****   __IO uint16_t *pdwVal;
 2361              		.loc 1 841 3 view .LVU712
 842:Drivers/STM32F0xx_HAL_Driver/Src/stm32f0xx_ll_usb.c ****   uint8_t *pBuf = pbUsrBuf;
 2362              		.loc 1 842 3 view .LVU713
 843:Drivers/STM32F0xx_HAL_Driver/Src/stm32f0xx_ll_usb.c **** 
 844:Drivers/STM32F0xx_HAL_Driver/Src/stm32f0xx_ll_usb.c ****   pdwVal = (__IO uint16_t *)(BaseAddr + 0x400U + ((uint32_t)wPMABufAddr * PMA_ACCESS));
 2363              		.loc 1 844 3 view .LVU714
 2364              		.loc 1 844 48 is_stmt 0 view .LVU715
 2365 0006 1218     		adds	r2, r2, r0
 2366              	.LVL240:
 2367              		.loc 1 844 48 view .LVU716
 2368 0008 8020     		movs	r0, #128
 2369              	.LVL241:
 2370              		.loc 1 844 48 view .LVU717
 2371 000a C000     		lsls	r0, r0, #3
 2372 000c 8446     		mov	ip, r0
ARM GAS  /tmp/cceQvfFh.s 			page 61


 2373 000e 6244     		add	r2, r2, ip
 2374              	.LVL242:
 845:Drivers/STM32F0xx_HAL_Driver/Src/stm32f0xx_ll_usb.c **** 
 846:Drivers/STM32F0xx_HAL_Driver/Src/stm32f0xx_ll_usb.c ****   for (count = n; count != 0U; count--)
 2375              		.loc 1 846 3 is_stmt 1 view .LVU718
 2376              		.loc 1 846 3 is_stmt 0 view .LVU719
 2377 0010 07E0     		b	.L105
 2378              	.LVL243:
 2379              	.L106:
 847:Drivers/STM32F0xx_HAL_Driver/Src/stm32f0xx_ll_usb.c ****   {
 848:Drivers/STM32F0xx_HAL_Driver/Src/stm32f0xx_ll_usb.c ****     WrVal = pBuf[0];
 2380              		.loc 1 848 5 is_stmt 1 view .LVU720
 2381              		.loc 1 848 17 is_stmt 0 view .LVU721
 2382 0012 0C78     		ldrb	r4, [r1]
 2383              	.LVL244:
 849:Drivers/STM32F0xx_HAL_Driver/Src/stm32f0xx_ll_usb.c ****     WrVal |= (uint16_t)pBuf[1] << 8;
 2384              		.loc 1 849 5 is_stmt 1 view .LVU722
 2385              		.loc 1 849 28 is_stmt 0 view .LVU723
 2386 0014 4878     		ldrb	r0, [r1, #1]
 2387              		.loc 1 849 11 view .LVU724
 2388 0016 0002     		lsls	r0, r0, #8
 2389 0018 2043     		orrs	r0, r4
 2390              	.LVL245:
 850:Drivers/STM32F0xx_HAL_Driver/Src/stm32f0xx_ll_usb.c ****     *pdwVal = (WrVal & 0xFFFFU);
 2391              		.loc 1 850 5 is_stmt 1 view .LVU725
 2392              		.loc 1 850 13 is_stmt 0 view .LVU726
 2393 001a 1080     		strh	r0, [r2]
 851:Drivers/STM32F0xx_HAL_Driver/Src/stm32f0xx_ll_usb.c ****     pdwVal++;
 2394              		.loc 1 851 5 is_stmt 1 view .LVU727
 2395              		.loc 1 851 11 is_stmt 0 view .LVU728
 2396 001c 0232     		adds	r2, r2, #2
 2397              	.LVL246:
 852:Drivers/STM32F0xx_HAL_Driver/Src/stm32f0xx_ll_usb.c **** 
 853:Drivers/STM32F0xx_HAL_Driver/Src/stm32f0xx_ll_usb.c **** #if PMA_ACCESS > 1U
 854:Drivers/STM32F0xx_HAL_Driver/Src/stm32f0xx_ll_usb.c ****     pdwVal++;
 855:Drivers/STM32F0xx_HAL_Driver/Src/stm32f0xx_ll_usb.c **** #endif /* PMA_ACCESS */
 856:Drivers/STM32F0xx_HAL_Driver/Src/stm32f0xx_ll_usb.c **** 
 857:Drivers/STM32F0xx_HAL_Driver/Src/stm32f0xx_ll_usb.c ****     pBuf++;
 2398              		.loc 1 857 5 is_stmt 1 view .LVU729
 858:Drivers/STM32F0xx_HAL_Driver/Src/stm32f0xx_ll_usb.c ****     pBuf++;
 2399              		.loc 1 858 5 view .LVU730
 2400              		.loc 1 858 9 is_stmt 0 view .LVU731
 2401 001e 0231     		adds	r1, r1, #2
 2402              	.LVL247:
 846:Drivers/STM32F0xx_HAL_Driver/Src/stm32f0xx_ll_usb.c ****   {
 2403              		.loc 1 846 37 is_stmt 1 discriminator 3 view .LVU732
 2404 0020 013B     		subs	r3, r3, #1
 2405              	.LVL248:
 2406              	.L105:
 846:Drivers/STM32F0xx_HAL_Driver/Src/stm32f0xx_ll_usb.c ****   {
 2407              		.loc 1 846 25 discriminator 1 view .LVU733
 2408 0022 002B     		cmp	r3, #0
 2409 0024 F5D1     		bne	.L106
 859:Drivers/STM32F0xx_HAL_Driver/Src/stm32f0xx_ll_usb.c ****   }
 860:Drivers/STM32F0xx_HAL_Driver/Src/stm32f0xx_ll_usb.c **** }
 2410              		.loc 1 860 1 is_stmt 0 view .LVU734
 2411              		@ sp needed
ARM GAS  /tmp/cceQvfFh.s 			page 62


 2412 0026 10BD     		pop	{r4, pc}
 2413              		.cfi_endproc
 2414              	.LFE60:
 2416              		.section	.text.USB_EPStartXfer,"ax",%progbits
 2417              		.align	1
 2418              		.global	USB_EPStartXfer
 2419              		.syntax unified
 2420              		.code	16
 2421              		.thumb_func
 2423              	USB_EPStartXfer:
 2424              	.LVL249:
 2425              	.LFB49:
 416:Drivers/STM32F0xx_HAL_Driver/Src/stm32f0xx_ll_usb.c ****   uint32_t len;
 2426              		.loc 1 416 1 is_stmt 1 view -0
 2427              		.cfi_startproc
 2428              		@ args = 0, pretend = 0, frame = 0
 2429              		@ frame_needed = 0, uses_anonymous_args = 0
 416:Drivers/STM32F0xx_HAL_Driver/Src/stm32f0xx_ll_usb.c ****   uint32_t len;
 2430              		.loc 1 416 1 is_stmt 0 view .LVU736
 2431 0000 70B5     		push	{r4, r5, r6, lr}
 2432              		.cfi_def_cfa_offset 16
 2433              		.cfi_offset 4, -16
 2434              		.cfi_offset 5, -12
 2435              		.cfi_offset 6, -8
 2436              		.cfi_offset 14, -4
 2437 0002 0500     		movs	r5, r0
 2438 0004 0C00     		movs	r4, r1
 417:Drivers/STM32F0xx_HAL_Driver/Src/stm32f0xx_ll_usb.c **** #if (USE_USB_DOUBLE_BUFFER == 1U)
 2439              		.loc 1 417 3 is_stmt 1 view .LVU737
 419:Drivers/STM32F0xx_HAL_Driver/Src/stm32f0xx_ll_usb.c ****   uint16_t wEPVal;
 2440              		.loc 1 419 3 view .LVU738
 420:Drivers/STM32F0xx_HAL_Driver/Src/stm32f0xx_ll_usb.c **** #endif /* (USE_USB_DOUBLE_BUFFER == 1U) */
 2441              		.loc 1 420 3 view .LVU739
 424:Drivers/STM32F0xx_HAL_Driver/Src/stm32f0xx_ll_usb.c ****   {
 2442              		.loc 1 424 3 view .LVU740
 424:Drivers/STM32F0xx_HAL_Driver/Src/stm32f0xx_ll_usb.c ****   {
 2443              		.loc 1 424 9 is_stmt 0 view .LVU741
 2444 0006 4B78     		ldrb	r3, [r1, #1]
 424:Drivers/STM32F0xx_HAL_Driver/Src/stm32f0xx_ll_usb.c ****   {
 2445              		.loc 1 424 6 view .LVU742
 2446 0008 012B     		cmp	r3, #1
 2447 000a 2ED0     		beq	.L213
 560:Drivers/STM32F0xx_HAL_Driver/Src/stm32f0xx_ll_usb.c ****     {
 2448              		.loc 1 560 5 is_stmt 1 view .LVU743
 560:Drivers/STM32F0xx_HAL_Driver/Src/stm32f0xx_ll_usb.c ****     {
 2449              		.loc 1 560 11 is_stmt 0 view .LVU744
 2450 000c 0A7B     		ldrb	r2, [r1, #12]
 560:Drivers/STM32F0xx_HAL_Driver/Src/stm32f0xx_ll_usb.c ****     {
 2451              		.loc 1 560 8 view .LVU745
 2452 000e 002A     		cmp	r2, #0
 2453 0010 00D0     		beq	.LCB2471
 2454 0012 6EE2     		b	.L157	@long jump
 2455              	.LCB2471:
 563:Drivers/STM32F0xx_HAL_Driver/Src/stm32f0xx_ll_usb.c ****       {
 2456              		.loc 1 563 7 is_stmt 1 view .LVU746
 563:Drivers/STM32F0xx_HAL_Driver/Src/stm32f0xx_ll_usb.c ****       {
 2457              		.loc 1 563 13 is_stmt 0 view .LVU747
ARM GAS  /tmp/cceQvfFh.s 			page 63


 2458 0014 8B69     		ldr	r3, [r1, #24]
 563:Drivers/STM32F0xx_HAL_Driver/Src/stm32f0xx_ll_usb.c ****       {
 2459              		.loc 1 563 28 view .LVU748
 2460 0016 0969     		ldr	r1, [r1, #16]
 2461              	.LVL250:
 563:Drivers/STM32F0xx_HAL_Driver/Src/stm32f0xx_ll_usb.c ****       {
 2462              		.loc 1 563 10 view .LVU749
 2463 0018 8B42     		cmp	r3, r1
 2464 001a 00D8     		bhi	.LCB2477
 2465 001c 4CE2     		b	.L158	@long jump
 2466              	.LCB2477:
 565:Drivers/STM32F0xx_HAL_Driver/Src/stm32f0xx_ll_usb.c ****         ep->xfer_len -= len;
 2467              		.loc 1 565 9 is_stmt 1 view .LVU750
 2468              	.LVL251:
 566:Drivers/STM32F0xx_HAL_Driver/Src/stm32f0xx_ll_usb.c ****       }
 2469              		.loc 1 566 9 view .LVU751
 566:Drivers/STM32F0xx_HAL_Driver/Src/stm32f0xx_ll_usb.c ****       }
 2470              		.loc 1 566 22 is_stmt 0 view .LVU752
 2471 001e 5B1A     		subs	r3, r3, r1
 2472 0020 A361     		str	r3, [r4, #24]
 2473              	.L159:
 574:Drivers/STM32F0xx_HAL_Driver/Src/stm32f0xx_ll_usb.c ****     }
 2474              		.loc 1 574 7 is_stmt 1 view .LVU753
 2475              	.LBB66:
 574:Drivers/STM32F0xx_HAL_Driver/Src/stm32f0xx_ll_usb.c ****     }
 2476              		.loc 1 574 7 view .LVU754
 2477              	.LVL252:
 574:Drivers/STM32F0xx_HAL_Driver/Src/stm32f0xx_ll_usb.c ****     }
 2478              		.loc 1 574 7 view .LVU755
 574:Drivers/STM32F0xx_HAL_Driver/Src/stm32f0xx_ll_usb.c ****     }
 2479              		.loc 1 574 7 view .LVU756
 2480 0022 5023     		movs	r3, #80
 2481 0024 EA5A     		ldrh	r2, [r5, r3]
 2482 0026 AA18     		adds	r2, r5, r2
 2483              	.LVL253:
 574:Drivers/STM32F0xx_HAL_Driver/Src/stm32f0xx_ll_usb.c ****     }
 2484              		.loc 1 574 7 view .LVU757
 2485 0028 2378     		ldrb	r3, [r4]
 2486 002a DB00     		lsls	r3, r3, #3
 2487 002c 9B18     		adds	r3, r3, r2
 2488 002e B94A     		ldr	r2, .L222
 2489              	.LVL254:
 574:Drivers/STM32F0xx_HAL_Driver/Src/stm32f0xx_ll_usb.c ****     }
 2490              		.loc 1 574 7 is_stmt 0 view .LVU758
 2491 0030 9446     		mov	ip, r2
 2492 0032 6344     		add	r3, r3, ip
 2493              	.LVL255:
 574:Drivers/STM32F0xx_HAL_Driver/Src/stm32f0xx_ll_usb.c ****     }
 2494              		.loc 1 574 7 is_stmt 1 view .LVU759
 2495              	.LBB67:
 574:Drivers/STM32F0xx_HAL_Driver/Src/stm32f0xx_ll_usb.c ****     }
 2496              		.loc 1 574 7 view .LVU760
 574:Drivers/STM32F0xx_HAL_Driver/Src/stm32f0xx_ll_usb.c ****     }
 2497              		.loc 1 574 7 view .LVU761
 2498 0034 1A88     		ldrh	r2, [r3]
 2499 0036 9205     		lsls	r2, r2, #22
 2500 0038 920D     		lsrs	r2, r2, #22
ARM GAS  /tmp/cceQvfFh.s 			page 64


 2501 003a 1A80     		strh	r2, [r3]
 574:Drivers/STM32F0xx_HAL_Driver/Src/stm32f0xx_ll_usb.c ****     }
 2502              		.loc 1 574 7 view .LVU762
 2503 003c 0029     		cmp	r1, #0
 2504 003e 00D0     		beq	.LCB2518
 2505 0040 3EE2     		b	.L160	@long jump
 2506              	.LCB2518:
 574:Drivers/STM32F0xx_HAL_Driver/Src/stm32f0xx_ll_usb.c ****     }
 2507              		.loc 1 574 7 discriminator 1 view .LVU763
 2508 0042 1A88     		ldrh	r2, [r3]
 2509 0044 B449     		ldr	r1, .L222+4
 2510              	.LVL256:
 574:Drivers/STM32F0xx_HAL_Driver/Src/stm32f0xx_ll_usb.c ****     }
 2511              		.loc 1 574 7 is_stmt 0 discriminator 1 view .LVU764
 2512 0046 0A43     		orrs	r2, r1
 2513 0048 92B2     		uxth	r2, r2
 2514 004a 1A80     		strh	r2, [r3]
 2515              	.LVL257:
 2516              	.L161:
 574:Drivers/STM32F0xx_HAL_Driver/Src/stm32f0xx_ll_usb.c ****     }
 2517              		.loc 1 574 7 discriminator 1 view .LVU765
 2518              	.LBE67:
 2519              	.LBE66:
 622:Drivers/STM32F0xx_HAL_Driver/Src/stm32f0xx_ll_usb.c ****   }
 2520              		.loc 1 622 5 is_stmt 1 view .LVU766
 2521              	.LBB69:
 622:Drivers/STM32F0xx_HAL_Driver/Src/stm32f0xx_ll_usb.c ****   }
 2522              		.loc 1 622 5 view .LVU767
 622:Drivers/STM32F0xx_HAL_Driver/Src/stm32f0xx_ll_usb.c ****   }
 2523              		.loc 1 622 5 view .LVU768
 2524 004c 2378     		ldrb	r3, [r4]
 2525 004e 9B00     		lsls	r3, r3, #2
 2526 0050 ED18     		adds	r5, r5, r3
 2527              	.LVL258:
 622:Drivers/STM32F0xx_HAL_Driver/Src/stm32f0xx_ll_usb.c ****   }
 2528              		.loc 1 622 5 is_stmt 0 view .LVU769
 2529 0052 2B88     		ldrh	r3, [r5]
 2530 0054 B14A     		ldr	r2, .L222+8
 2531 0056 1340     		ands	r3, r2
 2532              	.LVL259:
 622:Drivers/STM32F0xx_HAL_Driver/Src/stm32f0xx_ll_usb.c ****   }
 2533              		.loc 1 622 5 is_stmt 1 view .LVU770
 622:Drivers/STM32F0xx_HAL_Driver/Src/stm32f0xx_ll_usb.c ****   }
 2534              		.loc 1 622 5 discriminator 1 view .LVU771
 622:Drivers/STM32F0xx_HAL_Driver/Src/stm32f0xx_ll_usb.c ****   }
 2535              		.loc 1 622 5 discriminator 3 view .LVU772
 622:Drivers/STM32F0xx_HAL_Driver/Src/stm32f0xx_ll_usb.c ****   }
 2536              		.loc 1 622 5 discriminator 4 view .LVU773
 2537 0058 C022     		movs	r2, #192
 2538 005a 9201     		lsls	r2, r2, #6
 2539 005c 5A40     		eors	r2, r3
 2540              	.LVL260:
 622:Drivers/STM32F0xx_HAL_Driver/Src/stm32f0xx_ll_usb.c ****   }
 2541              		.loc 1 622 5 discriminator 6 view .LVU774
 2542 005e B04B     		ldr	r3, .L222+12
 2543 0060 1343     		orrs	r3, r2
 2544 0062 9BB2     		uxth	r3, r3
ARM GAS  /tmp/cceQvfFh.s 			page 65


 2545 0064 2B80     		strh	r3, [r5]
 2546              	.LBE69:
 625:Drivers/STM32F0xx_HAL_Driver/Src/stm32f0xx_ll_usb.c **** }
 2547              		.loc 1 625 10 is_stmt 0 view .LVU775
 2548 0066 0020     		movs	r0, #0
 2549              	.LVL261:
 2550              	.L156:
 626:Drivers/STM32F0xx_HAL_Driver/Src/stm32f0xx_ll_usb.c **** 
 2551              		.loc 1 626 1 view .LVU776
 2552              		@ sp needed
 2553              	.LVL262:
 626:Drivers/STM32F0xx_HAL_Driver/Src/stm32f0xx_ll_usb.c **** 
 2554              		.loc 1 626 1 view .LVU777
 2555 0068 70BD     		pop	{r4, r5, r6, pc}
 2556              	.LVL263:
 2557              	.L213:
 427:Drivers/STM32F0xx_HAL_Driver/Src/stm32f0xx_ll_usb.c ****     {
 2558              		.loc 1 427 5 is_stmt 1 view .LVU778
 427:Drivers/STM32F0xx_HAL_Driver/Src/stm32f0xx_ll_usb.c ****     {
 2559              		.loc 1 427 11 is_stmt 0 view .LVU779
 2560 006a 8E69     		ldr	r6, [r1, #24]
 427:Drivers/STM32F0xx_HAL_Driver/Src/stm32f0xx_ll_usb.c ****     {
 2561              		.loc 1 427 26 view .LVU780
 2562 006c 0A69     		ldr	r2, [r1, #16]
 427:Drivers/STM32F0xx_HAL_Driver/Src/stm32f0xx_ll_usb.c ****     {
 2563              		.loc 1 427 8 view .LVU781
 2564 006e 9642     		cmp	r6, r2
 2565 0070 00D9     		bls	.L109
 429:Drivers/STM32F0xx_HAL_Driver/Src/stm32f0xx_ll_usb.c ****     }
 2566              		.loc 1 429 11 view .LVU782
 2567 0072 1600     		movs	r6, r2
 2568              	.L109:
 2569              	.LVL264:
 437:Drivers/STM32F0xx_HAL_Driver/Src/stm32f0xx_ll_usb.c ****     {
 2570              		.loc 1 437 5 is_stmt 1 view .LVU783
 437:Drivers/STM32F0xx_HAL_Driver/Src/stm32f0xx_ll_usb.c ****     {
 2571              		.loc 1 437 11 is_stmt 0 view .LVU784
 2572 0074 217B     		ldrb	r1, [r4, #12]
 2573              	.LVL265:
 437:Drivers/STM32F0xx_HAL_Driver/Src/stm32f0xx_ll_usb.c ****     {
 2574              		.loc 1 437 8 view .LVU785
 2575 0076 0029     		cmp	r1, #0
 2576 0078 24D0     		beq	.L214
 446:Drivers/STM32F0xx_HAL_Driver/Src/stm32f0xx_ll_usb.c ****       {
 2577              		.loc 1 446 7 is_stmt 1 view .LVU786
 446:Drivers/STM32F0xx_HAL_Driver/Src/stm32f0xx_ll_usb.c ****       {
 2578              		.loc 1 446 13 is_stmt 0 view .LVU787
 2579 007a E178     		ldrb	r1, [r4, #3]
 446:Drivers/STM32F0xx_HAL_Driver/Src/stm32f0xx_ll_usb.c ****       {
 2580              		.loc 1 446 10 view .LVU788
 2581 007c 0229     		cmp	r1, #2
 2582 007e 41D0     		beq	.L215
 531:Drivers/STM32F0xx_HAL_Driver/Src/stm32f0xx_ll_usb.c **** 
 2583              		.loc 1 531 9 is_stmt 1 view .LVU789
 531:Drivers/STM32F0xx_HAL_Driver/Src/stm32f0xx_ll_usb.c **** 
 2584              		.loc 1 531 11 is_stmt 0 view .LVU790
 2585 0080 226A     		ldr	r2, [r4, #32]
ARM GAS  /tmp/cceQvfFh.s 			page 66


 531:Drivers/STM32F0xx_HAL_Driver/Src/stm32f0xx_ll_usb.c **** 
 2586              		.loc 1 531 25 view .LVU791
 2587 0082 921B     		subs	r2, r2, r6
 2588 0084 2262     		str	r2, [r4, #32]
 534:Drivers/STM32F0xx_HAL_Driver/Src/stm32f0xx_ll_usb.c ****         {
 2589              		.loc 1 534 9 is_stmt 1 view .LVU792
 534:Drivers/STM32F0xx_HAL_Driver/Src/stm32f0xx_ll_usb.c ****         {
 2590              		.loc 1 534 14 is_stmt 0 view .LVU793
 2591 0086 2278     		ldrb	r2, [r4]
 2592 0088 9100     		lsls	r1, r2, #2
 2593 008a 6918     		adds	r1, r5, r1
 2594 008c 0988     		ldrh	r1, [r1]
 534:Drivers/STM32F0xx_HAL_Driver/Src/stm32f0xx_ll_usb.c ****         {
 2595              		.loc 1 534 12 view .LVU794
 2596 008e 4906     		lsls	r1, r1, #25
 2597 0090 00D4     		bmi	.LCB2618
 2598 0092 D1E1     		b	.L143	@long jump
 2599              	.LCB2618:
 537:Drivers/STM32F0xx_HAL_Driver/Src/stm32f0xx_ll_usb.c ****           pmabuffer = ep->pmaaddr1;
 2600              		.loc 1 537 11 is_stmt 1 view .LVU795
 2601              	.LBB70:
 537:Drivers/STM32F0xx_HAL_Driver/Src/stm32f0xx_ll_usb.c ****           pmabuffer = ep->pmaaddr1;
 2602              		.loc 1 537 11 view .LVU796
 2603              	.LVL266:
 537:Drivers/STM32F0xx_HAL_Driver/Src/stm32f0xx_ll_usb.c ****           pmabuffer = ep->pmaaddr1;
 2604              		.loc 1 537 11 view .LVU797
 537:Drivers/STM32F0xx_HAL_Driver/Src/stm32f0xx_ll_usb.c ****           pmabuffer = ep->pmaaddr1;
 2605              		.loc 1 537 11 view .LVU798
 2606 0094 002B     		cmp	r3, #0
 2607 0096 00D0     		beq	.LCB2626
 2608 0098 BDE1     		b	.L144	@long jump
 2609              	.LCB2626:
 537:Drivers/STM32F0xx_HAL_Driver/Src/stm32f0xx_ll_usb.c ****           pmabuffer = ep->pmaaddr1;
 2610              		.loc 1 537 11 discriminator 1 view .LVU799
 2611              	.LBB71:
 537:Drivers/STM32F0xx_HAL_Driver/Src/stm32f0xx_ll_usb.c ****           pmabuffer = ep->pmaaddr1;
 2612              		.loc 1 537 11 discriminator 1 view .LVU800
 2613              	.LVL267:
 537:Drivers/STM32F0xx_HAL_Driver/Src/stm32f0xx_ll_usb.c ****           pmabuffer = ep->pmaaddr1;
 2614              		.loc 1 537 11 view .LVU801
 537:Drivers/STM32F0xx_HAL_Driver/Src/stm32f0xx_ll_usb.c ****           pmabuffer = ep->pmaaddr1;
 2615              		.loc 1 537 11 view .LVU802
 537:Drivers/STM32F0xx_HAL_Driver/Src/stm32f0xx_ll_usb.c ****           pmabuffer = ep->pmaaddr1;
 2616              		.loc 1 537 11 is_stmt 0 discriminator 1 view .LVU803
 2617 009a 5033     		adds	r3, r3, #80
 2618 009c EB5A     		ldrh	r3, [r5, r3]
 2619 009e EB18     		adds	r3, r5, r3
 2620              	.LVL268:
 537:Drivers/STM32F0xx_HAL_Driver/Src/stm32f0xx_ll_usb.c ****           pmabuffer = ep->pmaaddr1;
 2621              		.loc 1 537 11 is_stmt 1 view .LVU804
 537:Drivers/STM32F0xx_HAL_Driver/Src/stm32f0xx_ll_usb.c ****           pmabuffer = ep->pmaaddr1;
 2622              		.loc 1 537 11 is_stmt 0 discriminator 1 view .LVU805
 2623 00a0 D200     		lsls	r2, r2, #3
 2624 00a2 D218     		adds	r2, r2, r3
 2625 00a4 9B4B     		ldr	r3, .L222
 2626              	.LVL269:
 537:Drivers/STM32F0xx_HAL_Driver/Src/stm32f0xx_ll_usb.c ****           pmabuffer = ep->pmaaddr1;
ARM GAS  /tmp/cceQvfFh.s 			page 67


 2627              		.loc 1 537 11 discriminator 1 view .LVU806
 2628 00a6 9C46     		mov	ip, r3
 2629 00a8 6244     		add	r2, r2, ip
 2630              	.LVL270:
 537:Drivers/STM32F0xx_HAL_Driver/Src/stm32f0xx_ll_usb.c ****           pmabuffer = ep->pmaaddr1;
 2631              		.loc 1 537 11 is_stmt 1 view .LVU807
 2632              	.LBB72:
 537:Drivers/STM32F0xx_HAL_Driver/Src/stm32f0xx_ll_usb.c ****           pmabuffer = ep->pmaaddr1;
 2633              		.loc 1 537 11 view .LVU808
 537:Drivers/STM32F0xx_HAL_Driver/Src/stm32f0xx_ll_usb.c ****           pmabuffer = ep->pmaaddr1;
 2634              		.loc 1 537 11 view .LVU809
 537:Drivers/STM32F0xx_HAL_Driver/Src/stm32f0xx_ll_usb.c ****           pmabuffer = ep->pmaaddr1;
 2635              		.loc 1 537 11 is_stmt 0 discriminator 1 view .LVU810
 2636 00aa 1388     		ldrh	r3, [r2]
 2637 00ac 9B05     		lsls	r3, r3, #22
 2638 00ae 9B0D     		lsrs	r3, r3, #22
 2639 00b0 1380     		strh	r3, [r2]
 537:Drivers/STM32F0xx_HAL_Driver/Src/stm32f0xx_ll_usb.c ****           pmabuffer = ep->pmaaddr1;
 2640              		.loc 1 537 11 is_stmt 1 view .LVU811
 537:Drivers/STM32F0xx_HAL_Driver/Src/stm32f0xx_ll_usb.c ****           pmabuffer = ep->pmaaddr1;
 2641              		.loc 1 537 11 is_stmt 0 discriminator 1 view .LVU812
 2642 00b2 002E     		cmp	r6, #0
 2643 00b4 00D0     		beq	.LCB2657
 2644 00b6 95E1     		b	.L145	@long jump
 2645              	.LCB2657:
 537:Drivers/STM32F0xx_HAL_Driver/Src/stm32f0xx_ll_usb.c ****           pmabuffer = ep->pmaaddr1;
 2646              		.loc 1 537 11 is_stmt 1 discriminator 3 view .LVU813
 2647 00b8 1388     		ldrh	r3, [r2]
 2648 00ba 9749     		ldr	r1, .L222+4
 2649 00bc 0B43     		orrs	r3, r1
 2650 00be 9BB2     		uxth	r3, r3
 2651 00c0 1380     		strh	r3, [r2]
 2652 00c2 B2E1     		b	.L146
 2653              	.LVL271:
 2654              	.L214:
 537:Drivers/STM32F0xx_HAL_Driver/Src/stm32f0xx_ll_usb.c ****           pmabuffer = ep->pmaaddr1;
 2655              		.loc 1 537 11 is_stmt 0 discriminator 3 view .LVU814
 2656              	.LBE72:
 2657              	.LBE71:
 2658              	.LBE70:
 439:Drivers/STM32F0xx_HAL_Driver/Src/stm32f0xx_ll_usb.c ****       PCD_SET_EP_TX_CNT(USBx, ep->num, len);
 2659              		.loc 1 439 7 is_stmt 1 view .LVU815
 2660 00c4 B6B2     		uxth	r6, r6
 2661              	.LVL272:
 439:Drivers/STM32F0xx_HAL_Driver/Src/stm32f0xx_ll_usb.c ****       PCD_SET_EP_TX_CNT(USBx, ep->num, len);
 2662              		.loc 1 439 7 is_stmt 0 view .LVU816
 2663 00c6 E288     		ldrh	r2, [r4, #6]
 2664 00c8 6169     		ldr	r1, [r4, #20]
 2665 00ca 3300     		movs	r3, r6
 2666 00cc 2800     		movs	r0, r5
 2667              	.LVL273:
 439:Drivers/STM32F0xx_HAL_Driver/Src/stm32f0xx_ll_usb.c ****       PCD_SET_EP_TX_CNT(USBx, ep->num, len);
 2668              		.loc 1 439 7 view .LVU817
 2669 00ce FFF7FEFF 		bl	USB_WritePMA
 2670              	.LVL274:
 440:Drivers/STM32F0xx_HAL_Driver/Src/stm32f0xx_ll_usb.c ****     }
 2671              		.loc 1 440 7 is_stmt 1 view .LVU818
ARM GAS  /tmp/cceQvfFh.s 			page 68


 2672              	.LBB75:
 440:Drivers/STM32F0xx_HAL_Driver/Src/stm32f0xx_ll_usb.c ****     }
 2673              		.loc 1 440 7 view .LVU819
 440:Drivers/STM32F0xx_HAL_Driver/Src/stm32f0xx_ll_usb.c ****     }
 2674              		.loc 1 440 7 view .LVU820
 440:Drivers/STM32F0xx_HAL_Driver/Src/stm32f0xx_ll_usb.c ****     }
 2675              		.loc 1 440 7 view .LVU821
 2676 00d2 5023     		movs	r3, #80
 2677 00d4 EA5A     		ldrh	r2, [r5, r3]
 2678 00d6 AA18     		adds	r2, r5, r2
 2679              	.LVL275:
 440:Drivers/STM32F0xx_HAL_Driver/Src/stm32f0xx_ll_usb.c ****     }
 2680              		.loc 1 440 7 view .LVU822
 2681 00d8 2378     		ldrb	r3, [r4]
 2682 00da DB00     		lsls	r3, r3, #3
 2683 00dc 9B18     		adds	r3, r3, r2
 2684 00de 914A     		ldr	r2, .L222+16
 2685              	.LVL276:
 440:Drivers/STM32F0xx_HAL_Driver/Src/stm32f0xx_ll_usb.c ****     }
 2686              		.loc 1 440 7 is_stmt 0 view .LVU823
 2687 00e0 9446     		mov	ip, r2
 2688 00e2 6344     		add	r3, r3, ip
 2689              	.LVL277:
 440:Drivers/STM32F0xx_HAL_Driver/Src/stm32f0xx_ll_usb.c ****     }
 2690              		.loc 1 440 7 is_stmt 1 view .LVU824
 2691 00e4 1E80     		strh	r6, [r3]
 2692              	.LBE75:
 440:Drivers/STM32F0xx_HAL_Driver/Src/stm32f0xx_ll_usb.c ****     }
 2693              		.loc 1 440 7 view .LVU825
 2694              	.LVL278:
 2695              	.L111:
 556:Drivers/STM32F0xx_HAL_Driver/Src/stm32f0xx_ll_usb.c ****   }
 2696              		.loc 1 556 5 view .LVU826
 2697              	.LBB76:
 556:Drivers/STM32F0xx_HAL_Driver/Src/stm32f0xx_ll_usb.c ****   }
 2698              		.loc 1 556 5 view .LVU827
 556:Drivers/STM32F0xx_HAL_Driver/Src/stm32f0xx_ll_usb.c ****   }
 2699              		.loc 1 556 5 view .LVU828
 2700 00e6 2278     		ldrb	r2, [r4]
 2701 00e8 9200     		lsls	r2, r2, #2
 2702 00ea AA18     		adds	r2, r5, r2
 2703 00ec 1388     		ldrh	r3, [r2]
 2704 00ee 8E49     		ldr	r1, .L222+20
 2705 00f0 0B40     		ands	r3, r1
 2706              	.LVL279:
 556:Drivers/STM32F0xx_HAL_Driver/Src/stm32f0xx_ll_usb.c ****   }
 2707              		.loc 1 556 5 view .LVU829
 556:Drivers/STM32F0xx_HAL_Driver/Src/stm32f0xx_ll_usb.c ****   }
 2708              		.loc 1 556 5 discriminator 1 view .LVU830
 556:Drivers/STM32F0xx_HAL_Driver/Src/stm32f0xx_ll_usb.c ****   }
 2709              		.loc 1 556 5 discriminator 3 view .LVU831
 556:Drivers/STM32F0xx_HAL_Driver/Src/stm32f0xx_ll_usb.c ****   }
 2710              		.loc 1 556 5 discriminator 4 view .LVU832
 2711 00f2 3021     		movs	r1, #48
 2712 00f4 4B40     		eors	r3, r1
 2713              	.LVL280:
 556:Drivers/STM32F0xx_HAL_Driver/Src/stm32f0xx_ll_usb.c ****   }
ARM GAS  /tmp/cceQvfFh.s 			page 69


 2714              		.loc 1 556 5 is_stmt 0 discriminator 4 view .LVU833
 2715 00f6 9BB2     		uxth	r3, r3
 2716              	.LVL281:
 556:Drivers/STM32F0xx_HAL_Driver/Src/stm32f0xx_ll_usb.c ****   }
 2717              		.loc 1 556 5 is_stmt 1 discriminator 6 view .LVU834
 2718 00f8 8949     		ldr	r1, .L222+12
 2719 00fa 0B43     		orrs	r3, r1
 2720              	.LVL282:
 556:Drivers/STM32F0xx_HAL_Driver/Src/stm32f0xx_ll_usb.c ****   }
 2721              		.loc 1 556 5 is_stmt 0 discriminator 6 view .LVU835
 2722 00fc 9BB2     		uxth	r3, r3
 2723 00fe 1380     		strh	r3, [r2]
 2724              	.LBE76:
 556:Drivers/STM32F0xx_HAL_Driver/Src/stm32f0xx_ll_usb.c ****   }
 2725              		.loc 1 556 5 is_stmt 1 view .LVU836
 625:Drivers/STM32F0xx_HAL_Driver/Src/stm32f0xx_ll_usb.c **** }
 2726              		.loc 1 625 10 is_stmt 0 view .LVU837
 2727 0100 0020     		movs	r0, #0
 2728 0102 B1E7     		b	.L156
 2729              	.LVL283:
 2730              	.L215:
 448:Drivers/STM32F0xx_HAL_Driver/Src/stm32f0xx_ll_usb.c ****         {
 2731              		.loc 1 448 9 is_stmt 1 view .LVU838
 448:Drivers/STM32F0xx_HAL_Driver/Src/stm32f0xx_ll_usb.c ****         {
 2732              		.loc 1 448 15 is_stmt 0 view .LVU839
 2733 0104 236A     		ldr	r3, [r4, #32]
 448:Drivers/STM32F0xx_HAL_Driver/Src/stm32f0xx_ll_usb.c ****         {
 2734              		.loc 1 448 12 view .LVU840
 2735 0106 9A42     		cmp	r2, r3
 2736 0108 00D3     		bcc	.LCB2759
 2737 010a 50E1     		b	.L113	@long jump
 2738              	.LCB2759:
 451:Drivers/STM32F0xx_HAL_Driver/Src/stm32f0xx_ll_usb.c **** 
 2739              		.loc 1 451 11 is_stmt 1 view .LVU841
 2740              	.LBB77:
 451:Drivers/STM32F0xx_HAL_Driver/Src/stm32f0xx_ll_usb.c **** 
 2741              		.loc 1 451 11 view .LVU842
 451:Drivers/STM32F0xx_HAL_Driver/Src/stm32f0xx_ll_usb.c **** 
 2742              		.loc 1 451 11 view .LVU843
 2743 010c 2378     		ldrb	r3, [r4]
 2744 010e 9B00     		lsls	r3, r3, #2
 2745 0110 EB18     		adds	r3, r5, r3
 2746 0112 1988     		ldrh	r1, [r3]
 2747 0114 854A     		ldr	r2, .L222+24
 2748 0116 1140     		ands	r1, r2
 2749              	.LVL284:
 451:Drivers/STM32F0xx_HAL_Driver/Src/stm32f0xx_ll_usb.c **** 
 2750              		.loc 1 451 11 view .LVU844
 2751 0118 854A     		ldr	r2, .L222+28
 2752 011a 0A43     		orrs	r2, r1
 2753 011c 92B2     		uxth	r2, r2
 2754 011e 1A80     		strh	r2, [r3]
 2755              	.LBE77:
 451:Drivers/STM32F0xx_HAL_Driver/Src/stm32f0xx_ll_usb.c **** 
 2756              		.loc 1 451 11 view .LVU845
 454:Drivers/STM32F0xx_HAL_Driver/Src/stm32f0xx_ll_usb.c **** 
 2757              		.loc 1 454 11 view .LVU846
ARM GAS  /tmp/cceQvfFh.s 			page 70


 454:Drivers/STM32F0xx_HAL_Driver/Src/stm32f0xx_ll_usb.c **** 
 2758              		.loc 1 454 13 is_stmt 0 view .LVU847
 2759 0120 236A     		ldr	r3, [r4, #32]
 454:Drivers/STM32F0xx_HAL_Driver/Src/stm32f0xx_ll_usb.c **** 
 2760              		.loc 1 454 27 view .LVU848
 2761 0122 9B1B     		subs	r3, r3, r6
 2762 0124 2362     		str	r3, [r4, #32]
 457:Drivers/STM32F0xx_HAL_Driver/Src/stm32f0xx_ll_usb.c ****           {
 2763              		.loc 1 457 11 is_stmt 1 view .LVU849
 457:Drivers/STM32F0xx_HAL_Driver/Src/stm32f0xx_ll_usb.c ****           {
 2764              		.loc 1 457 16 is_stmt 0 view .LVU850
 2765 0126 2378     		ldrb	r3, [r4]
 2766 0128 9A00     		lsls	r2, r3, #2
 2767 012a AA18     		adds	r2, r5, r2
 2768 012c 1288     		ldrh	r2, [r2]
 457:Drivers/STM32F0xx_HAL_Driver/Src/stm32f0xx_ll_usb.c ****           {
 2769              		.loc 1 457 14 view .LVU851
 2770 012e 5206     		lsls	r2, r2, #25
 2771 0130 00D4     		bmi	.LCB2794
 2772 0132 95E0     		b	.L114	@long jump
 2773              	.LCB2794:
 460:Drivers/STM32F0xx_HAL_Driver/Src/stm32f0xx_ll_usb.c ****             pmabuffer = ep->pmaaddr1;
 2774              		.loc 1 460 13 is_stmt 1 view .LVU852
 2775              	.LBB78:
 460:Drivers/STM32F0xx_HAL_Driver/Src/stm32f0xx_ll_usb.c ****             pmabuffer = ep->pmaaddr1;
 2776              		.loc 1 460 13 view .LVU853
 2777              	.LVL285:
 460:Drivers/STM32F0xx_HAL_Driver/Src/stm32f0xx_ll_usb.c ****             pmabuffer = ep->pmaaddr1;
 2778              		.loc 1 460 13 view .LVU854
 460:Drivers/STM32F0xx_HAL_Driver/Src/stm32f0xx_ll_usb.c ****             pmabuffer = ep->pmaaddr1;
 2779              		.loc 1 460 13 view .LVU855
 2780 0134 6278     		ldrb	r2, [r4, #1]
 2781 0136 002A     		cmp	r2, #0
 2782 0138 2CD1     		bne	.L115
 460:Drivers/STM32F0xx_HAL_Driver/Src/stm32f0xx_ll_usb.c ****             pmabuffer = ep->pmaaddr1;
 2783              		.loc 1 460 13 discriminator 1 view .LVU856
 2784              	.LBB79:
 460:Drivers/STM32F0xx_HAL_Driver/Src/stm32f0xx_ll_usb.c ****             pmabuffer = ep->pmaaddr1;
 2785              		.loc 1 460 13 discriminator 1 view .LVU857
 2786              	.LVL286:
 460:Drivers/STM32F0xx_HAL_Driver/Src/stm32f0xx_ll_usb.c ****             pmabuffer = ep->pmaaddr1;
 2787              		.loc 1 460 13 view .LVU858
 460:Drivers/STM32F0xx_HAL_Driver/Src/stm32f0xx_ll_usb.c ****             pmabuffer = ep->pmaaddr1;
 2788              		.loc 1 460 13 view .LVU859
 460:Drivers/STM32F0xx_HAL_Driver/Src/stm32f0xx_ll_usb.c ****             pmabuffer = ep->pmaaddr1;
 2789              		.loc 1 460 13 is_stmt 0 discriminator 1 view .LVU860
 2790 013a 5032     		adds	r2, r2, #80
 2791 013c AA5A     		ldrh	r2, [r5, r2]
 2792 013e AA18     		adds	r2, r5, r2
 2793              	.LVL287:
 460:Drivers/STM32F0xx_HAL_Driver/Src/stm32f0xx_ll_usb.c ****             pmabuffer = ep->pmaaddr1;
 2794              		.loc 1 460 13 is_stmt 1 view .LVU861
 460:Drivers/STM32F0xx_HAL_Driver/Src/stm32f0xx_ll_usb.c ****             pmabuffer = ep->pmaaddr1;
 2795              		.loc 1 460 13 is_stmt 0 discriminator 1 view .LVU862
 2796 0140 DB00     		lsls	r3, r3, #3
 2797 0142 9B18     		adds	r3, r3, r2
 2798 0144 734A     		ldr	r2, .L222
ARM GAS  /tmp/cceQvfFh.s 			page 71


 2799              	.LVL288:
 460:Drivers/STM32F0xx_HAL_Driver/Src/stm32f0xx_ll_usb.c ****             pmabuffer = ep->pmaaddr1;
 2800              		.loc 1 460 13 discriminator 1 view .LVU863
 2801 0146 9446     		mov	ip, r2
 2802 0148 6344     		add	r3, r3, ip
 2803              	.LVL289:
 460:Drivers/STM32F0xx_HAL_Driver/Src/stm32f0xx_ll_usb.c ****             pmabuffer = ep->pmaaddr1;
 2804              		.loc 1 460 13 is_stmt 1 view .LVU864
 2805              	.LBB80:
 460:Drivers/STM32F0xx_HAL_Driver/Src/stm32f0xx_ll_usb.c ****             pmabuffer = ep->pmaaddr1;
 2806              		.loc 1 460 13 view .LVU865
 460:Drivers/STM32F0xx_HAL_Driver/Src/stm32f0xx_ll_usb.c ****             pmabuffer = ep->pmaaddr1;
 2807              		.loc 1 460 13 view .LVU866
 460:Drivers/STM32F0xx_HAL_Driver/Src/stm32f0xx_ll_usb.c ****             pmabuffer = ep->pmaaddr1;
 2808              		.loc 1 460 13 is_stmt 0 discriminator 1 view .LVU867
 2809 014a 1A88     		ldrh	r2, [r3]
 2810 014c 9205     		lsls	r2, r2, #22
 2811 014e 920D     		lsrs	r2, r2, #22
 2812 0150 1A80     		strh	r2, [r3]
 460:Drivers/STM32F0xx_HAL_Driver/Src/stm32f0xx_ll_usb.c ****             pmabuffer = ep->pmaaddr1;
 2813              		.loc 1 460 13 is_stmt 1 view .LVU868
 460:Drivers/STM32F0xx_HAL_Driver/Src/stm32f0xx_ll_usb.c ****             pmabuffer = ep->pmaaddr1;
 2814              		.loc 1 460 13 is_stmt 0 discriminator 1 view .LVU869
 2815 0152 002E     		cmp	r6, #0
 2816 0154 05D1     		bne	.L116
 460:Drivers/STM32F0xx_HAL_Driver/Src/stm32f0xx_ll_usb.c ****             pmabuffer = ep->pmaaddr1;
 2817              		.loc 1 460 13 is_stmt 1 discriminator 3 view .LVU870
 2818 0156 1A88     		ldrh	r2, [r3]
 2819 0158 6F49     		ldr	r1, .L222+4
 2820              	.LVL290:
 460:Drivers/STM32F0xx_HAL_Driver/Src/stm32f0xx_ll_usb.c ****             pmabuffer = ep->pmaaddr1;
 2821              		.loc 1 460 13 is_stmt 0 discriminator 3 view .LVU871
 2822 015a 0A43     		orrs	r2, r1
 2823 015c 92B2     		uxth	r2, r2
 2824 015e 1A80     		strh	r2, [r3]
 2825 0160 1AE0     		b	.L117
 2826              	.LVL291:
 2827              	.L116:
 460:Drivers/STM32F0xx_HAL_Driver/Src/stm32f0xx_ll_usb.c ****             pmabuffer = ep->pmaaddr1;
 2828              		.loc 1 460 13 is_stmt 1 discriminator 4 view .LVU872
 2829 0162 3E2E     		cmp	r6, #62
 2830 0164 09D8     		bhi	.L118
 460:Drivers/STM32F0xx_HAL_Driver/Src/stm32f0xx_ll_usb.c ****             pmabuffer = ep->pmaaddr1;
 2831              		.loc 1 460 13 discriminator 6 view .LVU873
 460:Drivers/STM32F0xx_HAL_Driver/Src/stm32f0xx_ll_usb.c ****             pmabuffer = ep->pmaaddr1;
 2832              		.loc 1 460 13 discriminator 6 view .LVU874
 2833 0166 7208     		lsrs	r2, r6, #1
 2834              	.LVL292:
 460:Drivers/STM32F0xx_HAL_Driver/Src/stm32f0xx_ll_usb.c ****             pmabuffer = ep->pmaaddr1;
 2835              		.loc 1 460 13 view .LVU875
 460:Drivers/STM32F0xx_HAL_Driver/Src/stm32f0xx_ll_usb.c ****             pmabuffer = ep->pmaaddr1;
 2836              		.loc 1 460 13 is_stmt 0 discriminator 6 view .LVU876
 2837 0168 F107     		lsls	r1, r6, #31
 2838 016a 00D5     		bpl	.L119
 2839              	.LVL293:
 460:Drivers/STM32F0xx_HAL_Driver/Src/stm32f0xx_ll_usb.c ****             pmabuffer = ep->pmaaddr1;
 2840              		.loc 1 460 13 is_stmt 1 discriminator 8 view .LVU877
ARM GAS  /tmp/cceQvfFh.s 			page 72


 2841 016c 0132     		adds	r2, r2, #1
 2842              	.LVL294:
 2843              	.L119:
 460:Drivers/STM32F0xx_HAL_Driver/Src/stm32f0xx_ll_usb.c ****             pmabuffer = ep->pmaaddr1;
 2844              		.loc 1 460 13 discriminator 10 view .LVU878
 2845 016e 1988     		ldrh	r1, [r3]
 2846 0170 9202     		lsls	r2, r2, #10
 2847              	.LVL295:
 460:Drivers/STM32F0xx_HAL_Driver/Src/stm32f0xx_ll_usb.c ****             pmabuffer = ep->pmaaddr1;
 2848              		.loc 1 460 13 is_stmt 0 discriminator 10 view .LVU879
 2849 0172 92B2     		uxth	r2, r2
 2850 0174 0A43     		orrs	r2, r1
 2851 0176 1A80     		strh	r2, [r3]
 460:Drivers/STM32F0xx_HAL_Driver/Src/stm32f0xx_ll_usb.c ****             pmabuffer = ep->pmaaddr1;
 2852              		.loc 1 460 13 is_stmt 1 view .LVU880
 2853 0178 0EE0     		b	.L117
 2854              	.LVL296:
 2855              	.L118:
 460:Drivers/STM32F0xx_HAL_Driver/Src/stm32f0xx_ll_usb.c ****             pmabuffer = ep->pmaaddr1;
 2856              		.loc 1 460 13 discriminator 7 view .LVU881
 460:Drivers/STM32F0xx_HAL_Driver/Src/stm32f0xx_ll_usb.c ****             pmabuffer = ep->pmaaddr1;
 2857              		.loc 1 460 13 discriminator 7 view .LVU882
 2858 017a 7209     		lsrs	r2, r6, #5
 2859              	.LVL297:
 460:Drivers/STM32F0xx_HAL_Driver/Src/stm32f0xx_ll_usb.c ****             pmabuffer = ep->pmaaddr1;
 2860              		.loc 1 460 13 view .LVU883
 460:Drivers/STM32F0xx_HAL_Driver/Src/stm32f0xx_ll_usb.c ****             pmabuffer = ep->pmaaddr1;
 2861              		.loc 1 460 13 is_stmt 0 discriminator 7 view .LVU884
 2862 017c F106     		lsls	r1, r6, #27
 2863 017e 00D1     		bne	.L120
 2864              	.LVL298:
 460:Drivers/STM32F0xx_HAL_Driver/Src/stm32f0xx_ll_usb.c ****             pmabuffer = ep->pmaaddr1;
 2865              		.loc 1 460 13 is_stmt 1 discriminator 12 view .LVU885
 2866 0180 013A     		subs	r2, r2, #1
 2867              	.LVL299:
 2868              	.L120:
 460:Drivers/STM32F0xx_HAL_Driver/Src/stm32f0xx_ll_usb.c ****             pmabuffer = ep->pmaaddr1;
 2869              		.loc 1 460 13 discriminator 14 view .LVU886
 2870 0182 1988     		ldrh	r1, [r3]
 2871 0184 9202     		lsls	r2, r2, #10
 2872              	.LVL300:
 460:Drivers/STM32F0xx_HAL_Driver/Src/stm32f0xx_ll_usb.c ****             pmabuffer = ep->pmaaddr1;
 2873              		.loc 1 460 13 is_stmt 0 discriminator 14 view .LVU887
 2874 0186 92B2     		uxth	r2, r2
 2875 0188 1143     		orrs	r1, r2
 2876 018a 634A     		ldr	r2, .L222+4
 2877 018c 0A43     		orrs	r2, r1
 2878 018e 92B2     		uxth	r2, r2
 2879 0190 1A80     		strh	r2, [r3]
 2880 0192 01E0     		b	.L117
 2881              	.LVL301:
 2882              	.L115:
 460:Drivers/STM32F0xx_HAL_Driver/Src/stm32f0xx_ll_usb.c ****             pmabuffer = ep->pmaaddr1;
 2883              		.loc 1 460 13 discriminator 14 view .LVU888
 2884              	.LBE80:
 2885              	.LBE79:
 460:Drivers/STM32F0xx_HAL_Driver/Src/stm32f0xx_ll_usb.c ****             pmabuffer = ep->pmaaddr1;
ARM GAS  /tmp/cceQvfFh.s 			page 73


 2886              		.loc 1 460 13 is_stmt 1 discriminator 2 view .LVU889
 2887 0194 012A     		cmp	r2, #1
 2888 0196 26D0     		beq	.L216
 2889              	.LVL302:
 2890              	.L117:
 460:Drivers/STM32F0xx_HAL_Driver/Src/stm32f0xx_ll_usb.c ****             pmabuffer = ep->pmaaddr1;
 2891              		.loc 1 460 13 is_stmt 0 discriminator 2 view .LVU890
 2892              	.LBE78:
 460:Drivers/STM32F0xx_HAL_Driver/Src/stm32f0xx_ll_usb.c ****             pmabuffer = ep->pmaaddr1;
 2893              		.loc 1 460 13 is_stmt 1 discriminator 18 view .LVU891
 461:Drivers/STM32F0xx_HAL_Driver/Src/stm32f0xx_ll_usb.c **** 
 2894              		.loc 1 461 13 view .LVU892
 461:Drivers/STM32F0xx_HAL_Driver/Src/stm32f0xx_ll_usb.c **** 
 2895              		.loc 1 461 23 is_stmt 0 view .LVU893
 2896 0198 6289     		ldrh	r2, [r4, #10]
 2897              	.LVL303:
 464:Drivers/STM32F0xx_HAL_Driver/Src/stm32f0xx_ll_usb.c ****             ep->xfer_buff += len;
 2898              		.loc 1 464 13 is_stmt 1 view .LVU894
 2899 019a B3B2     		uxth	r3, r6
 2900 019c 6169     		ldr	r1, [r4, #20]
 2901 019e 2800     		movs	r0, r5
 2902              	.LVL304:
 464:Drivers/STM32F0xx_HAL_Driver/Src/stm32f0xx_ll_usb.c ****             ep->xfer_buff += len;
 2903              		.loc 1 464 13 is_stmt 0 view .LVU895
 2904 01a0 FFF7FEFF 		bl	USB_WritePMA
 2905              	.LVL305:
 465:Drivers/STM32F0xx_HAL_Driver/Src/stm32f0xx_ll_usb.c **** 
 2906              		.loc 1 465 13 is_stmt 1 view .LVU896
 465:Drivers/STM32F0xx_HAL_Driver/Src/stm32f0xx_ll_usb.c **** 
 2907              		.loc 1 465 15 is_stmt 0 view .LVU897
 2908 01a4 6369     		ldr	r3, [r4, #20]
 465:Drivers/STM32F0xx_HAL_Driver/Src/stm32f0xx_ll_usb.c **** 
 2909              		.loc 1 465 27 view .LVU898
 2910 01a6 9B19     		adds	r3, r3, r6
 2911 01a8 6361     		str	r3, [r4, #20]
 467:Drivers/STM32F0xx_HAL_Driver/Src/stm32f0xx_ll_usb.c ****             {
 2912              		.loc 1 467 13 is_stmt 1 view .LVU899
 467:Drivers/STM32F0xx_HAL_Driver/Src/stm32f0xx_ll_usb.c ****             {
 2913              		.loc 1 467 19 is_stmt 0 view .LVU900
 2914 01aa 236A     		ldr	r3, [r4, #32]
 467:Drivers/STM32F0xx_HAL_Driver/Src/stm32f0xx_ll_usb.c ****             {
 2915              		.loc 1 467 37 view .LVU901
 2916 01ac 2269     		ldr	r2, [r4, #16]
 467:Drivers/STM32F0xx_HAL_Driver/Src/stm32f0xx_ll_usb.c ****             {
 2917              		.loc 1 467 16 view .LVU902
 2918 01ae 9342     		cmp	r3, r2
 2919 01b0 24D9     		bls	.L121
 469:Drivers/STM32F0xx_HAL_Driver/Src/stm32f0xx_ll_usb.c ****             }
 2920              		.loc 1 469 15 is_stmt 1 view .LVU903
 469:Drivers/STM32F0xx_HAL_Driver/Src/stm32f0xx_ll_usb.c ****             }
 2921              		.loc 1 469 31 is_stmt 0 view .LVU904
 2922 01b2 9B1B     		subs	r3, r3, r6
 2923 01b4 2362     		str	r3, [r4, #32]
 2924              	.L122:
 478:Drivers/STM32F0xx_HAL_Driver/Src/stm32f0xx_ll_usb.c ****             pmabuffer = ep->pmaaddr0;
 2925              		.loc 1 478 13 is_stmt 1 view .LVU905
 478:Drivers/STM32F0xx_HAL_Driver/Src/stm32f0xx_ll_usb.c ****             pmabuffer = ep->pmaaddr0;
ARM GAS  /tmp/cceQvfFh.s 			page 74


 2926              		.loc 1 478 13 view .LVU906
 2927 01b6 6378     		ldrb	r3, [r4, #1]
 2928 01b8 002B     		cmp	r3, #0
 2929 01ba 3CD1     		bne	.L123
 478:Drivers/STM32F0xx_HAL_Driver/Src/stm32f0xx_ll_usb.c ****             pmabuffer = ep->pmaaddr0;
 2930              		.loc 1 478 13 discriminator 1 view .LVU907
 2931              	.LBB81:
 478:Drivers/STM32F0xx_HAL_Driver/Src/stm32f0xx_ll_usb.c ****             pmabuffer = ep->pmaaddr0;
 2932              		.loc 1 478 13 discriminator 1 view .LVU908
 2933              	.LVL306:
 478:Drivers/STM32F0xx_HAL_Driver/Src/stm32f0xx_ll_usb.c ****             pmabuffer = ep->pmaaddr0;
 2934              		.loc 1 478 13 view .LVU909
 478:Drivers/STM32F0xx_HAL_Driver/Src/stm32f0xx_ll_usb.c ****             pmabuffer = ep->pmaaddr0;
 2935              		.loc 1 478 13 view .LVU910
 478:Drivers/STM32F0xx_HAL_Driver/Src/stm32f0xx_ll_usb.c ****             pmabuffer = ep->pmaaddr0;
 2936              		.loc 1 478 13 is_stmt 0 discriminator 1 view .LVU911
 2937 01bc 5033     		adds	r3, r3, #80
 2938 01be EA5A     		ldrh	r2, [r5, r3]
 2939 01c0 AA18     		adds	r2, r5, r2
 2940              	.LVL307:
 478:Drivers/STM32F0xx_HAL_Driver/Src/stm32f0xx_ll_usb.c ****             pmabuffer = ep->pmaaddr0;
 2941              		.loc 1 478 13 is_stmt 1 view .LVU912
 478:Drivers/STM32F0xx_HAL_Driver/Src/stm32f0xx_ll_usb.c ****             pmabuffer = ep->pmaaddr0;
 2942              		.loc 1 478 13 is_stmt 0 discriminator 1 view .LVU913
 2943 01c2 2378     		ldrb	r3, [r4]
 2944 01c4 DB00     		lsls	r3, r3, #3
 2945 01c6 9B18     		adds	r3, r3, r2
 2946 01c8 564A     		ldr	r2, .L222+16
 2947              	.LVL308:
 478:Drivers/STM32F0xx_HAL_Driver/Src/stm32f0xx_ll_usb.c ****             pmabuffer = ep->pmaaddr0;
 2948              		.loc 1 478 13 discriminator 1 view .LVU914
 2949 01ca 9446     		mov	ip, r2
 2950 01cc 6344     		add	r3, r3, ip
 2951              	.LVL309:
 478:Drivers/STM32F0xx_HAL_Driver/Src/stm32f0xx_ll_usb.c ****             pmabuffer = ep->pmaaddr0;
 2952              		.loc 1 478 13 is_stmt 1 view .LVU915
 2953              	.LBB82:
 478:Drivers/STM32F0xx_HAL_Driver/Src/stm32f0xx_ll_usb.c ****             pmabuffer = ep->pmaaddr0;
 2954              		.loc 1 478 13 view .LVU916
 478:Drivers/STM32F0xx_HAL_Driver/Src/stm32f0xx_ll_usb.c ****             pmabuffer = ep->pmaaddr0;
 2955              		.loc 1 478 13 view .LVU917
 478:Drivers/STM32F0xx_HAL_Driver/Src/stm32f0xx_ll_usb.c ****             pmabuffer = ep->pmaaddr0;
 2956              		.loc 1 478 13 is_stmt 0 discriminator 1 view .LVU918
 2957 01ce 1A88     		ldrh	r2, [r3]
 2958 01d0 9205     		lsls	r2, r2, #22
 2959 01d2 920D     		lsrs	r2, r2, #22
 2960 01d4 1A80     		strh	r2, [r3]
 478:Drivers/STM32F0xx_HAL_Driver/Src/stm32f0xx_ll_usb.c ****             pmabuffer = ep->pmaaddr0;
 2961              		.loc 1 478 13 is_stmt 1 view .LVU919
 478:Drivers/STM32F0xx_HAL_Driver/Src/stm32f0xx_ll_usb.c ****             pmabuffer = ep->pmaaddr0;
 2962              		.loc 1 478 13 is_stmt 0 discriminator 1 view .LVU920
 2963 01d6 002E     		cmp	r6, #0
 2964 01d8 14D1     		bne	.L124
 478:Drivers/STM32F0xx_HAL_Driver/Src/stm32f0xx_ll_usb.c ****             pmabuffer = ep->pmaaddr0;
 2965              		.loc 1 478 13 is_stmt 1 discriminator 3 view .LVU921
 2966 01da 1A88     		ldrh	r2, [r3]
 2967 01dc 4E49     		ldr	r1, .L222+4
ARM GAS  /tmp/cceQvfFh.s 			page 75


 2968 01de 0A43     		orrs	r2, r1
 2969 01e0 92B2     		uxth	r2, r2
 2970 01e2 1A80     		strh	r2, [r3]
 2971 01e4 29E0     		b	.L125
 2972              	.LVL310:
 2973              	.L216:
 478:Drivers/STM32F0xx_HAL_Driver/Src/stm32f0xx_ll_usb.c ****             pmabuffer = ep->pmaaddr0;
 2974              		.loc 1 478 13 is_stmt 0 discriminator 3 view .LVU922
 2975              	.LBE82:
 2976              	.LBE81:
 2977              	.LBB84:
 460:Drivers/STM32F0xx_HAL_Driver/Src/stm32f0xx_ll_usb.c ****             pmabuffer = ep->pmaaddr1;
 2978              		.loc 1 460 13 is_stmt 1 discriminator 16 view .LVU923
 2979 01e6 4F32     		adds	r2, r2, #79
 2980 01e8 AA5A     		ldrh	r2, [r5, r2]
 2981 01ea AA18     		adds	r2, r5, r2
 2982              	.LVL311:
 460:Drivers/STM32F0xx_HAL_Driver/Src/stm32f0xx_ll_usb.c ****             pmabuffer = ep->pmaaddr1;
 2983              		.loc 1 460 13 view .LVU924
 460:Drivers/STM32F0xx_HAL_Driver/Src/stm32f0xx_ll_usb.c ****             pmabuffer = ep->pmaaddr1;
 2984              		.loc 1 460 13 is_stmt 0 discriminator 16 view .LVU925
 2985 01ec DB00     		lsls	r3, r3, #3
 2986 01ee 9B18     		adds	r3, r3, r2
 2987 01f0 484A     		ldr	r2, .L222
 2988              	.LVL312:
 460:Drivers/STM32F0xx_HAL_Driver/Src/stm32f0xx_ll_usb.c ****             pmabuffer = ep->pmaaddr1;
 2989              		.loc 1 460 13 discriminator 16 view .LVU926
 2990 01f2 9446     		mov	ip, r2
 2991 01f4 6344     		add	r3, r3, ip
 2992              	.LVL313:
 460:Drivers/STM32F0xx_HAL_Driver/Src/stm32f0xx_ll_usb.c ****             pmabuffer = ep->pmaaddr1;
 2993              		.loc 1 460 13 is_stmt 1 view .LVU927
 460:Drivers/STM32F0xx_HAL_Driver/Src/stm32f0xx_ll_usb.c ****             pmabuffer = ep->pmaaddr1;
 2994              		.loc 1 460 13 is_stmt 0 discriminator 16 view .LVU928
 2995 01f6 B2B2     		uxth	r2, r6
 2996 01f8 1A80     		strh	r2, [r3]
 2997 01fa CDE7     		b	.L117
 2998              	.LVL314:
 2999              	.L121:
 460:Drivers/STM32F0xx_HAL_Driver/Src/stm32f0xx_ll_usb.c ****             pmabuffer = ep->pmaaddr1;
 3000              		.loc 1 460 13 discriminator 16 view .LVU929
 3001              	.LBE84:
 473:Drivers/STM32F0xx_HAL_Driver/Src/stm32f0xx_ll_usb.c ****               ep->xfer_len_db = 0U;
 3002              		.loc 1 473 15 is_stmt 1 view .LVU930
 474:Drivers/STM32F0xx_HAL_Driver/Src/stm32f0xx_ll_usb.c ****             }
 3003              		.loc 1 474 15 view .LVU931
 474:Drivers/STM32F0xx_HAL_Driver/Src/stm32f0xx_ll_usb.c ****             }
 3004              		.loc 1 474 31 is_stmt 0 view .LVU932
 3005 01fc 0022     		movs	r2, #0
 3006 01fe 2262     		str	r2, [r4, #32]
 473:Drivers/STM32F0xx_HAL_Driver/Src/stm32f0xx_ll_usb.c ****               ep->xfer_len_db = 0U;
 3007              		.loc 1 473 19 view .LVU933
 3008 0200 1E00     		movs	r6, r3
 3009 0202 D8E7     		b	.L122
 3010              	.LVL315:
 3011              	.L124:
 3012              	.LBB85:
ARM GAS  /tmp/cceQvfFh.s 			page 76


 3013              	.LBB83:
 478:Drivers/STM32F0xx_HAL_Driver/Src/stm32f0xx_ll_usb.c ****             pmabuffer = ep->pmaaddr0;
 3014              		.loc 1 478 13 is_stmt 1 discriminator 4 view .LVU934
 3015 0204 3E2E     		cmp	r6, #62
 3016 0206 09D8     		bhi	.L126
 478:Drivers/STM32F0xx_HAL_Driver/Src/stm32f0xx_ll_usb.c ****             pmabuffer = ep->pmaaddr0;
 3017              		.loc 1 478 13 discriminator 6 view .LVU935
 478:Drivers/STM32F0xx_HAL_Driver/Src/stm32f0xx_ll_usb.c ****             pmabuffer = ep->pmaaddr0;
 3018              		.loc 1 478 13 discriminator 6 view .LVU936
 3019 0208 7208     		lsrs	r2, r6, #1
 3020              	.LVL316:
 478:Drivers/STM32F0xx_HAL_Driver/Src/stm32f0xx_ll_usb.c ****             pmabuffer = ep->pmaaddr0;
 3021              		.loc 1 478 13 view .LVU937
 478:Drivers/STM32F0xx_HAL_Driver/Src/stm32f0xx_ll_usb.c ****             pmabuffer = ep->pmaaddr0;
 3022              		.loc 1 478 13 is_stmt 0 discriminator 6 view .LVU938
 3023 020a F107     		lsls	r1, r6, #31
 3024 020c 00D5     		bpl	.L127
 478:Drivers/STM32F0xx_HAL_Driver/Src/stm32f0xx_ll_usb.c ****             pmabuffer = ep->pmaaddr0;
 3025              		.loc 1 478 13 is_stmt 1 discriminator 8 view .LVU939
 3026 020e 0132     		adds	r2, r2, #1
 3027              	.LVL317:
 3028              	.L127:
 478:Drivers/STM32F0xx_HAL_Driver/Src/stm32f0xx_ll_usb.c ****             pmabuffer = ep->pmaaddr0;
 3029              		.loc 1 478 13 discriminator 10 view .LVU940
 3030 0210 1988     		ldrh	r1, [r3]
 3031 0212 9202     		lsls	r2, r2, #10
 3032              	.LVL318:
 478:Drivers/STM32F0xx_HAL_Driver/Src/stm32f0xx_ll_usb.c ****             pmabuffer = ep->pmaaddr0;
 3033              		.loc 1 478 13 is_stmt 0 discriminator 10 view .LVU941
 3034 0214 92B2     		uxth	r2, r2
 3035 0216 0A43     		orrs	r2, r1
 3036 0218 1A80     		strh	r2, [r3]
 478:Drivers/STM32F0xx_HAL_Driver/Src/stm32f0xx_ll_usb.c ****             pmabuffer = ep->pmaaddr0;
 3037              		.loc 1 478 13 is_stmt 1 view .LVU942
 3038 021a 0EE0     		b	.L125
 3039              	.LVL319:
 3040              	.L126:
 478:Drivers/STM32F0xx_HAL_Driver/Src/stm32f0xx_ll_usb.c ****             pmabuffer = ep->pmaaddr0;
 3041              		.loc 1 478 13 discriminator 7 view .LVU943
 478:Drivers/STM32F0xx_HAL_Driver/Src/stm32f0xx_ll_usb.c ****             pmabuffer = ep->pmaaddr0;
 3042              		.loc 1 478 13 discriminator 7 view .LVU944
 3043 021c 7209     		lsrs	r2, r6, #5
 3044              	.LVL320:
 478:Drivers/STM32F0xx_HAL_Driver/Src/stm32f0xx_ll_usb.c ****             pmabuffer = ep->pmaaddr0;
 3045              		.loc 1 478 13 view .LVU945
 478:Drivers/STM32F0xx_HAL_Driver/Src/stm32f0xx_ll_usb.c ****             pmabuffer = ep->pmaaddr0;
 3046              		.loc 1 478 13 is_stmt 0 discriminator 7 view .LVU946
 3047 021e F106     		lsls	r1, r6, #27
 3048 0220 00D1     		bne	.L128
 478:Drivers/STM32F0xx_HAL_Driver/Src/stm32f0xx_ll_usb.c ****             pmabuffer = ep->pmaaddr0;
 3049              		.loc 1 478 13 is_stmt 1 discriminator 12 view .LVU947
 3050 0222 013A     		subs	r2, r2, #1
 3051              	.LVL321:
 3052              	.L128:
 478:Drivers/STM32F0xx_HAL_Driver/Src/stm32f0xx_ll_usb.c ****             pmabuffer = ep->pmaaddr0;
 3053              		.loc 1 478 13 discriminator 14 view .LVU948
 3054 0224 1988     		ldrh	r1, [r3]
ARM GAS  /tmp/cceQvfFh.s 			page 77


 3055 0226 9202     		lsls	r2, r2, #10
 3056              	.LVL322:
 478:Drivers/STM32F0xx_HAL_Driver/Src/stm32f0xx_ll_usb.c ****             pmabuffer = ep->pmaaddr0;
 3057              		.loc 1 478 13 is_stmt 0 discriminator 14 view .LVU949
 3058 0228 92B2     		uxth	r2, r2
 3059 022a 1143     		orrs	r1, r2
 3060 022c 3A4A     		ldr	r2, .L222+4
 3061 022e 0A43     		orrs	r2, r1
 3062 0230 92B2     		uxth	r2, r2
 3063 0232 1A80     		strh	r2, [r3]
 3064 0234 01E0     		b	.L125
 3065              	.LVL323:
 3066              	.L123:
 478:Drivers/STM32F0xx_HAL_Driver/Src/stm32f0xx_ll_usb.c ****             pmabuffer = ep->pmaaddr0;
 3067              		.loc 1 478 13 discriminator 14 view .LVU950
 3068              	.LBE83:
 3069              	.LBE85:
 478:Drivers/STM32F0xx_HAL_Driver/Src/stm32f0xx_ll_usb.c ****             pmabuffer = ep->pmaaddr0;
 3070              		.loc 1 478 13 is_stmt 1 discriminator 2 view .LVU951
 3071 0236 012B     		cmp	r3, #1
 3072 0238 06D0     		beq	.L217
 3073              	.L125:
 478:Drivers/STM32F0xx_HAL_Driver/Src/stm32f0xx_ll_usb.c ****             pmabuffer = ep->pmaaddr0;
 3074              		.loc 1 478 13 discriminator 18 view .LVU952
 478:Drivers/STM32F0xx_HAL_Driver/Src/stm32f0xx_ll_usb.c ****             pmabuffer = ep->pmaaddr0;
 3075              		.loc 1 478 13 discriminator 18 view .LVU953
 479:Drivers/STM32F0xx_HAL_Driver/Src/stm32f0xx_ll_usb.c **** 
 3076              		.loc 1 479 13 view .LVU954
 479:Drivers/STM32F0xx_HAL_Driver/Src/stm32f0xx_ll_usb.c **** 
 3077              		.loc 1 479 23 is_stmt 0 view .LVU955
 3078 023a 2289     		ldrh	r2, [r4, #8]
 3079              	.LVL324:
 482:Drivers/STM32F0xx_HAL_Driver/Src/stm32f0xx_ll_usb.c ****           }
 3080              		.loc 1 482 13 is_stmt 1 view .LVU956
 3081 023c B3B2     		uxth	r3, r6
 3082 023e 6169     		ldr	r1, [r4, #20]
 3083 0240 2800     		movs	r0, r5
 3084 0242 FFF7FEFF 		bl	USB_WritePMA
 3085              	.LVL325:
 482:Drivers/STM32F0xx_HAL_Driver/Src/stm32f0xx_ll_usb.c ****           }
 3086              		.loc 1 482 13 is_stmt 0 view .LVU957
 3087 0246 4EE7     		b	.L111
 3088              	.L217:
 478:Drivers/STM32F0xx_HAL_Driver/Src/stm32f0xx_ll_usb.c ****             pmabuffer = ep->pmaaddr0;
 3089              		.loc 1 478 13 is_stmt 1 discriminator 16 view .LVU958
 3090              	.LBB86:
 478:Drivers/STM32F0xx_HAL_Driver/Src/stm32f0xx_ll_usb.c ****             pmabuffer = ep->pmaaddr0;
 3091              		.loc 1 478 13 discriminator 16 view .LVU959
 3092              	.LVL326:
 478:Drivers/STM32F0xx_HAL_Driver/Src/stm32f0xx_ll_usb.c ****             pmabuffer = ep->pmaaddr0;
 3093              		.loc 1 478 13 view .LVU960
 478:Drivers/STM32F0xx_HAL_Driver/Src/stm32f0xx_ll_usb.c ****             pmabuffer = ep->pmaaddr0;
 3094              		.loc 1 478 13 view .LVU961
 478:Drivers/STM32F0xx_HAL_Driver/Src/stm32f0xx_ll_usb.c ****             pmabuffer = ep->pmaaddr0;
 3095              		.loc 1 478 13 is_stmt 0 discriminator 16 view .LVU962
 3096 0248 4F33     		adds	r3, r3, #79
 3097 024a EA5A     		ldrh	r2, [r5, r3]
ARM GAS  /tmp/cceQvfFh.s 			page 78


 3098 024c AA18     		adds	r2, r5, r2
 3099              	.LVL327:
 478:Drivers/STM32F0xx_HAL_Driver/Src/stm32f0xx_ll_usb.c ****             pmabuffer = ep->pmaaddr0;
 3100              		.loc 1 478 13 is_stmt 1 view .LVU963
 478:Drivers/STM32F0xx_HAL_Driver/Src/stm32f0xx_ll_usb.c ****             pmabuffer = ep->pmaaddr0;
 3101              		.loc 1 478 13 is_stmt 0 discriminator 16 view .LVU964
 3102 024e 2378     		ldrb	r3, [r4]
 3103 0250 DB00     		lsls	r3, r3, #3
 3104 0252 9B18     		adds	r3, r3, r2
 3105 0254 334A     		ldr	r2, .L222+16
 3106              	.LVL328:
 478:Drivers/STM32F0xx_HAL_Driver/Src/stm32f0xx_ll_usb.c ****             pmabuffer = ep->pmaaddr0;
 3107              		.loc 1 478 13 discriminator 16 view .LVU965
 3108 0256 9446     		mov	ip, r2
 3109 0258 6344     		add	r3, r3, ip
 3110              	.LVL329:
 478:Drivers/STM32F0xx_HAL_Driver/Src/stm32f0xx_ll_usb.c ****             pmabuffer = ep->pmaaddr0;
 3111              		.loc 1 478 13 is_stmt 1 view .LVU966
 478:Drivers/STM32F0xx_HAL_Driver/Src/stm32f0xx_ll_usb.c ****             pmabuffer = ep->pmaaddr0;
 3112              		.loc 1 478 13 is_stmt 0 discriminator 16 view .LVU967
 3113 025a B2B2     		uxth	r2, r6
 3114 025c 1A80     		strh	r2, [r3]
 3115 025e ECE7     		b	.L125
 3116              	.LVL330:
 3117              	.L114:
 478:Drivers/STM32F0xx_HAL_Driver/Src/stm32f0xx_ll_usb.c ****             pmabuffer = ep->pmaaddr0;
 3118              		.loc 1 478 13 discriminator 16 view .LVU968
 3119              	.LBE86:
 487:Drivers/STM32F0xx_HAL_Driver/Src/stm32f0xx_ll_usb.c ****             pmabuffer = ep->pmaaddr0;
 3120              		.loc 1 487 13 is_stmt 1 view .LVU969
 487:Drivers/STM32F0xx_HAL_Driver/Src/stm32f0xx_ll_usb.c ****             pmabuffer = ep->pmaaddr0;
 3121              		.loc 1 487 13 view .LVU970
 3122 0260 6278     		ldrb	r2, [r4, #1]
 3123 0262 002A     		cmp	r2, #0
 3124 0264 2CD1     		bne	.L129
 487:Drivers/STM32F0xx_HAL_Driver/Src/stm32f0xx_ll_usb.c ****             pmabuffer = ep->pmaaddr0;
 3125              		.loc 1 487 13 discriminator 1 view .LVU971
 3126              	.LBB87:
 487:Drivers/STM32F0xx_HAL_Driver/Src/stm32f0xx_ll_usb.c ****             pmabuffer = ep->pmaaddr0;
 3127              		.loc 1 487 13 discriminator 1 view .LVU972
 3128              	.LVL331:
 487:Drivers/STM32F0xx_HAL_Driver/Src/stm32f0xx_ll_usb.c ****             pmabuffer = ep->pmaaddr0;
 3129              		.loc 1 487 13 view .LVU973
 487:Drivers/STM32F0xx_HAL_Driver/Src/stm32f0xx_ll_usb.c ****             pmabuffer = ep->pmaaddr0;
 3130              		.loc 1 487 13 view .LVU974
 487:Drivers/STM32F0xx_HAL_Driver/Src/stm32f0xx_ll_usb.c ****             pmabuffer = ep->pmaaddr0;
 3131              		.loc 1 487 13 is_stmt 0 discriminator 1 view .LVU975
 3132 0266 5032     		adds	r2, r2, #80
 3133 0268 A95A     		ldrh	r1, [r5, r2]
 3134              	.LVL332:
 487:Drivers/STM32F0xx_HAL_Driver/Src/stm32f0xx_ll_usb.c ****             pmabuffer = ep->pmaaddr0;
 3135              		.loc 1 487 13 discriminator 1 view .LVU976
 3136 026a 6918     		adds	r1, r5, r1
 3137              	.LVL333:
 487:Drivers/STM32F0xx_HAL_Driver/Src/stm32f0xx_ll_usb.c ****             pmabuffer = ep->pmaaddr0;
 3138              		.loc 1 487 13 is_stmt 1 view .LVU977
 487:Drivers/STM32F0xx_HAL_Driver/Src/stm32f0xx_ll_usb.c ****             pmabuffer = ep->pmaaddr0;
ARM GAS  /tmp/cceQvfFh.s 			page 79


 3139              		.loc 1 487 13 is_stmt 0 discriminator 1 view .LVU978
 3140 026c DA00     		lsls	r2, r3, #3
 3141 026e 5218     		adds	r2, r2, r1
 3142 0270 2C4B     		ldr	r3, .L222+16
 3143 0272 9C46     		mov	ip, r3
 3144 0274 6244     		add	r2, r2, ip
 3145              	.LVL334:
 487:Drivers/STM32F0xx_HAL_Driver/Src/stm32f0xx_ll_usb.c ****             pmabuffer = ep->pmaaddr0;
 3146              		.loc 1 487 13 is_stmt 1 view .LVU979
 3147              	.LBB88:
 487:Drivers/STM32F0xx_HAL_Driver/Src/stm32f0xx_ll_usb.c ****             pmabuffer = ep->pmaaddr0;
 3148              		.loc 1 487 13 view .LVU980
 487:Drivers/STM32F0xx_HAL_Driver/Src/stm32f0xx_ll_usb.c ****             pmabuffer = ep->pmaaddr0;
 3149              		.loc 1 487 13 view .LVU981
 487:Drivers/STM32F0xx_HAL_Driver/Src/stm32f0xx_ll_usb.c ****             pmabuffer = ep->pmaaddr0;
 3150              		.loc 1 487 13 is_stmt 0 discriminator 1 view .LVU982
 3151 0276 1388     		ldrh	r3, [r2]
 3152 0278 9B05     		lsls	r3, r3, #22
 3153 027a 9B0D     		lsrs	r3, r3, #22
 3154 027c 1380     		strh	r3, [r2]
 487:Drivers/STM32F0xx_HAL_Driver/Src/stm32f0xx_ll_usb.c ****             pmabuffer = ep->pmaaddr0;
 3155              		.loc 1 487 13 is_stmt 1 view .LVU983
 487:Drivers/STM32F0xx_HAL_Driver/Src/stm32f0xx_ll_usb.c ****             pmabuffer = ep->pmaaddr0;
 3156              		.loc 1 487 13 is_stmt 0 discriminator 1 view .LVU984
 3157 027e 002E     		cmp	r6, #0
 3158 0280 05D1     		bne	.L130
 487:Drivers/STM32F0xx_HAL_Driver/Src/stm32f0xx_ll_usb.c ****             pmabuffer = ep->pmaaddr0;
 3159              		.loc 1 487 13 is_stmt 1 discriminator 3 view .LVU985
 3160 0282 1388     		ldrh	r3, [r2]
 3161 0284 2449     		ldr	r1, .L222+4
 3162              	.LVL335:
 487:Drivers/STM32F0xx_HAL_Driver/Src/stm32f0xx_ll_usb.c ****             pmabuffer = ep->pmaaddr0;
 3163              		.loc 1 487 13 is_stmt 0 discriminator 3 view .LVU986
 3164 0286 0B43     		orrs	r3, r1
 3165 0288 9BB2     		uxth	r3, r3
 3166 028a 1380     		strh	r3, [r2]
 3167 028c 1AE0     		b	.L131
 3168              	.LVL336:
 3169              	.L130:
 487:Drivers/STM32F0xx_HAL_Driver/Src/stm32f0xx_ll_usb.c ****             pmabuffer = ep->pmaaddr0;
 3170              		.loc 1 487 13 is_stmt 1 discriminator 4 view .LVU987
 3171 028e 3E2E     		cmp	r6, #62
 3172 0290 09D8     		bhi	.L132
 487:Drivers/STM32F0xx_HAL_Driver/Src/stm32f0xx_ll_usb.c ****             pmabuffer = ep->pmaaddr0;
 3173              		.loc 1 487 13 discriminator 6 view .LVU988
 487:Drivers/STM32F0xx_HAL_Driver/Src/stm32f0xx_ll_usb.c ****             pmabuffer = ep->pmaaddr0;
 3174              		.loc 1 487 13 discriminator 6 view .LVU989
 3175 0292 7308     		lsrs	r3, r6, #1
 3176              	.LVL337:
 487:Drivers/STM32F0xx_HAL_Driver/Src/stm32f0xx_ll_usb.c ****             pmabuffer = ep->pmaaddr0;
 3177              		.loc 1 487 13 view .LVU990
 487:Drivers/STM32F0xx_HAL_Driver/Src/stm32f0xx_ll_usb.c ****             pmabuffer = ep->pmaaddr0;
 3178              		.loc 1 487 13 is_stmt 0 discriminator 6 view .LVU991
 3179 0294 F107     		lsls	r1, r6, #31
 3180 0296 00D5     		bpl	.L133
 3181              	.LVL338:
 487:Drivers/STM32F0xx_HAL_Driver/Src/stm32f0xx_ll_usb.c ****             pmabuffer = ep->pmaaddr0;
ARM GAS  /tmp/cceQvfFh.s 			page 80


 3182              		.loc 1 487 13 is_stmt 1 discriminator 8 view .LVU992
 3183 0298 0133     		adds	r3, r3, #1
 3184              	.LVL339:
 3185              	.L133:
 487:Drivers/STM32F0xx_HAL_Driver/Src/stm32f0xx_ll_usb.c ****             pmabuffer = ep->pmaaddr0;
 3186              		.loc 1 487 13 discriminator 10 view .LVU993
 3187 029a 1188     		ldrh	r1, [r2]
 3188 029c 9B02     		lsls	r3, r3, #10
 3189              	.LVL340:
 487:Drivers/STM32F0xx_HAL_Driver/Src/stm32f0xx_ll_usb.c ****             pmabuffer = ep->pmaaddr0;
 3190              		.loc 1 487 13 is_stmt 0 discriminator 10 view .LVU994
 3191 029e 9BB2     		uxth	r3, r3
 3192 02a0 0B43     		orrs	r3, r1
 3193 02a2 1380     		strh	r3, [r2]
 487:Drivers/STM32F0xx_HAL_Driver/Src/stm32f0xx_ll_usb.c ****             pmabuffer = ep->pmaaddr0;
 3194              		.loc 1 487 13 is_stmt 1 view .LVU995
 3195 02a4 0EE0     		b	.L131
 3196              	.LVL341:
 3197              	.L132:
 487:Drivers/STM32F0xx_HAL_Driver/Src/stm32f0xx_ll_usb.c ****             pmabuffer = ep->pmaaddr0;
 3198              		.loc 1 487 13 discriminator 7 view .LVU996
 487:Drivers/STM32F0xx_HAL_Driver/Src/stm32f0xx_ll_usb.c ****             pmabuffer = ep->pmaaddr0;
 3199              		.loc 1 487 13 discriminator 7 view .LVU997
 3200 02a6 7309     		lsrs	r3, r6, #5
 3201              	.LVL342:
 487:Drivers/STM32F0xx_HAL_Driver/Src/stm32f0xx_ll_usb.c ****             pmabuffer = ep->pmaaddr0;
 3202              		.loc 1 487 13 view .LVU998
 487:Drivers/STM32F0xx_HAL_Driver/Src/stm32f0xx_ll_usb.c ****             pmabuffer = ep->pmaaddr0;
 3203              		.loc 1 487 13 is_stmt 0 discriminator 7 view .LVU999
 3204 02a8 F106     		lsls	r1, r6, #27
 3205 02aa 00D1     		bne	.L134
 3206              	.LVL343:
 487:Drivers/STM32F0xx_HAL_Driver/Src/stm32f0xx_ll_usb.c ****             pmabuffer = ep->pmaaddr0;
 3207              		.loc 1 487 13 is_stmt 1 discriminator 12 view .LVU1000
 3208 02ac 013B     		subs	r3, r3, #1
 3209              	.LVL344:
 3210              	.L134:
 487:Drivers/STM32F0xx_HAL_Driver/Src/stm32f0xx_ll_usb.c ****             pmabuffer = ep->pmaaddr0;
 3211              		.loc 1 487 13 discriminator 14 view .LVU1001
 3212 02ae 1188     		ldrh	r1, [r2]
 3213 02b0 9B02     		lsls	r3, r3, #10
 3214              	.LVL345:
 487:Drivers/STM32F0xx_HAL_Driver/Src/stm32f0xx_ll_usb.c ****             pmabuffer = ep->pmaaddr0;
 3215              		.loc 1 487 13 is_stmt 0 discriminator 14 view .LVU1002
 3216 02b2 9BB2     		uxth	r3, r3
 3217 02b4 1943     		orrs	r1, r3
 3218 02b6 184B     		ldr	r3, .L222+4
 3219 02b8 0B43     		orrs	r3, r1
 3220 02ba 9BB2     		uxth	r3, r3
 3221 02bc 1380     		strh	r3, [r2]
 3222 02be 01E0     		b	.L131
 3223              	.LVL346:
 3224              	.L129:
 487:Drivers/STM32F0xx_HAL_Driver/Src/stm32f0xx_ll_usb.c ****             pmabuffer = ep->pmaaddr0;
 3225              		.loc 1 487 13 discriminator 14 view .LVU1003
 3226              	.LBE88:
 3227              	.LBE87:
ARM GAS  /tmp/cceQvfFh.s 			page 81


 487:Drivers/STM32F0xx_HAL_Driver/Src/stm32f0xx_ll_usb.c ****             pmabuffer = ep->pmaaddr0;
 3228              		.loc 1 487 13 is_stmt 1 discriminator 2 view .LVU1004
 3229 02c0 012A     		cmp	r2, #1
 3230 02c2 37D0     		beq	.L218
 3231              	.LVL347:
 3232              	.L131:
 487:Drivers/STM32F0xx_HAL_Driver/Src/stm32f0xx_ll_usb.c ****             pmabuffer = ep->pmaaddr0;
 3233              		.loc 1 487 13 discriminator 18 view .LVU1005
 487:Drivers/STM32F0xx_HAL_Driver/Src/stm32f0xx_ll_usb.c ****             pmabuffer = ep->pmaaddr0;
 3234              		.loc 1 487 13 discriminator 18 view .LVU1006
 488:Drivers/STM32F0xx_HAL_Driver/Src/stm32f0xx_ll_usb.c **** 
 3235              		.loc 1 488 13 view .LVU1007
 488:Drivers/STM32F0xx_HAL_Driver/Src/stm32f0xx_ll_usb.c **** 
 3236              		.loc 1 488 23 is_stmt 0 view .LVU1008
 3237 02c4 2289     		ldrh	r2, [r4, #8]
 3238              	.LVL348:
 491:Drivers/STM32F0xx_HAL_Driver/Src/stm32f0xx_ll_usb.c ****             ep->xfer_buff += len;
 3239              		.loc 1 491 13 is_stmt 1 view .LVU1009
 3240 02c6 B3B2     		uxth	r3, r6
 3241 02c8 6169     		ldr	r1, [r4, #20]
 3242 02ca 2800     		movs	r0, r5
 3243              	.LVL349:
 491:Drivers/STM32F0xx_HAL_Driver/Src/stm32f0xx_ll_usb.c ****             ep->xfer_buff += len;
 3244              		.loc 1 491 13 is_stmt 0 view .LVU1010
 3245 02cc FFF7FEFF 		bl	USB_WritePMA
 3246              	.LVL350:
 492:Drivers/STM32F0xx_HAL_Driver/Src/stm32f0xx_ll_usb.c **** 
 3247              		.loc 1 492 13 is_stmt 1 view .LVU1011
 492:Drivers/STM32F0xx_HAL_Driver/Src/stm32f0xx_ll_usb.c **** 
 3248              		.loc 1 492 15 is_stmt 0 view .LVU1012
 3249 02d0 6369     		ldr	r3, [r4, #20]
 492:Drivers/STM32F0xx_HAL_Driver/Src/stm32f0xx_ll_usb.c **** 
 3250              		.loc 1 492 27 view .LVU1013
 3251 02d2 9B19     		adds	r3, r3, r6
 3252 02d4 6361     		str	r3, [r4, #20]
 494:Drivers/STM32F0xx_HAL_Driver/Src/stm32f0xx_ll_usb.c ****             {
 3253              		.loc 1 494 13 is_stmt 1 view .LVU1014
 494:Drivers/STM32F0xx_HAL_Driver/Src/stm32f0xx_ll_usb.c ****             {
 3254              		.loc 1 494 19 is_stmt 0 view .LVU1015
 3255 02d6 236A     		ldr	r3, [r4, #32]
 494:Drivers/STM32F0xx_HAL_Driver/Src/stm32f0xx_ll_usb.c ****             {
 3256              		.loc 1 494 37 view .LVU1016
 3257 02d8 2269     		ldr	r2, [r4, #16]
 494:Drivers/STM32F0xx_HAL_Driver/Src/stm32f0xx_ll_usb.c ****             {
 3258              		.loc 1 494 16 view .LVU1017
 3259 02da 9342     		cmp	r3, r2
 3260 02dc 35D9     		bls	.L135
 496:Drivers/STM32F0xx_HAL_Driver/Src/stm32f0xx_ll_usb.c ****             }
 3261              		.loc 1 496 15 is_stmt 1 view .LVU1018
 496:Drivers/STM32F0xx_HAL_Driver/Src/stm32f0xx_ll_usb.c ****             }
 3262              		.loc 1 496 31 is_stmt 0 view .LVU1019
 3263 02de 9B1B     		subs	r3, r3, r6
 3264 02e0 2362     		str	r3, [r4, #32]
 3265              	.L136:
 505:Drivers/STM32F0xx_HAL_Driver/Src/stm32f0xx_ll_usb.c ****             pmabuffer = ep->pmaaddr1;
 3266              		.loc 1 505 13 is_stmt 1 view .LVU1020
 3267              	.LBB89:
ARM GAS  /tmp/cceQvfFh.s 			page 82


 505:Drivers/STM32F0xx_HAL_Driver/Src/stm32f0xx_ll_usb.c ****             pmabuffer = ep->pmaaddr1;
 3268              		.loc 1 505 13 view .LVU1021
 3269              	.LVL351:
 505:Drivers/STM32F0xx_HAL_Driver/Src/stm32f0xx_ll_usb.c ****             pmabuffer = ep->pmaaddr1;
 3270              		.loc 1 505 13 view .LVU1022
 505:Drivers/STM32F0xx_HAL_Driver/Src/stm32f0xx_ll_usb.c ****             pmabuffer = ep->pmaaddr1;
 3271              		.loc 1 505 13 view .LVU1023
 3272 02e2 6378     		ldrb	r3, [r4, #1]
 3273 02e4 002B     		cmp	r3, #0
 3274 02e6 4DD1     		bne	.L137
 505:Drivers/STM32F0xx_HAL_Driver/Src/stm32f0xx_ll_usb.c ****             pmabuffer = ep->pmaaddr1;
 3275              		.loc 1 505 13 discriminator 1 view .LVU1024
 3276              	.LBB90:
 505:Drivers/STM32F0xx_HAL_Driver/Src/stm32f0xx_ll_usb.c ****             pmabuffer = ep->pmaaddr1;
 3277              		.loc 1 505 13 discriminator 1 view .LVU1025
 3278              	.LVL352:
 505:Drivers/STM32F0xx_HAL_Driver/Src/stm32f0xx_ll_usb.c ****             pmabuffer = ep->pmaaddr1;
 3279              		.loc 1 505 13 view .LVU1026
 505:Drivers/STM32F0xx_HAL_Driver/Src/stm32f0xx_ll_usb.c ****             pmabuffer = ep->pmaaddr1;
 3280              		.loc 1 505 13 view .LVU1027
 505:Drivers/STM32F0xx_HAL_Driver/Src/stm32f0xx_ll_usb.c ****             pmabuffer = ep->pmaaddr1;
 3281              		.loc 1 505 13 is_stmt 0 discriminator 1 view .LVU1028
 3282 02e8 5033     		adds	r3, r3, #80
 3283 02ea EA5A     		ldrh	r2, [r5, r3]
 3284 02ec AA18     		adds	r2, r5, r2
 3285              	.LVL353:
 505:Drivers/STM32F0xx_HAL_Driver/Src/stm32f0xx_ll_usb.c ****             pmabuffer = ep->pmaaddr1;
 3286              		.loc 1 505 13 is_stmt 1 view .LVU1029
 505:Drivers/STM32F0xx_HAL_Driver/Src/stm32f0xx_ll_usb.c ****             pmabuffer = ep->pmaaddr1;
 3287              		.loc 1 505 13 is_stmt 0 discriminator 1 view .LVU1030
 3288 02ee 2378     		ldrb	r3, [r4]
 3289 02f0 DB00     		lsls	r3, r3, #3
 3290 02f2 9B18     		adds	r3, r3, r2
 3291 02f4 074A     		ldr	r2, .L222
 3292              	.LVL354:
 505:Drivers/STM32F0xx_HAL_Driver/Src/stm32f0xx_ll_usb.c ****             pmabuffer = ep->pmaaddr1;
 3293              		.loc 1 505 13 discriminator 1 view .LVU1031
 3294 02f6 9446     		mov	ip, r2
 3295 02f8 6344     		add	r3, r3, ip
 3296              	.LVL355:
 505:Drivers/STM32F0xx_HAL_Driver/Src/stm32f0xx_ll_usb.c ****             pmabuffer = ep->pmaaddr1;
 3297              		.loc 1 505 13 is_stmt 1 view .LVU1032
 3298              	.LBB91:
 505:Drivers/STM32F0xx_HAL_Driver/Src/stm32f0xx_ll_usb.c ****             pmabuffer = ep->pmaaddr1;
 3299              		.loc 1 505 13 view .LVU1033
 505:Drivers/STM32F0xx_HAL_Driver/Src/stm32f0xx_ll_usb.c ****             pmabuffer = ep->pmaaddr1;
 3300              		.loc 1 505 13 view .LVU1034
 505:Drivers/STM32F0xx_HAL_Driver/Src/stm32f0xx_ll_usb.c ****             pmabuffer = ep->pmaaddr1;
 3301              		.loc 1 505 13 is_stmt 0 discriminator 1 view .LVU1035
 3302 02fa 1A88     		ldrh	r2, [r3]
 3303 02fc 9205     		lsls	r2, r2, #22
 3304 02fe 920D     		lsrs	r2, r2, #22
 3305 0300 1A80     		strh	r2, [r3]
 505:Drivers/STM32F0xx_HAL_Driver/Src/stm32f0xx_ll_usb.c ****             pmabuffer = ep->pmaaddr1;
 3306              		.loc 1 505 13 is_stmt 1 view .LVU1036
 505:Drivers/STM32F0xx_HAL_Driver/Src/stm32f0xx_ll_usb.c ****             pmabuffer = ep->pmaaddr1;
 3307              		.loc 1 505 13 is_stmt 0 discriminator 1 view .LVU1037
ARM GAS  /tmp/cceQvfFh.s 			page 83


 3308 0302 002E     		cmp	r6, #0
 3309 0304 25D1     		bne	.L138
 505:Drivers/STM32F0xx_HAL_Driver/Src/stm32f0xx_ll_usb.c ****             pmabuffer = ep->pmaaddr1;
 3310              		.loc 1 505 13 is_stmt 1 discriminator 3 view .LVU1038
 3311 0306 1A88     		ldrh	r2, [r3]
 3312 0308 0349     		ldr	r1, .L222+4
 3313 030a 0A43     		orrs	r2, r1
 3314 030c 92B2     		uxth	r2, r2
 3315 030e 1A80     		strh	r2, [r3]
 3316 0310 3AE0     		b	.L139
 3317              	.L223:
 3318 0312 C046     		.align	2
 3319              	.L222:
 3320 0314 06040000 		.word	1030
 3321 0318 0080FFFF 		.word	-32768
 3322 031c 8FBFFFFF 		.word	-16497
 3323 0320 8080FFFF 		.word	-32640
 3324 0324 02040000 		.word	1026
 3325 0328 BF8FFFFF 		.word	-28737
 3326 032c 8F8FFFFF 		.word	-28785
 3327 0330 8081FFFF 		.word	-32384
 3328              	.LVL356:
 3329              	.L218:
 505:Drivers/STM32F0xx_HAL_Driver/Src/stm32f0xx_ll_usb.c ****             pmabuffer = ep->pmaaddr1;
 3330              		.loc 1 505 13 is_stmt 0 discriminator 3 view .LVU1039
 3331              	.LBE91:
 3332              	.LBE90:
 3333              	.LBE89:
 487:Drivers/STM32F0xx_HAL_Driver/Src/stm32f0xx_ll_usb.c ****             pmabuffer = ep->pmaaddr0;
 3334              		.loc 1 487 13 is_stmt 1 discriminator 16 view .LVU1040
 3335              	.LBB94:
 487:Drivers/STM32F0xx_HAL_Driver/Src/stm32f0xx_ll_usb.c ****             pmabuffer = ep->pmaaddr0;
 3336              		.loc 1 487 13 discriminator 16 view .LVU1041
 487:Drivers/STM32F0xx_HAL_Driver/Src/stm32f0xx_ll_usb.c ****             pmabuffer = ep->pmaaddr0;
 3337              		.loc 1 487 13 view .LVU1042
 487:Drivers/STM32F0xx_HAL_Driver/Src/stm32f0xx_ll_usb.c ****             pmabuffer = ep->pmaaddr0;
 3338              		.loc 1 487 13 view .LVU1043
 487:Drivers/STM32F0xx_HAL_Driver/Src/stm32f0xx_ll_usb.c ****             pmabuffer = ep->pmaaddr0;
 3339              		.loc 1 487 13 is_stmt 0 discriminator 16 view .LVU1044
 3340 0334 4F32     		adds	r2, r2, #79
 3341 0336 AA5A     		ldrh	r2, [r5, r2]
 3342 0338 AA18     		adds	r2, r5, r2
 3343              	.LVL357:
 487:Drivers/STM32F0xx_HAL_Driver/Src/stm32f0xx_ll_usb.c ****             pmabuffer = ep->pmaaddr0;
 3344              		.loc 1 487 13 is_stmt 1 view .LVU1045
 487:Drivers/STM32F0xx_HAL_Driver/Src/stm32f0xx_ll_usb.c ****             pmabuffer = ep->pmaaddr0;
 3345              		.loc 1 487 13 is_stmt 0 discriminator 16 view .LVU1046
 3346 033a DB00     		lsls	r3, r3, #3
 3347 033c 9B18     		adds	r3, r3, r2
 3348 033e BD4A     		ldr	r2, .L224
 3349              	.LVL358:
 487:Drivers/STM32F0xx_HAL_Driver/Src/stm32f0xx_ll_usb.c ****             pmabuffer = ep->pmaaddr0;
 3350              		.loc 1 487 13 discriminator 16 view .LVU1047
 3351 0340 9446     		mov	ip, r2
 3352 0342 6344     		add	r3, r3, ip
 3353              	.LVL359:
 487:Drivers/STM32F0xx_HAL_Driver/Src/stm32f0xx_ll_usb.c ****             pmabuffer = ep->pmaaddr0;
ARM GAS  /tmp/cceQvfFh.s 			page 84


 3354              		.loc 1 487 13 is_stmt 1 view .LVU1048
 487:Drivers/STM32F0xx_HAL_Driver/Src/stm32f0xx_ll_usb.c ****             pmabuffer = ep->pmaaddr0;
 3355              		.loc 1 487 13 is_stmt 0 discriminator 16 view .LVU1049
 3356 0344 B2B2     		uxth	r2, r6
 3357 0346 1A80     		strh	r2, [r3]
 3358 0348 BCE7     		b	.L131
 3359              	.LVL360:
 3360              	.L135:
 487:Drivers/STM32F0xx_HAL_Driver/Src/stm32f0xx_ll_usb.c ****             pmabuffer = ep->pmaaddr0;
 3361              		.loc 1 487 13 discriminator 16 view .LVU1050
 3362              	.LBE94:
 500:Drivers/STM32F0xx_HAL_Driver/Src/stm32f0xx_ll_usb.c ****               ep->xfer_len_db = 0U;
 3363              		.loc 1 500 15 is_stmt 1 view .LVU1051
 501:Drivers/STM32F0xx_HAL_Driver/Src/stm32f0xx_ll_usb.c ****             }
 3364              		.loc 1 501 15 view .LVU1052
 501:Drivers/STM32F0xx_HAL_Driver/Src/stm32f0xx_ll_usb.c ****             }
 3365              		.loc 1 501 31 is_stmt 0 view .LVU1053
 3366 034a 0022     		movs	r2, #0
 3367 034c 2262     		str	r2, [r4, #32]
 500:Drivers/STM32F0xx_HAL_Driver/Src/stm32f0xx_ll_usb.c ****               ep->xfer_len_db = 0U;
 3368              		.loc 1 500 19 view .LVU1054
 3369 034e 1E00     		movs	r6, r3
 3370 0350 C7E7     		b	.L136
 3371              	.LVL361:
 3372              	.L138:
 3373              	.LBB95:
 3374              	.LBB93:
 3375              	.LBB92:
 505:Drivers/STM32F0xx_HAL_Driver/Src/stm32f0xx_ll_usb.c ****             pmabuffer = ep->pmaaddr1;
 3376              		.loc 1 505 13 is_stmt 1 discriminator 4 view .LVU1055
 3377 0352 3E2E     		cmp	r6, #62
 3378 0354 09D8     		bhi	.L140
 505:Drivers/STM32F0xx_HAL_Driver/Src/stm32f0xx_ll_usb.c ****             pmabuffer = ep->pmaaddr1;
 3379              		.loc 1 505 13 discriminator 6 view .LVU1056
 505:Drivers/STM32F0xx_HAL_Driver/Src/stm32f0xx_ll_usb.c ****             pmabuffer = ep->pmaaddr1;
 3380              		.loc 1 505 13 discriminator 6 view .LVU1057
 3381 0356 7208     		lsrs	r2, r6, #1
 3382              	.LVL362:
 505:Drivers/STM32F0xx_HAL_Driver/Src/stm32f0xx_ll_usb.c ****             pmabuffer = ep->pmaaddr1;
 3383              		.loc 1 505 13 view .LVU1058
 505:Drivers/STM32F0xx_HAL_Driver/Src/stm32f0xx_ll_usb.c ****             pmabuffer = ep->pmaaddr1;
 3384              		.loc 1 505 13 is_stmt 0 discriminator 6 view .LVU1059
 3385 0358 F107     		lsls	r1, r6, #31
 3386 035a 00D5     		bpl	.L141
 505:Drivers/STM32F0xx_HAL_Driver/Src/stm32f0xx_ll_usb.c ****             pmabuffer = ep->pmaaddr1;
 3387              		.loc 1 505 13 is_stmt 1 discriminator 8 view .LVU1060
 3388 035c 0132     		adds	r2, r2, #1
 3389              	.LVL363:
 3390              	.L141:
 505:Drivers/STM32F0xx_HAL_Driver/Src/stm32f0xx_ll_usb.c ****             pmabuffer = ep->pmaaddr1;
 3391              		.loc 1 505 13 discriminator 10 view .LVU1061
 3392 035e 1988     		ldrh	r1, [r3]
 3393 0360 9202     		lsls	r2, r2, #10
 3394              	.LVL364:
 505:Drivers/STM32F0xx_HAL_Driver/Src/stm32f0xx_ll_usb.c ****             pmabuffer = ep->pmaaddr1;
 3395              		.loc 1 505 13 is_stmt 0 discriminator 10 view .LVU1062
 3396 0362 92B2     		uxth	r2, r2
ARM GAS  /tmp/cceQvfFh.s 			page 85


 3397 0364 0A43     		orrs	r2, r1
 3398 0366 1A80     		strh	r2, [r3]
 505:Drivers/STM32F0xx_HAL_Driver/Src/stm32f0xx_ll_usb.c ****             pmabuffer = ep->pmaaddr1;
 3399              		.loc 1 505 13 is_stmt 1 view .LVU1063
 3400 0368 0EE0     		b	.L139
 3401              	.LVL365:
 3402              	.L140:
 505:Drivers/STM32F0xx_HAL_Driver/Src/stm32f0xx_ll_usb.c ****             pmabuffer = ep->pmaaddr1;
 3403              		.loc 1 505 13 discriminator 7 view .LVU1064
 505:Drivers/STM32F0xx_HAL_Driver/Src/stm32f0xx_ll_usb.c ****             pmabuffer = ep->pmaaddr1;
 3404              		.loc 1 505 13 discriminator 7 view .LVU1065
 3405 036a 7209     		lsrs	r2, r6, #5
 3406              	.LVL366:
 505:Drivers/STM32F0xx_HAL_Driver/Src/stm32f0xx_ll_usb.c ****             pmabuffer = ep->pmaaddr1;
 3407              		.loc 1 505 13 view .LVU1066
 505:Drivers/STM32F0xx_HAL_Driver/Src/stm32f0xx_ll_usb.c ****             pmabuffer = ep->pmaaddr1;
 3408              		.loc 1 505 13 is_stmt 0 discriminator 7 view .LVU1067
 3409 036c F106     		lsls	r1, r6, #27
 3410 036e 00D1     		bne	.L142
 505:Drivers/STM32F0xx_HAL_Driver/Src/stm32f0xx_ll_usb.c ****             pmabuffer = ep->pmaaddr1;
 3411              		.loc 1 505 13 is_stmt 1 discriminator 12 view .LVU1068
 3412 0370 013A     		subs	r2, r2, #1
 3413              	.LVL367:
 3414              	.L142:
 505:Drivers/STM32F0xx_HAL_Driver/Src/stm32f0xx_ll_usb.c ****             pmabuffer = ep->pmaaddr1;
 3415              		.loc 1 505 13 discriminator 14 view .LVU1069
 3416 0372 1988     		ldrh	r1, [r3]
 3417 0374 9202     		lsls	r2, r2, #10
 3418              	.LVL368:
 505:Drivers/STM32F0xx_HAL_Driver/Src/stm32f0xx_ll_usb.c ****             pmabuffer = ep->pmaaddr1;
 3419              		.loc 1 505 13 is_stmt 0 discriminator 14 view .LVU1070
 3420 0376 92B2     		uxth	r2, r2
 3421 0378 1143     		orrs	r1, r2
 3422 037a AF4A     		ldr	r2, .L224+4
 3423 037c 0A43     		orrs	r2, r1
 3424 037e 92B2     		uxth	r2, r2
 3425 0380 1A80     		strh	r2, [r3]
 3426 0382 01E0     		b	.L139
 3427              	.LVL369:
 3428              	.L137:
 505:Drivers/STM32F0xx_HAL_Driver/Src/stm32f0xx_ll_usb.c ****             pmabuffer = ep->pmaaddr1;
 3429              		.loc 1 505 13 discriminator 14 view .LVU1071
 3430              	.LBE92:
 3431              	.LBE93:
 505:Drivers/STM32F0xx_HAL_Driver/Src/stm32f0xx_ll_usb.c ****             pmabuffer = ep->pmaaddr1;
 3432              		.loc 1 505 13 is_stmt 1 discriminator 2 view .LVU1072
 3433 0384 012B     		cmp	r3, #1
 3434 0386 06D0     		beq	.L219
 3435              	.LVL370:
 3436              	.L139:
 505:Drivers/STM32F0xx_HAL_Driver/Src/stm32f0xx_ll_usb.c ****             pmabuffer = ep->pmaaddr1;
 3437              		.loc 1 505 13 is_stmt 0 discriminator 2 view .LVU1073
 3438              	.LBE95:
 505:Drivers/STM32F0xx_HAL_Driver/Src/stm32f0xx_ll_usb.c ****             pmabuffer = ep->pmaaddr1;
 3439              		.loc 1 505 13 is_stmt 1 discriminator 18 view .LVU1074
 506:Drivers/STM32F0xx_HAL_Driver/Src/stm32f0xx_ll_usb.c **** 
 3440              		.loc 1 506 13 view .LVU1075
ARM GAS  /tmp/cceQvfFh.s 			page 86


 506:Drivers/STM32F0xx_HAL_Driver/Src/stm32f0xx_ll_usb.c **** 
 3441              		.loc 1 506 23 is_stmt 0 view .LVU1076
 3442 0388 6289     		ldrh	r2, [r4, #10]
 3443              	.LVL371:
 509:Drivers/STM32F0xx_HAL_Driver/Src/stm32f0xx_ll_usb.c ****           }
 3444              		.loc 1 509 13 is_stmt 1 view .LVU1077
 3445 038a B3B2     		uxth	r3, r6
 3446 038c 6169     		ldr	r1, [r4, #20]
 3447 038e 2800     		movs	r0, r5
 3448 0390 FFF7FEFF 		bl	USB_WritePMA
 3449              	.LVL372:
 509:Drivers/STM32F0xx_HAL_Driver/Src/stm32f0xx_ll_usb.c ****           }
 3450              		.loc 1 509 13 is_stmt 0 view .LVU1078
 3451 0394 A7E6     		b	.L111
 3452              	.LVL373:
 3453              	.L219:
 3454              	.LBB96:
 505:Drivers/STM32F0xx_HAL_Driver/Src/stm32f0xx_ll_usb.c ****             pmabuffer = ep->pmaaddr1;
 3455              		.loc 1 505 13 is_stmt 1 discriminator 16 view .LVU1079
 3456 0396 4F33     		adds	r3, r3, #79
 3457 0398 EA5A     		ldrh	r2, [r5, r3]
 3458 039a AA18     		adds	r2, r5, r2
 3459              	.LVL374:
 505:Drivers/STM32F0xx_HAL_Driver/Src/stm32f0xx_ll_usb.c ****             pmabuffer = ep->pmaaddr1;
 3460              		.loc 1 505 13 view .LVU1080
 505:Drivers/STM32F0xx_HAL_Driver/Src/stm32f0xx_ll_usb.c ****             pmabuffer = ep->pmaaddr1;
 3461              		.loc 1 505 13 is_stmt 0 discriminator 16 view .LVU1081
 3462 039c 2378     		ldrb	r3, [r4]
 3463 039e DB00     		lsls	r3, r3, #3
 3464 03a0 9B18     		adds	r3, r3, r2
 3465 03a2 A64A     		ldr	r2, .L224+8
 3466              	.LVL375:
 505:Drivers/STM32F0xx_HAL_Driver/Src/stm32f0xx_ll_usb.c ****             pmabuffer = ep->pmaaddr1;
 3467              		.loc 1 505 13 discriminator 16 view .LVU1082
 3468 03a4 9446     		mov	ip, r2
 3469 03a6 6344     		add	r3, r3, ip
 3470              	.LVL376:
 505:Drivers/STM32F0xx_HAL_Driver/Src/stm32f0xx_ll_usb.c ****             pmabuffer = ep->pmaaddr1;
 3471              		.loc 1 505 13 is_stmt 1 view .LVU1083
 505:Drivers/STM32F0xx_HAL_Driver/Src/stm32f0xx_ll_usb.c ****             pmabuffer = ep->pmaaddr1;
 3472              		.loc 1 505 13 is_stmt 0 discriminator 16 view .LVU1084
 3473 03a8 B2B2     		uxth	r2, r6
 3474 03aa 1A80     		strh	r2, [r3]
 3475 03ac ECE7     		b	.L139
 3476              	.LVL377:
 3477              	.L113:
 505:Drivers/STM32F0xx_HAL_Driver/Src/stm32f0xx_ll_usb.c ****             pmabuffer = ep->pmaaddr1;
 3478              		.loc 1 505 13 discriminator 16 view .LVU1085
 3479              	.LBE96:
 515:Drivers/STM32F0xx_HAL_Driver/Src/stm32f0xx_ll_usb.c **** 
 3480              		.loc 1 515 11 is_stmt 1 view .LVU1086
 518:Drivers/STM32F0xx_HAL_Driver/Src/stm32f0xx_ll_usb.c **** 
 3481              		.loc 1 518 11 view .LVU1087
 3482              	.LBB97:
 518:Drivers/STM32F0xx_HAL_Driver/Src/stm32f0xx_ll_usb.c **** 
 3483              		.loc 1 518 11 view .LVU1088
 518:Drivers/STM32F0xx_HAL_Driver/Src/stm32f0xx_ll_usb.c **** 
ARM GAS  /tmp/cceQvfFh.s 			page 87


 3484              		.loc 1 518 11 view .LVU1089
 3485 03ae 2278     		ldrb	r2, [r4]
 3486 03b0 9200     		lsls	r2, r2, #2
 3487 03b2 AA18     		adds	r2, r5, r2
 3488 03b4 1088     		ldrh	r0, [r2]
 3489              	.LVL378:
 518:Drivers/STM32F0xx_HAL_Driver/Src/stm32f0xx_ll_usb.c **** 
 3490              		.loc 1 518 11 is_stmt 0 view .LVU1090
 3491 03b6 A249     		ldr	r1, .L224+12
 3492 03b8 0840     		ands	r0, r1
 3493              	.LVL379:
 518:Drivers/STM32F0xx_HAL_Driver/Src/stm32f0xx_ll_usb.c **** 
 3494              		.loc 1 518 11 is_stmt 1 view .LVU1091
 3495 03ba A249     		ldr	r1, .L224+16
 3496 03bc 0143     		orrs	r1, r0
 3497 03be 89B2     		uxth	r1, r1
 3498 03c0 1180     		strh	r1, [r2]
 3499              	.LBE97:
 518:Drivers/STM32F0xx_HAL_Driver/Src/stm32f0xx_ll_usb.c **** 
 3500              		.loc 1 518 11 view .LVU1092
 521:Drivers/STM32F0xx_HAL_Driver/Src/stm32f0xx_ll_usb.c ****           pmabuffer = ep->pmaaddr0;
 3501              		.loc 1 521 11 view .LVU1093
 3502              	.LBB98:
 521:Drivers/STM32F0xx_HAL_Driver/Src/stm32f0xx_ll_usb.c ****           pmabuffer = ep->pmaaddr0;
 3503              		.loc 1 521 11 view .LVU1094
 3504              	.LVL380:
 521:Drivers/STM32F0xx_HAL_Driver/Src/stm32f0xx_ll_usb.c ****           pmabuffer = ep->pmaaddr0;
 3505              		.loc 1 521 11 view .LVU1095
 521:Drivers/STM32F0xx_HAL_Driver/Src/stm32f0xx_ll_usb.c ****           pmabuffer = ep->pmaaddr0;
 3506              		.loc 1 521 11 view .LVU1096
 3507 03c2 5022     		movs	r2, #80
 3508 03c4 A95A     		ldrh	r1, [r5, r2]
 3509 03c6 6918     		adds	r1, r5, r1
 3510              	.LVL381:
 521:Drivers/STM32F0xx_HAL_Driver/Src/stm32f0xx_ll_usb.c ****           pmabuffer = ep->pmaaddr0;
 3511              		.loc 1 521 11 view .LVU1097
 3512 03c8 2278     		ldrb	r2, [r4]
 3513 03ca D200     		lsls	r2, r2, #3
 3514 03cc 5218     		adds	r2, r2, r1
 3515 03ce 9949     		ldr	r1, .L224
 3516              	.LVL382:
 521:Drivers/STM32F0xx_HAL_Driver/Src/stm32f0xx_ll_usb.c ****           pmabuffer = ep->pmaaddr0;
 3517              		.loc 1 521 11 is_stmt 0 view .LVU1098
 3518 03d0 8C46     		mov	ip, r1
 3519 03d2 6244     		add	r2, r2, ip
 3520              	.LVL383:
 521:Drivers/STM32F0xx_HAL_Driver/Src/stm32f0xx_ll_usb.c ****           pmabuffer = ep->pmaaddr0;
 3521              		.loc 1 521 11 is_stmt 1 view .LVU1099
 3522 03d4 9BB2     		uxth	r3, r3
 3523              	.LVL384:
 521:Drivers/STM32F0xx_HAL_Driver/Src/stm32f0xx_ll_usb.c ****           pmabuffer = ep->pmaaddr0;
 3524              		.loc 1 521 11 is_stmt 0 view .LVU1100
 3525 03d6 1380     		strh	r3, [r2]
 3526              	.LBE98:
 521:Drivers/STM32F0xx_HAL_Driver/Src/stm32f0xx_ll_usb.c ****           pmabuffer = ep->pmaaddr0;
 3527              		.loc 1 521 11 is_stmt 1 view .LVU1101
 522:Drivers/STM32F0xx_HAL_Driver/Src/stm32f0xx_ll_usb.c **** 
ARM GAS  /tmp/cceQvfFh.s 			page 88


 3528              		.loc 1 522 11 view .LVU1102
 522:Drivers/STM32F0xx_HAL_Driver/Src/stm32f0xx_ll_usb.c **** 
 3529              		.loc 1 522 21 is_stmt 0 view .LVU1103
 3530 03d8 2289     		ldrh	r2, [r4, #8]
 3531              	.LVL385:
 525:Drivers/STM32F0xx_HAL_Driver/Src/stm32f0xx_ll_usb.c ****         }
 3532              		.loc 1 525 11 is_stmt 1 view .LVU1104
 3533 03da 6169     		ldr	r1, [r4, #20]
 3534 03dc 2800     		movs	r0, r5
 3535              	.LVL386:
 525:Drivers/STM32F0xx_HAL_Driver/Src/stm32f0xx_ll_usb.c ****         }
 3536              		.loc 1 525 11 is_stmt 0 view .LVU1105
 3537 03de FFF7FEFF 		bl	USB_WritePMA
 3538              	.LVL387:
 525:Drivers/STM32F0xx_HAL_Driver/Src/stm32f0xx_ll_usb.c ****         }
 3539              		.loc 1 525 11 view .LVU1106
 3540 03e2 80E6     		b	.L111
 3541              	.LVL388:
 3542              	.L145:
 3543              	.LBB99:
 3544              	.LBB74:
 3545              	.LBB73:
 537:Drivers/STM32F0xx_HAL_Driver/Src/stm32f0xx_ll_usb.c ****           pmabuffer = ep->pmaaddr1;
 3546              		.loc 1 537 11 is_stmt 1 discriminator 4 view .LVU1107
 3547 03e4 3E2E     		cmp	r6, #62
 3548 03e6 09D8     		bhi	.L147
 537:Drivers/STM32F0xx_HAL_Driver/Src/stm32f0xx_ll_usb.c ****           pmabuffer = ep->pmaaddr1;
 3549              		.loc 1 537 11 discriminator 6 view .LVU1108
 537:Drivers/STM32F0xx_HAL_Driver/Src/stm32f0xx_ll_usb.c ****           pmabuffer = ep->pmaaddr1;
 3550              		.loc 1 537 11 discriminator 6 view .LVU1109
 3551 03e8 7308     		lsrs	r3, r6, #1
 3552              	.LVL389:
 537:Drivers/STM32F0xx_HAL_Driver/Src/stm32f0xx_ll_usb.c ****           pmabuffer = ep->pmaaddr1;
 3553              		.loc 1 537 11 view .LVU1110
 537:Drivers/STM32F0xx_HAL_Driver/Src/stm32f0xx_ll_usb.c ****           pmabuffer = ep->pmaaddr1;
 3554              		.loc 1 537 11 is_stmt 0 discriminator 6 view .LVU1111
 3555 03ea F107     		lsls	r1, r6, #31
 3556 03ec 00D5     		bpl	.L148
 537:Drivers/STM32F0xx_HAL_Driver/Src/stm32f0xx_ll_usb.c ****           pmabuffer = ep->pmaaddr1;
 3557              		.loc 1 537 11 is_stmt 1 discriminator 8 view .LVU1112
 3558 03ee 0133     		adds	r3, r3, #1
 3559              	.LVL390:
 3560              	.L148:
 537:Drivers/STM32F0xx_HAL_Driver/Src/stm32f0xx_ll_usb.c ****           pmabuffer = ep->pmaaddr1;
 3561              		.loc 1 537 11 discriminator 10 view .LVU1113
 3562 03f0 1188     		ldrh	r1, [r2]
 3563 03f2 9B02     		lsls	r3, r3, #10
 3564              	.LVL391:
 537:Drivers/STM32F0xx_HAL_Driver/Src/stm32f0xx_ll_usb.c ****           pmabuffer = ep->pmaaddr1;
 3565              		.loc 1 537 11 is_stmt 0 discriminator 10 view .LVU1114
 3566 03f4 9BB2     		uxth	r3, r3
 3567 03f6 0B43     		orrs	r3, r1
 3568 03f8 1380     		strh	r3, [r2]
 537:Drivers/STM32F0xx_HAL_Driver/Src/stm32f0xx_ll_usb.c ****           pmabuffer = ep->pmaaddr1;
 3569              		.loc 1 537 11 is_stmt 1 view .LVU1115
 3570 03fa 16E0     		b	.L146
 3571              	.LVL392:
ARM GAS  /tmp/cceQvfFh.s 			page 89


 3572              	.L147:
 537:Drivers/STM32F0xx_HAL_Driver/Src/stm32f0xx_ll_usb.c ****           pmabuffer = ep->pmaaddr1;
 3573              		.loc 1 537 11 discriminator 7 view .LVU1116
 537:Drivers/STM32F0xx_HAL_Driver/Src/stm32f0xx_ll_usb.c ****           pmabuffer = ep->pmaaddr1;
 3574              		.loc 1 537 11 discriminator 7 view .LVU1117
 3575 03fc 7309     		lsrs	r3, r6, #5
 3576              	.LVL393:
 537:Drivers/STM32F0xx_HAL_Driver/Src/stm32f0xx_ll_usb.c ****           pmabuffer = ep->pmaaddr1;
 3577              		.loc 1 537 11 view .LVU1118
 537:Drivers/STM32F0xx_HAL_Driver/Src/stm32f0xx_ll_usb.c ****           pmabuffer = ep->pmaaddr1;
 3578              		.loc 1 537 11 is_stmt 0 discriminator 7 view .LVU1119
 3579 03fe F106     		lsls	r1, r6, #27
 3580 0400 00D1     		bne	.L149
 537:Drivers/STM32F0xx_HAL_Driver/Src/stm32f0xx_ll_usb.c ****           pmabuffer = ep->pmaaddr1;
 3581              		.loc 1 537 11 is_stmt 1 discriminator 12 view .LVU1120
 3582 0402 013B     		subs	r3, r3, #1
 3583              	.LVL394:
 3584              	.L149:
 537:Drivers/STM32F0xx_HAL_Driver/Src/stm32f0xx_ll_usb.c ****           pmabuffer = ep->pmaaddr1;
 3585              		.loc 1 537 11 discriminator 14 view .LVU1121
 3586 0404 1188     		ldrh	r1, [r2]
 3587 0406 9B02     		lsls	r3, r3, #10
 3588              	.LVL395:
 537:Drivers/STM32F0xx_HAL_Driver/Src/stm32f0xx_ll_usb.c ****           pmabuffer = ep->pmaaddr1;
 3589              		.loc 1 537 11 is_stmt 0 discriminator 14 view .LVU1122
 3590 0408 9BB2     		uxth	r3, r3
 3591 040a 1943     		orrs	r1, r3
 3592 040c 8A4B     		ldr	r3, .L224+4
 3593 040e 0B43     		orrs	r3, r1
 3594 0410 9BB2     		uxth	r3, r3
 3595 0412 1380     		strh	r3, [r2]
 3596 0414 09E0     		b	.L146
 3597              	.LVL396:
 3598              	.L144:
 537:Drivers/STM32F0xx_HAL_Driver/Src/stm32f0xx_ll_usb.c ****           pmabuffer = ep->pmaaddr1;
 3599              		.loc 1 537 11 discriminator 14 view .LVU1123
 3600              	.LBE73:
 3601              	.LBE74:
 537:Drivers/STM32F0xx_HAL_Driver/Src/stm32f0xx_ll_usb.c ****           pmabuffer = ep->pmaaddr1;
 3602              		.loc 1 537 11 is_stmt 1 discriminator 2 view .LVU1124
 537:Drivers/STM32F0xx_HAL_Driver/Src/stm32f0xx_ll_usb.c ****           pmabuffer = ep->pmaaddr1;
 3603              		.loc 1 537 11 discriminator 16 view .LVU1125
 3604 0416 5023     		movs	r3, #80
 3605 0418 EB5A     		ldrh	r3, [r5, r3]
 3606 041a EB18     		adds	r3, r5, r3
 3607              	.LVL397:
 537:Drivers/STM32F0xx_HAL_Driver/Src/stm32f0xx_ll_usb.c ****           pmabuffer = ep->pmaaddr1;
 3608              		.loc 1 537 11 view .LVU1126
 537:Drivers/STM32F0xx_HAL_Driver/Src/stm32f0xx_ll_usb.c ****           pmabuffer = ep->pmaaddr1;
 3609              		.loc 1 537 11 is_stmt 0 discriminator 16 view .LVU1127
 3610 041c D200     		lsls	r2, r2, #3
 3611 041e D218     		adds	r2, r2, r3
 3612 0420 864B     		ldr	r3, .L224+8
 3613              	.LVL398:
 537:Drivers/STM32F0xx_HAL_Driver/Src/stm32f0xx_ll_usb.c ****           pmabuffer = ep->pmaaddr1;
 3614              		.loc 1 537 11 discriminator 16 view .LVU1128
 3615 0422 9C46     		mov	ip, r3
ARM GAS  /tmp/cceQvfFh.s 			page 90


 3616 0424 6244     		add	r2, r2, ip
 3617              	.LVL399:
 537:Drivers/STM32F0xx_HAL_Driver/Src/stm32f0xx_ll_usb.c ****           pmabuffer = ep->pmaaddr1;
 3618              		.loc 1 537 11 is_stmt 1 view .LVU1129
 537:Drivers/STM32F0xx_HAL_Driver/Src/stm32f0xx_ll_usb.c ****           pmabuffer = ep->pmaaddr1;
 3619              		.loc 1 537 11 is_stmt 0 discriminator 16 view .LVU1130
 3620 0426 B3B2     		uxth	r3, r6
 3621 0428 1380     		strh	r3, [r2]
 3622              	.LVL400:
 3623              	.L146:
 537:Drivers/STM32F0xx_HAL_Driver/Src/stm32f0xx_ll_usb.c ****           pmabuffer = ep->pmaaddr1;
 3624              		.loc 1 537 11 discriminator 16 view .LVU1131
 3625              	.LBE99:
 537:Drivers/STM32F0xx_HAL_Driver/Src/stm32f0xx_ll_usb.c ****           pmabuffer = ep->pmaaddr1;
 3626              		.loc 1 537 11 is_stmt 1 discriminator 18 view .LVU1132
 538:Drivers/STM32F0xx_HAL_Driver/Src/stm32f0xx_ll_usb.c **** 
 3627              		.loc 1 538 11 view .LVU1133
 538:Drivers/STM32F0xx_HAL_Driver/Src/stm32f0xx_ll_usb.c **** 
 3628              		.loc 1 538 21 is_stmt 0 view .LVU1134
 3629 042a 6289     		ldrh	r2, [r4, #10]
 3630              	.LVL401:
 541:Drivers/STM32F0xx_HAL_Driver/Src/stm32f0xx_ll_usb.c ****         }
 3631              		.loc 1 541 11 is_stmt 1 view .LVU1135
 3632 042c B3B2     		uxth	r3, r6
 3633 042e 6169     		ldr	r1, [r4, #20]
 3634 0430 2800     		movs	r0, r5
 3635              	.LVL402:
 541:Drivers/STM32F0xx_HAL_Driver/Src/stm32f0xx_ll_usb.c ****         }
 3636              		.loc 1 541 11 is_stmt 0 view .LVU1136
 3637 0432 FFF7FEFF 		bl	USB_WritePMA
 3638              	.LVL403:
 541:Drivers/STM32F0xx_HAL_Driver/Src/stm32f0xx_ll_usb.c ****         }
 3639              		.loc 1 541 11 view .LVU1137
 3640 0436 56E6     		b	.L111
 3641              	.LVL404:
 3642              	.L143:
 546:Drivers/STM32F0xx_HAL_Driver/Src/stm32f0xx_ll_usb.c ****           pmabuffer = ep->pmaaddr0;
 3643              		.loc 1 546 11 is_stmt 1 view .LVU1138
 546:Drivers/STM32F0xx_HAL_Driver/Src/stm32f0xx_ll_usb.c ****           pmabuffer = ep->pmaaddr0;
 3644              		.loc 1 546 11 view .LVU1139
 3645 0438 002B     		cmp	r3, #0
 3646 043a 2CD1     		bne	.L150
 546:Drivers/STM32F0xx_HAL_Driver/Src/stm32f0xx_ll_usb.c ****           pmabuffer = ep->pmaaddr0;
 3647              		.loc 1 546 11 discriminator 1 view .LVU1140
 3648              	.LBB100:
 546:Drivers/STM32F0xx_HAL_Driver/Src/stm32f0xx_ll_usb.c ****           pmabuffer = ep->pmaaddr0;
 3649              		.loc 1 546 11 discriminator 1 view .LVU1141
 3650              	.LVL405:
 546:Drivers/STM32F0xx_HAL_Driver/Src/stm32f0xx_ll_usb.c ****           pmabuffer = ep->pmaaddr0;
 3651              		.loc 1 546 11 view .LVU1142
 546:Drivers/STM32F0xx_HAL_Driver/Src/stm32f0xx_ll_usb.c ****           pmabuffer = ep->pmaaddr0;
 3652              		.loc 1 546 11 view .LVU1143
 546:Drivers/STM32F0xx_HAL_Driver/Src/stm32f0xx_ll_usb.c ****           pmabuffer = ep->pmaaddr0;
 3653              		.loc 1 546 11 is_stmt 0 discriminator 1 view .LVU1144
 3654 043c 5033     		adds	r3, r3, #80
 3655 043e EB5A     		ldrh	r3, [r5, r3]
 3656 0440 EB18     		adds	r3, r5, r3
ARM GAS  /tmp/cceQvfFh.s 			page 91


 3657              	.LVL406:
 546:Drivers/STM32F0xx_HAL_Driver/Src/stm32f0xx_ll_usb.c ****           pmabuffer = ep->pmaaddr0;
 3658              		.loc 1 546 11 is_stmt 1 view .LVU1145
 546:Drivers/STM32F0xx_HAL_Driver/Src/stm32f0xx_ll_usb.c ****           pmabuffer = ep->pmaaddr0;
 3659              		.loc 1 546 11 is_stmt 0 discriminator 1 view .LVU1146
 3660 0442 D200     		lsls	r2, r2, #3
 3661 0444 D218     		adds	r2, r2, r3
 3662 0446 7B4B     		ldr	r3, .L224
 3663              	.LVL407:
 546:Drivers/STM32F0xx_HAL_Driver/Src/stm32f0xx_ll_usb.c ****           pmabuffer = ep->pmaaddr0;
 3664              		.loc 1 546 11 discriminator 1 view .LVU1147
 3665 0448 9C46     		mov	ip, r3
 3666 044a 6244     		add	r2, r2, ip
 3667              	.LVL408:
 546:Drivers/STM32F0xx_HAL_Driver/Src/stm32f0xx_ll_usb.c ****           pmabuffer = ep->pmaaddr0;
 3668              		.loc 1 546 11 is_stmt 1 view .LVU1148
 3669              	.LBB101:
 546:Drivers/STM32F0xx_HAL_Driver/Src/stm32f0xx_ll_usb.c ****           pmabuffer = ep->pmaaddr0;
 3670              		.loc 1 546 11 view .LVU1149
 546:Drivers/STM32F0xx_HAL_Driver/Src/stm32f0xx_ll_usb.c ****           pmabuffer = ep->pmaaddr0;
 3671              		.loc 1 546 11 view .LVU1150
 546:Drivers/STM32F0xx_HAL_Driver/Src/stm32f0xx_ll_usb.c ****           pmabuffer = ep->pmaaddr0;
 3672              		.loc 1 546 11 is_stmt 0 discriminator 1 view .LVU1151
 3673 044c 1388     		ldrh	r3, [r2]
 3674 044e 9B05     		lsls	r3, r3, #22
 3675 0450 9B0D     		lsrs	r3, r3, #22
 3676 0452 1380     		strh	r3, [r2]
 546:Drivers/STM32F0xx_HAL_Driver/Src/stm32f0xx_ll_usb.c ****           pmabuffer = ep->pmaaddr0;
 3677              		.loc 1 546 11 is_stmt 1 view .LVU1152
 546:Drivers/STM32F0xx_HAL_Driver/Src/stm32f0xx_ll_usb.c ****           pmabuffer = ep->pmaaddr0;
 3678              		.loc 1 546 11 is_stmt 0 discriminator 1 view .LVU1153
 3679 0454 002E     		cmp	r6, #0
 3680 0456 05D1     		bne	.L151
 546:Drivers/STM32F0xx_HAL_Driver/Src/stm32f0xx_ll_usb.c ****           pmabuffer = ep->pmaaddr0;
 3681              		.loc 1 546 11 is_stmt 1 discriminator 3 view .LVU1154
 3682 0458 1388     		ldrh	r3, [r2]
 3683 045a 7749     		ldr	r1, .L224+4
 3684 045c 0B43     		orrs	r3, r1
 3685 045e 9BB2     		uxth	r3, r3
 3686 0460 1380     		strh	r3, [r2]
 3687 0462 22E0     		b	.L152
 3688              	.L151:
 546:Drivers/STM32F0xx_HAL_Driver/Src/stm32f0xx_ll_usb.c ****           pmabuffer = ep->pmaaddr0;
 3689              		.loc 1 546 11 discriminator 4 view .LVU1155
 3690 0464 3E2E     		cmp	r6, #62
 3691 0466 09D8     		bhi	.L153
 546:Drivers/STM32F0xx_HAL_Driver/Src/stm32f0xx_ll_usb.c ****           pmabuffer = ep->pmaaddr0;
 3692              		.loc 1 546 11 discriminator 6 view .LVU1156
 546:Drivers/STM32F0xx_HAL_Driver/Src/stm32f0xx_ll_usb.c ****           pmabuffer = ep->pmaaddr0;
 3693              		.loc 1 546 11 discriminator 6 view .LVU1157
 3694 0468 7308     		lsrs	r3, r6, #1
 3695              	.LVL409:
 546:Drivers/STM32F0xx_HAL_Driver/Src/stm32f0xx_ll_usb.c ****           pmabuffer = ep->pmaaddr0;
 3696              		.loc 1 546 11 view .LVU1158
 546:Drivers/STM32F0xx_HAL_Driver/Src/stm32f0xx_ll_usb.c ****           pmabuffer = ep->pmaaddr0;
 3697              		.loc 1 546 11 is_stmt 0 discriminator 6 view .LVU1159
 3698 046a F107     		lsls	r1, r6, #31
ARM GAS  /tmp/cceQvfFh.s 			page 92


 3699 046c 00D5     		bpl	.L154
 546:Drivers/STM32F0xx_HAL_Driver/Src/stm32f0xx_ll_usb.c ****           pmabuffer = ep->pmaaddr0;
 3700              		.loc 1 546 11 is_stmt 1 discriminator 8 view .LVU1160
 3701 046e 0133     		adds	r3, r3, #1
 3702              	.LVL410:
 3703              	.L154:
 546:Drivers/STM32F0xx_HAL_Driver/Src/stm32f0xx_ll_usb.c ****           pmabuffer = ep->pmaaddr0;
 3704              		.loc 1 546 11 discriminator 10 view .LVU1161
 3705 0470 1188     		ldrh	r1, [r2]
 3706 0472 9B02     		lsls	r3, r3, #10
 3707              	.LVL411:
 546:Drivers/STM32F0xx_HAL_Driver/Src/stm32f0xx_ll_usb.c ****           pmabuffer = ep->pmaaddr0;
 3708              		.loc 1 546 11 is_stmt 0 discriminator 10 view .LVU1162
 3709 0474 9BB2     		uxth	r3, r3
 3710 0476 0B43     		orrs	r3, r1
 3711 0478 1380     		strh	r3, [r2]
 546:Drivers/STM32F0xx_HAL_Driver/Src/stm32f0xx_ll_usb.c ****           pmabuffer = ep->pmaaddr0;
 3712              		.loc 1 546 11 is_stmt 1 view .LVU1163
 3713 047a 16E0     		b	.L152
 3714              	.LVL412:
 3715              	.L153:
 546:Drivers/STM32F0xx_HAL_Driver/Src/stm32f0xx_ll_usb.c ****           pmabuffer = ep->pmaaddr0;
 3716              		.loc 1 546 11 discriminator 7 view .LVU1164
 546:Drivers/STM32F0xx_HAL_Driver/Src/stm32f0xx_ll_usb.c ****           pmabuffer = ep->pmaaddr0;
 3717              		.loc 1 546 11 discriminator 7 view .LVU1165
 3718 047c 7309     		lsrs	r3, r6, #5
 3719              	.LVL413:
 546:Drivers/STM32F0xx_HAL_Driver/Src/stm32f0xx_ll_usb.c ****           pmabuffer = ep->pmaaddr0;
 3720              		.loc 1 546 11 view .LVU1166
 546:Drivers/STM32F0xx_HAL_Driver/Src/stm32f0xx_ll_usb.c ****           pmabuffer = ep->pmaaddr0;
 3721              		.loc 1 546 11 is_stmt 0 discriminator 7 view .LVU1167
 3722 047e F106     		lsls	r1, r6, #27
 3723 0480 00D1     		bne	.L155
 546:Drivers/STM32F0xx_HAL_Driver/Src/stm32f0xx_ll_usb.c ****           pmabuffer = ep->pmaaddr0;
 3724              		.loc 1 546 11 is_stmt 1 discriminator 12 view .LVU1168
 3725 0482 013B     		subs	r3, r3, #1
 3726              	.LVL414:
 3727              	.L155:
 546:Drivers/STM32F0xx_HAL_Driver/Src/stm32f0xx_ll_usb.c ****           pmabuffer = ep->pmaaddr0;
 3728              		.loc 1 546 11 discriminator 14 view .LVU1169
 3729 0484 1188     		ldrh	r1, [r2]
 3730 0486 9B02     		lsls	r3, r3, #10
 3731              	.LVL415:
 546:Drivers/STM32F0xx_HAL_Driver/Src/stm32f0xx_ll_usb.c ****           pmabuffer = ep->pmaaddr0;
 3732              		.loc 1 546 11 is_stmt 0 discriminator 14 view .LVU1170
 3733 0488 9BB2     		uxth	r3, r3
 3734 048a 1943     		orrs	r1, r3
 3735 048c 6A4B     		ldr	r3, .L224+4
 3736 048e 0B43     		orrs	r3, r1
 3737 0490 9BB2     		uxth	r3, r3
 3738 0492 1380     		strh	r3, [r2]
 3739 0494 09E0     		b	.L152
 3740              	.LVL416:
 3741              	.L150:
 546:Drivers/STM32F0xx_HAL_Driver/Src/stm32f0xx_ll_usb.c ****           pmabuffer = ep->pmaaddr0;
 3742              		.loc 1 546 11 discriminator 14 view .LVU1171
 3743              	.LBE101:
ARM GAS  /tmp/cceQvfFh.s 			page 93


 3744              	.LBE100:
 546:Drivers/STM32F0xx_HAL_Driver/Src/stm32f0xx_ll_usb.c ****           pmabuffer = ep->pmaaddr0;
 3745              		.loc 1 546 11 is_stmt 1 discriminator 2 view .LVU1172
 546:Drivers/STM32F0xx_HAL_Driver/Src/stm32f0xx_ll_usb.c ****           pmabuffer = ep->pmaaddr0;
 3746              		.loc 1 546 11 discriminator 16 view .LVU1173
 3747              	.LBB102:
 546:Drivers/STM32F0xx_HAL_Driver/Src/stm32f0xx_ll_usb.c ****           pmabuffer = ep->pmaaddr0;
 3748              		.loc 1 546 11 discriminator 16 view .LVU1174
 546:Drivers/STM32F0xx_HAL_Driver/Src/stm32f0xx_ll_usb.c ****           pmabuffer = ep->pmaaddr0;
 3749              		.loc 1 546 11 view .LVU1175
 546:Drivers/STM32F0xx_HAL_Driver/Src/stm32f0xx_ll_usb.c ****           pmabuffer = ep->pmaaddr0;
 3750              		.loc 1 546 11 view .LVU1176
 546:Drivers/STM32F0xx_HAL_Driver/Src/stm32f0xx_ll_usb.c ****           pmabuffer = ep->pmaaddr0;
 3751              		.loc 1 546 11 is_stmt 0 discriminator 16 view .LVU1177
 3752 0496 5023     		movs	r3, #80
 3753 0498 EB5A     		ldrh	r3, [r5, r3]
 3754 049a EB18     		adds	r3, r5, r3
 3755              	.LVL417:
 546:Drivers/STM32F0xx_HAL_Driver/Src/stm32f0xx_ll_usb.c ****           pmabuffer = ep->pmaaddr0;
 3756              		.loc 1 546 11 is_stmt 1 view .LVU1178
 546:Drivers/STM32F0xx_HAL_Driver/Src/stm32f0xx_ll_usb.c ****           pmabuffer = ep->pmaaddr0;
 3757              		.loc 1 546 11 is_stmt 0 discriminator 16 view .LVU1179
 3758 049c D200     		lsls	r2, r2, #3
 3759 049e D218     		adds	r2, r2, r3
 3760 04a0 644B     		ldr	r3, .L224
 3761              	.LVL418:
 546:Drivers/STM32F0xx_HAL_Driver/Src/stm32f0xx_ll_usb.c ****           pmabuffer = ep->pmaaddr0;
 3762              		.loc 1 546 11 discriminator 16 view .LVU1180
 3763 04a2 9C46     		mov	ip, r3
 3764 04a4 6244     		add	r2, r2, ip
 3765              	.LVL419:
 546:Drivers/STM32F0xx_HAL_Driver/Src/stm32f0xx_ll_usb.c ****           pmabuffer = ep->pmaaddr0;
 3766              		.loc 1 546 11 is_stmt 1 view .LVU1181
 546:Drivers/STM32F0xx_HAL_Driver/Src/stm32f0xx_ll_usb.c ****           pmabuffer = ep->pmaaddr0;
 3767              		.loc 1 546 11 is_stmt 0 discriminator 16 view .LVU1182
 3768 04a6 B3B2     		uxth	r3, r6
 3769 04a8 1380     		strh	r3, [r2]
 3770              	.LVL420:
 3771              	.L152:
 546:Drivers/STM32F0xx_HAL_Driver/Src/stm32f0xx_ll_usb.c ****           pmabuffer = ep->pmaaddr0;
 3772              		.loc 1 546 11 discriminator 16 view .LVU1183
 3773              	.LBE102:
 546:Drivers/STM32F0xx_HAL_Driver/Src/stm32f0xx_ll_usb.c ****           pmabuffer = ep->pmaaddr0;
 3774              		.loc 1 546 11 is_stmt 1 discriminator 18 view .LVU1184
 546:Drivers/STM32F0xx_HAL_Driver/Src/stm32f0xx_ll_usb.c ****           pmabuffer = ep->pmaaddr0;
 3775              		.loc 1 546 11 discriminator 18 view .LVU1185
 547:Drivers/STM32F0xx_HAL_Driver/Src/stm32f0xx_ll_usb.c **** 
 3776              		.loc 1 547 11 view .LVU1186
 547:Drivers/STM32F0xx_HAL_Driver/Src/stm32f0xx_ll_usb.c **** 
 3777              		.loc 1 547 21 is_stmt 0 view .LVU1187
 3778 04aa 2289     		ldrh	r2, [r4, #8]
 3779              	.LVL421:
 550:Drivers/STM32F0xx_HAL_Driver/Src/stm32f0xx_ll_usb.c ****         }
 3780              		.loc 1 550 11 is_stmt 1 view .LVU1188
 3781 04ac B3B2     		uxth	r3, r6
 3782 04ae 6169     		ldr	r1, [r4, #20]
 3783 04b0 2800     		movs	r0, r5
ARM GAS  /tmp/cceQvfFh.s 			page 94


 3784              	.LVL422:
 550:Drivers/STM32F0xx_HAL_Driver/Src/stm32f0xx_ll_usb.c ****         }
 3785              		.loc 1 550 11 is_stmt 0 view .LVU1189
 3786 04b2 FFF7FEFF 		bl	USB_WritePMA
 3787              	.LVL423:
 550:Drivers/STM32F0xx_HAL_Driver/Src/stm32f0xx_ll_usb.c ****         }
 3788              		.loc 1 550 11 view .LVU1190
 3789 04b6 16E6     		b	.L111
 3790              	.LVL424:
 3791              	.L158:
 570:Drivers/STM32F0xx_HAL_Driver/Src/stm32f0xx_ll_usb.c ****         ep->xfer_len = 0U;
 3792              		.loc 1 570 9 is_stmt 1 view .LVU1191
 571:Drivers/STM32F0xx_HAL_Driver/Src/stm32f0xx_ll_usb.c ****       }
 3793              		.loc 1 571 9 view .LVU1192
 571:Drivers/STM32F0xx_HAL_Driver/Src/stm32f0xx_ll_usb.c ****       }
 3794              		.loc 1 571 22 is_stmt 0 view .LVU1193
 3795 04b8 0022     		movs	r2, #0
 3796 04ba A261     		str	r2, [r4, #24]
 570:Drivers/STM32F0xx_HAL_Driver/Src/stm32f0xx_ll_usb.c ****         ep->xfer_len = 0U;
 3797              		.loc 1 570 13 view .LVU1194
 3798 04bc 1900     		movs	r1, r3
 3799 04be B0E5     		b	.L159
 3800              	.LVL425:
 3801              	.L160:
 3802              	.LBB103:
 3803              	.LBB68:
 574:Drivers/STM32F0xx_HAL_Driver/Src/stm32f0xx_ll_usb.c ****     }
 3804              		.loc 1 574 7 is_stmt 1 discriminator 2 view .LVU1195
 3805 04c0 3E29     		cmp	r1, #62
 3806 04c2 09D8     		bhi	.L162
 574:Drivers/STM32F0xx_HAL_Driver/Src/stm32f0xx_ll_usb.c ****     }
 3807              		.loc 1 574 7 discriminator 4 view .LVU1196
 574:Drivers/STM32F0xx_HAL_Driver/Src/stm32f0xx_ll_usb.c ****     }
 3808              		.loc 1 574 7 discriminator 4 view .LVU1197
 3809 04c4 4A08     		lsrs	r2, r1, #1
 3810              	.LVL426:
 574:Drivers/STM32F0xx_HAL_Driver/Src/stm32f0xx_ll_usb.c ****     }
 3811              		.loc 1 574 7 view .LVU1198
 574:Drivers/STM32F0xx_HAL_Driver/Src/stm32f0xx_ll_usb.c ****     }
 3812              		.loc 1 574 7 is_stmt 0 discriminator 4 view .LVU1199
 3813 04c6 C907     		lsls	r1, r1, #31
 3814 04c8 00D5     		bpl	.L163
 3815              	.LVL427:
 574:Drivers/STM32F0xx_HAL_Driver/Src/stm32f0xx_ll_usb.c ****     }
 3816              		.loc 1 574 7 is_stmt 1 discriminator 6 view .LVU1200
 3817 04ca 0132     		adds	r2, r2, #1
 3818              	.LVL428:
 3819              	.L163:
 574:Drivers/STM32F0xx_HAL_Driver/Src/stm32f0xx_ll_usb.c ****     }
 3820              		.loc 1 574 7 discriminator 8 view .LVU1201
 3821 04cc 1988     		ldrh	r1, [r3]
 3822 04ce 9202     		lsls	r2, r2, #10
 3823              	.LVL429:
 574:Drivers/STM32F0xx_HAL_Driver/Src/stm32f0xx_ll_usb.c ****     }
 3824              		.loc 1 574 7 is_stmt 0 discriminator 8 view .LVU1202
 3825 04d0 92B2     		uxth	r2, r2
 3826 04d2 0A43     		orrs	r2, r1
ARM GAS  /tmp/cceQvfFh.s 			page 95


 3827 04d4 1A80     		strh	r2, [r3]
 574:Drivers/STM32F0xx_HAL_Driver/Src/stm32f0xx_ll_usb.c ****     }
 3828              		.loc 1 574 7 is_stmt 1 view .LVU1203
 3829 04d6 B9E5     		b	.L161
 3830              	.LVL430:
 3831              	.L162:
 574:Drivers/STM32F0xx_HAL_Driver/Src/stm32f0xx_ll_usb.c ****     }
 3832              		.loc 1 574 7 discriminator 5 view .LVU1204
 574:Drivers/STM32F0xx_HAL_Driver/Src/stm32f0xx_ll_usb.c ****     }
 3833              		.loc 1 574 7 discriminator 5 view .LVU1205
 3834 04d8 4A09     		lsrs	r2, r1, #5
 3835              	.LVL431:
 574:Drivers/STM32F0xx_HAL_Driver/Src/stm32f0xx_ll_usb.c ****     }
 3836              		.loc 1 574 7 view .LVU1206
 574:Drivers/STM32F0xx_HAL_Driver/Src/stm32f0xx_ll_usb.c ****     }
 3837              		.loc 1 574 7 is_stmt 0 discriminator 5 view .LVU1207
 3838 04da C906     		lsls	r1, r1, #27
 3839 04dc 00D1     		bne	.L164
 3840              	.LVL432:
 574:Drivers/STM32F0xx_HAL_Driver/Src/stm32f0xx_ll_usb.c ****     }
 3841              		.loc 1 574 7 is_stmt 1 discriminator 10 view .LVU1208
 3842 04de 013A     		subs	r2, r2, #1
 3843              	.LVL433:
 3844              	.L164:
 574:Drivers/STM32F0xx_HAL_Driver/Src/stm32f0xx_ll_usb.c ****     }
 3845              		.loc 1 574 7 discriminator 12 view .LVU1209
 3846 04e0 1988     		ldrh	r1, [r3]
 3847 04e2 9202     		lsls	r2, r2, #10
 3848              	.LVL434:
 574:Drivers/STM32F0xx_HAL_Driver/Src/stm32f0xx_ll_usb.c ****     }
 3849              		.loc 1 574 7 is_stmt 0 discriminator 12 view .LVU1210
 3850 04e4 92B2     		uxth	r2, r2
 3851 04e6 1143     		orrs	r1, r2
 3852 04e8 534A     		ldr	r2, .L224+4
 3853 04ea 0A43     		orrs	r2, r1
 3854 04ec 92B2     		uxth	r2, r2
 3855 04ee 1A80     		strh	r2, [r3]
 3856 04f0 ACE5     		b	.L161
 3857              	.LVL435:
 3858              	.L157:
 574:Drivers/STM32F0xx_HAL_Driver/Src/stm32f0xx_ll_usb.c ****     }
 3859              		.loc 1 574 7 discriminator 12 view .LVU1211
 3860              	.LBE68:
 3861              	.LBE103:
 581:Drivers/STM32F0xx_HAL_Driver/Src/stm32f0xx_ll_usb.c ****       {
 3862              		.loc 1 581 7 is_stmt 1 view .LVU1212
 581:Drivers/STM32F0xx_HAL_Driver/Src/stm32f0xx_ll_usb.c ****       {
 3863              		.loc 1 581 13 is_stmt 0 view .LVU1213
 3864 04f2 CA78     		ldrb	r2, [r1, #3]
 581:Drivers/STM32F0xx_HAL_Driver/Src/stm32f0xx_ll_usb.c ****       {
 3865              		.loc 1 581 10 view .LVU1214
 3866 04f4 022A     		cmp	r2, #2
 3867 04f6 3AD0     		beq	.L220
 600:Drivers/STM32F0xx_HAL_Driver/Src/stm32f0xx_ll_usb.c ****       {
 3868              		.loc 1 600 12 is_stmt 1 view .LVU1215
 600:Drivers/STM32F0xx_HAL_Driver/Src/stm32f0xx_ll_usb.c ****       {
 3869              		.loc 1 600 15 is_stmt 0 view .LVU1216
ARM GAS  /tmp/cceQvfFh.s 			page 96


 3870 04f8 012A     		cmp	r2, #1
 3871 04fa 00D0     		beq	.LCB4086
 3872 04fc 0EE1     		b	.L190	@long jump
 3873              	.LCB4086:
 603:Drivers/STM32F0xx_HAL_Driver/Src/stm32f0xx_ll_usb.c ****         {
 3874              		.loc 1 603 9 is_stmt 1 view .LVU1217
 603:Drivers/STM32F0xx_HAL_Driver/Src/stm32f0xx_ll_usb.c ****         {
 3875              		.loc 1 603 15 is_stmt 0 view .LVU1218
 3876 04fe 8969     		ldr	r1, [r1, #24]
 3877              	.LVL436:
 603:Drivers/STM32F0xx_HAL_Driver/Src/stm32f0xx_ll_usb.c ****         {
 3878              		.loc 1 603 30 view .LVU1219
 3879 0500 2269     		ldr	r2, [r4, #16]
 603:Drivers/STM32F0xx_HAL_Driver/Src/stm32f0xx_ll_usb.c ****         {
 3880              		.loc 1 603 12 view .LVU1220
 3881 0502 9142     		cmp	r1, r2
 3882 0504 00D8     		bhi	.LCB4092
 3883 0506 C4E0     		b	.L178	@long jump
 3884              	.LCB4092:
 605:Drivers/STM32F0xx_HAL_Driver/Src/stm32f0xx_ll_usb.c ****           ep->xfer_len -= len;
 3885              		.loc 1 605 11 is_stmt 1 view .LVU1221
 3886              	.LVL437:
 606:Drivers/STM32F0xx_HAL_Driver/Src/stm32f0xx_ll_usb.c ****         }
 3887              		.loc 1 606 11 view .LVU1222
 606:Drivers/STM32F0xx_HAL_Driver/Src/stm32f0xx_ll_usb.c ****         }
 3888              		.loc 1 606 24 is_stmt 0 view .LVU1223
 3889 0508 891A     		subs	r1, r1, r2
 3890 050a A161     		str	r1, [r4, #24]
 3891              	.L179:
 613:Drivers/STM32F0xx_HAL_Driver/Src/stm32f0xx_ll_usb.c ****       }
 3892              		.loc 1 613 9 is_stmt 1 view .LVU1224
 613:Drivers/STM32F0xx_HAL_Driver/Src/stm32f0xx_ll_usb.c ****       }
 3893              		.loc 1 613 9 view .LVU1225
 613:Drivers/STM32F0xx_HAL_Driver/Src/stm32f0xx_ll_usb.c ****       }
 3894              		.loc 1 613 9 view .LVU1226
 3895 050c 002B     		cmp	r3, #0
 3896 050e 14D1     		bne	.L180
 613:Drivers/STM32F0xx_HAL_Driver/Src/stm32f0xx_ll_usb.c ****       }
 3897              		.loc 1 613 9 discriminator 1 view .LVU1227
 3898              	.LBB104:
 613:Drivers/STM32F0xx_HAL_Driver/Src/stm32f0xx_ll_usb.c ****       }
 3899              		.loc 1 613 9 discriminator 1 view .LVU1228
 3900              	.LVL438:
 613:Drivers/STM32F0xx_HAL_Driver/Src/stm32f0xx_ll_usb.c ****       }
 3901              		.loc 1 613 9 view .LVU1229
 613:Drivers/STM32F0xx_HAL_Driver/Src/stm32f0xx_ll_usb.c ****       }
 3902              		.loc 1 613 9 view .LVU1230
 613:Drivers/STM32F0xx_HAL_Driver/Src/stm32f0xx_ll_usb.c ****       }
 3903              		.loc 1 613 9 is_stmt 0 discriminator 1 view .LVU1231
 3904 0510 5033     		adds	r3, r3, #80
 3905 0512 E95A     		ldrh	r1, [r5, r3]
 3906 0514 6918     		adds	r1, r5, r1
 3907              	.LVL439:
 613:Drivers/STM32F0xx_HAL_Driver/Src/stm32f0xx_ll_usb.c ****       }
 3908              		.loc 1 613 9 is_stmt 1 view .LVU1232
 613:Drivers/STM32F0xx_HAL_Driver/Src/stm32f0xx_ll_usb.c ****       }
 3909              		.loc 1 613 9 is_stmt 0 discriminator 1 view .LVU1233
ARM GAS  /tmp/cceQvfFh.s 			page 97


 3910 0516 2378     		ldrb	r3, [r4]
 3911 0518 DB00     		lsls	r3, r3, #3
 3912 051a 5B18     		adds	r3, r3, r1
 3913 051c 4549     		ldr	r1, .L224
 3914              	.LVL440:
 613:Drivers/STM32F0xx_HAL_Driver/Src/stm32f0xx_ll_usb.c ****       }
 3915              		.loc 1 613 9 discriminator 1 view .LVU1234
 3916 051e 8C46     		mov	ip, r1
 3917 0520 6344     		add	r3, r3, ip
 3918              	.LVL441:
 613:Drivers/STM32F0xx_HAL_Driver/Src/stm32f0xx_ll_usb.c ****       }
 3919              		.loc 1 613 9 is_stmt 1 view .LVU1235
 3920              	.LBB105:
 613:Drivers/STM32F0xx_HAL_Driver/Src/stm32f0xx_ll_usb.c ****       }
 3921              		.loc 1 613 9 view .LVU1236
 613:Drivers/STM32F0xx_HAL_Driver/Src/stm32f0xx_ll_usb.c ****       }
 3922              		.loc 1 613 9 view .LVU1237
 613:Drivers/STM32F0xx_HAL_Driver/Src/stm32f0xx_ll_usb.c ****       }
 3923              		.loc 1 613 9 is_stmt 0 discriminator 1 view .LVU1238
 3924 0522 1988     		ldrh	r1, [r3]
 3925 0524 8905     		lsls	r1, r1, #22
 3926 0526 890D     		lsrs	r1, r1, #22
 3927 0528 1980     		strh	r1, [r3]
 613:Drivers/STM32F0xx_HAL_Driver/Src/stm32f0xx_ll_usb.c ****       }
 3928              		.loc 1 613 9 is_stmt 1 view .LVU1239
 613:Drivers/STM32F0xx_HAL_Driver/Src/stm32f0xx_ll_usb.c ****       }
 3929              		.loc 1 613 9 is_stmt 0 discriminator 1 view .LVU1240
 3930 052a 002A     		cmp	r2, #0
 3931 052c 00D0     		beq	.LCB4139
 3932 052e B4E0     		b	.L181	@long jump
 3933              	.LCB4139:
 613:Drivers/STM32F0xx_HAL_Driver/Src/stm32f0xx_ll_usb.c ****       }
 3934              		.loc 1 613 9 is_stmt 1 discriminator 3 view .LVU1241
 3935 0530 1988     		ldrh	r1, [r3]
 3936 0532 4148     		ldr	r0, .L224+4
 3937              	.LVL442:
 613:Drivers/STM32F0xx_HAL_Driver/Src/stm32f0xx_ll_usb.c ****       }
 3938              		.loc 1 613 9 is_stmt 0 discriminator 3 view .LVU1242
 3939 0534 0143     		orrs	r1, r0
 3940 0536 89B2     		uxth	r1, r1
 3941 0538 1980     		strh	r1, [r3]
 3942              	.LVL443:
 3943              	.L180:
 613:Drivers/STM32F0xx_HAL_Driver/Src/stm32f0xx_ll_usb.c ****       }
 3944              		.loc 1 613 9 discriminator 3 view .LVU1243
 3945              	.LBE105:
 3946              	.LBE104:
 613:Drivers/STM32F0xx_HAL_Driver/Src/stm32f0xx_ll_usb.c ****       }
 3947              		.loc 1 613 9 is_stmt 1 discriminator 18 view .LVU1244
 613:Drivers/STM32F0xx_HAL_Driver/Src/stm32f0xx_ll_usb.c ****       }
 3948              		.loc 1 613 9 discriminator 18 view .LVU1245
 613:Drivers/STM32F0xx_HAL_Driver/Src/stm32f0xx_ll_usb.c ****       }
 3949              		.loc 1 613 9 discriminator 18 view .LVU1246
 3950              	.LBB107:
 613:Drivers/STM32F0xx_HAL_Driver/Src/stm32f0xx_ll_usb.c ****       }
 3951              		.loc 1 613 9 discriminator 18 view .LVU1247
 613:Drivers/STM32F0xx_HAL_Driver/Src/stm32f0xx_ll_usb.c ****       }
ARM GAS  /tmp/cceQvfFh.s 			page 98


 3952              		.loc 1 613 9 view .LVU1248
 613:Drivers/STM32F0xx_HAL_Driver/Src/stm32f0xx_ll_usb.c ****       }
 3953              		.loc 1 613 9 view .LVU1249
 613:Drivers/STM32F0xx_HAL_Driver/Src/stm32f0xx_ll_usb.c ****       }
 3954              		.loc 1 613 9 is_stmt 0 discriminator 18 view .LVU1250
 3955 053a 6378     		ldrb	r3, [r4, #1]
 3956 053c 002B     		cmp	r3, #0
 3957 053e 00D0     		beq	.LCB4167
 3958 0540 DDE0     		b	.L185	@long jump
 3959              	.LCB4167:
 613:Drivers/STM32F0xx_HAL_Driver/Src/stm32f0xx_ll_usb.c ****       }
 3960              		.loc 1 613 9 is_stmt 1 discriminator 19 view .LVU1251
 3961              	.LBB108:
 613:Drivers/STM32F0xx_HAL_Driver/Src/stm32f0xx_ll_usb.c ****       }
 3962              		.loc 1 613 9 discriminator 19 view .LVU1252
 3963              	.LVL444:
 613:Drivers/STM32F0xx_HAL_Driver/Src/stm32f0xx_ll_usb.c ****       }
 3964              		.loc 1 613 9 view .LVU1253
 613:Drivers/STM32F0xx_HAL_Driver/Src/stm32f0xx_ll_usb.c ****       }
 3965              		.loc 1 613 9 view .LVU1254
 613:Drivers/STM32F0xx_HAL_Driver/Src/stm32f0xx_ll_usb.c ****       }
 3966              		.loc 1 613 9 is_stmt 0 discriminator 19 view .LVU1255
 3967 0542 5033     		adds	r3, r3, #80
 3968 0544 E95A     		ldrh	r1, [r5, r3]
 3969 0546 6918     		adds	r1, r5, r1
 3970              	.LVL445:
 613:Drivers/STM32F0xx_HAL_Driver/Src/stm32f0xx_ll_usb.c ****       }
 3971              		.loc 1 613 9 is_stmt 1 view .LVU1256
 613:Drivers/STM32F0xx_HAL_Driver/Src/stm32f0xx_ll_usb.c ****       }
 3972              		.loc 1 613 9 is_stmt 0 discriminator 19 view .LVU1257
 3973 0548 2378     		ldrb	r3, [r4]
 3974 054a DB00     		lsls	r3, r3, #3
 3975 054c 5B18     		adds	r3, r3, r1
 3976 054e 3B49     		ldr	r1, .L224+8
 3977              	.LVL446:
 613:Drivers/STM32F0xx_HAL_Driver/Src/stm32f0xx_ll_usb.c ****       }
 3978              		.loc 1 613 9 discriminator 19 view .LVU1258
 3979 0550 8C46     		mov	ip, r1
 3980 0552 6344     		add	r3, r3, ip
 3981              	.LVL447:
 613:Drivers/STM32F0xx_HAL_Driver/Src/stm32f0xx_ll_usb.c ****       }
 3982              		.loc 1 613 9 is_stmt 1 view .LVU1259
 3983              	.LBB109:
 613:Drivers/STM32F0xx_HAL_Driver/Src/stm32f0xx_ll_usb.c ****       }
 3984              		.loc 1 613 9 view .LVU1260
 613:Drivers/STM32F0xx_HAL_Driver/Src/stm32f0xx_ll_usb.c ****       }
 3985              		.loc 1 613 9 view .LVU1261
 613:Drivers/STM32F0xx_HAL_Driver/Src/stm32f0xx_ll_usb.c ****       }
 3986              		.loc 1 613 9 is_stmt 0 discriminator 19 view .LVU1262
 3987 0554 1988     		ldrh	r1, [r3]
 3988 0556 8905     		lsls	r1, r1, #22
 3989 0558 890D     		lsrs	r1, r1, #22
 3990 055a 1980     		strh	r1, [r3]
 613:Drivers/STM32F0xx_HAL_Driver/Src/stm32f0xx_ll_usb.c ****       }
 3991              		.loc 1 613 9 is_stmt 1 view .LVU1263
 613:Drivers/STM32F0xx_HAL_Driver/Src/stm32f0xx_ll_usb.c ****       }
 3992              		.loc 1 613 9 is_stmt 0 discriminator 19 view .LVU1264
ARM GAS  /tmp/cceQvfFh.s 			page 99


 3993 055c 002A     		cmp	r2, #0
 3994 055e 00D0     		beq	.LCB4199
 3995 0560 B4E0     		b	.L186	@long jump
 3996              	.LCB4199:
 613:Drivers/STM32F0xx_HAL_Driver/Src/stm32f0xx_ll_usb.c ****       }
 3997              		.loc 1 613 9 is_stmt 1 discriminator 21 view .LVU1265
 3998 0562 1A88     		ldrh	r2, [r3]
 3999              	.LVL448:
 613:Drivers/STM32F0xx_HAL_Driver/Src/stm32f0xx_ll_usb.c ****       }
 4000              		.loc 1 613 9 is_stmt 0 discriminator 21 view .LVU1266
 4001 0564 3449     		ldr	r1, .L224+4
 4002 0566 0A43     		orrs	r2, r1
 4003 0568 92B2     		uxth	r2, r2
 4004 056a 1A80     		strh	r2, [r3]
 4005 056c 6EE5     		b	.L161
 4006              	.LVL449:
 4007              	.L220:
 613:Drivers/STM32F0xx_HAL_Driver/Src/stm32f0xx_ll_usb.c ****       }
 4008              		.loc 1 613 9 discriminator 21 view .LVU1267
 4009              	.LBE109:
 4010              	.LBE108:
 4011              	.LBE107:
 583:Drivers/STM32F0xx_HAL_Driver/Src/stm32f0xx_ll_usb.c **** 
 4012              		.loc 1 583 9 is_stmt 1 view .LVU1268
 583:Drivers/STM32F0xx_HAL_Driver/Src/stm32f0xx_ll_usb.c **** 
 4013              		.loc 1 583 9 view .LVU1269
 583:Drivers/STM32F0xx_HAL_Driver/Src/stm32f0xx_ll_usb.c **** 
 4014              		.loc 1 583 9 view .LVU1270
 4015 056e 002B     		cmp	r3, #0
 4016 0570 14D1     		bne	.L166
 583:Drivers/STM32F0xx_HAL_Driver/Src/stm32f0xx_ll_usb.c **** 
 4017              		.loc 1 583 9 discriminator 1 view .LVU1271
 4018              	.LBB112:
 583:Drivers/STM32F0xx_HAL_Driver/Src/stm32f0xx_ll_usb.c **** 
 4019              		.loc 1 583 9 discriminator 1 view .LVU1272
 4020              	.LVL450:
 583:Drivers/STM32F0xx_HAL_Driver/Src/stm32f0xx_ll_usb.c **** 
 4021              		.loc 1 583 9 view .LVU1273
 583:Drivers/STM32F0xx_HAL_Driver/Src/stm32f0xx_ll_usb.c **** 
 4022              		.loc 1 583 9 view .LVU1274
 583:Drivers/STM32F0xx_HAL_Driver/Src/stm32f0xx_ll_usb.c **** 
 4023              		.loc 1 583 9 is_stmt 0 discriminator 1 view .LVU1275
 4024 0572 5033     		adds	r3, r3, #80
 4025 0574 C25A     		ldrh	r2, [r0, r3]
 4026 0576 8218     		adds	r2, r0, r2
 4027              	.LVL451:
 583:Drivers/STM32F0xx_HAL_Driver/Src/stm32f0xx_ll_usb.c **** 
 4028              		.loc 1 583 9 is_stmt 1 view .LVU1276
 583:Drivers/STM32F0xx_HAL_Driver/Src/stm32f0xx_ll_usb.c **** 
 4029              		.loc 1 583 9 is_stmt 0 discriminator 1 view .LVU1277
 4030 0578 0B78     		ldrb	r3, [r1]
 4031 057a DB00     		lsls	r3, r3, #3
 4032 057c 9B18     		adds	r3, r3, r2
 4033 057e 2D4A     		ldr	r2, .L224
 4034              	.LVL452:
 583:Drivers/STM32F0xx_HAL_Driver/Src/stm32f0xx_ll_usb.c **** 
 4035              		.loc 1 583 9 discriminator 1 view .LVU1278
ARM GAS  /tmp/cceQvfFh.s 			page 100


 4036 0580 9446     		mov	ip, r2
 4037 0582 6344     		add	r3, r3, ip
 4038              	.LVL453:
 583:Drivers/STM32F0xx_HAL_Driver/Src/stm32f0xx_ll_usb.c **** 
 4039              		.loc 1 583 9 is_stmt 1 view .LVU1279
 4040              	.LBB113:
 583:Drivers/STM32F0xx_HAL_Driver/Src/stm32f0xx_ll_usb.c **** 
 4041              		.loc 1 583 9 view .LVU1280
 583:Drivers/STM32F0xx_HAL_Driver/Src/stm32f0xx_ll_usb.c **** 
 4042              		.loc 1 583 9 view .LVU1281
 583:Drivers/STM32F0xx_HAL_Driver/Src/stm32f0xx_ll_usb.c **** 
 4043              		.loc 1 583 9 is_stmt 0 discriminator 1 view .LVU1282
 4044 0584 1A88     		ldrh	r2, [r3]
 4045 0586 9205     		lsls	r2, r2, #22
 4046 0588 920D     		lsrs	r2, r2, #22
 4047 058a 1A80     		strh	r2, [r3]
 583:Drivers/STM32F0xx_HAL_Driver/Src/stm32f0xx_ll_usb.c **** 
 4048              		.loc 1 583 9 is_stmt 1 view .LVU1283
 583:Drivers/STM32F0xx_HAL_Driver/Src/stm32f0xx_ll_usb.c **** 
 4049              		.loc 1 583 9 is_stmt 0 discriminator 1 view .LVU1284
 4050 058c 0A69     		ldr	r2, [r1, #16]
 4051 058e 002A     		cmp	r2, #0
 4052 0590 1DD1     		bne	.L167
 583:Drivers/STM32F0xx_HAL_Driver/Src/stm32f0xx_ll_usb.c **** 
 4053              		.loc 1 583 9 is_stmt 1 discriminator 3 view .LVU1285
 4054 0592 1A88     		ldrh	r2, [r3]
 4055 0594 2849     		ldr	r1, .L224+4
 4056              	.LVL454:
 583:Drivers/STM32F0xx_HAL_Driver/Src/stm32f0xx_ll_usb.c **** 
 4057              		.loc 1 583 9 is_stmt 0 discriminator 3 view .LVU1286
 4058 0596 0A43     		orrs	r2, r1
 4059 0598 92B2     		uxth	r2, r2
 4060 059a 1A80     		strh	r2, [r3]
 4061              	.LVL455:
 4062              	.L166:
 583:Drivers/STM32F0xx_HAL_Driver/Src/stm32f0xx_ll_usb.c **** 
 4063              		.loc 1 583 9 discriminator 3 view .LVU1287
 4064              	.LBE113:
 4065              	.LBE112:
 583:Drivers/STM32F0xx_HAL_Driver/Src/stm32f0xx_ll_usb.c **** 
 4066              		.loc 1 583 9 is_stmt 1 discriminator 18 view .LVU1288
 583:Drivers/STM32F0xx_HAL_Driver/Src/stm32f0xx_ll_usb.c **** 
 4067              		.loc 1 583 9 discriminator 18 view .LVU1289
 583:Drivers/STM32F0xx_HAL_Driver/Src/stm32f0xx_ll_usb.c **** 
 4068              		.loc 1 583 9 discriminator 18 view .LVU1290
 4069              	.LBB115:
 583:Drivers/STM32F0xx_HAL_Driver/Src/stm32f0xx_ll_usb.c **** 
 4070              		.loc 1 583 9 discriminator 18 view .LVU1291
 583:Drivers/STM32F0xx_HAL_Driver/Src/stm32f0xx_ll_usb.c **** 
 4071              		.loc 1 583 9 view .LVU1292
 583:Drivers/STM32F0xx_HAL_Driver/Src/stm32f0xx_ll_usb.c **** 
 4072              		.loc 1 583 9 view .LVU1293
 583:Drivers/STM32F0xx_HAL_Driver/Src/stm32f0xx_ll_usb.c **** 
 4073              		.loc 1 583 9 is_stmt 0 discriminator 18 view .LVU1294
 4074 059c 6378     		ldrb	r3, [r4, #1]
 4075 059e 002B     		cmp	r3, #0
 4076 05a0 52D1     		bne	.L171
ARM GAS  /tmp/cceQvfFh.s 			page 101


 583:Drivers/STM32F0xx_HAL_Driver/Src/stm32f0xx_ll_usb.c **** 
 4077              		.loc 1 583 9 is_stmt 1 discriminator 19 view .LVU1295
 4078              	.LBB116:
 583:Drivers/STM32F0xx_HAL_Driver/Src/stm32f0xx_ll_usb.c **** 
 4079              		.loc 1 583 9 discriminator 19 view .LVU1296
 4080              	.LVL456:
 583:Drivers/STM32F0xx_HAL_Driver/Src/stm32f0xx_ll_usb.c **** 
 4081              		.loc 1 583 9 view .LVU1297
 583:Drivers/STM32F0xx_HAL_Driver/Src/stm32f0xx_ll_usb.c **** 
 4082              		.loc 1 583 9 view .LVU1298
 583:Drivers/STM32F0xx_HAL_Driver/Src/stm32f0xx_ll_usb.c **** 
 4083              		.loc 1 583 9 is_stmt 0 discriminator 19 view .LVU1299
 4084 05a2 5033     		adds	r3, r3, #80
 4085 05a4 EA5A     		ldrh	r2, [r5, r3]
 4086 05a6 AA18     		adds	r2, r5, r2
 4087              	.LVL457:
 583:Drivers/STM32F0xx_HAL_Driver/Src/stm32f0xx_ll_usb.c **** 
 4088              		.loc 1 583 9 is_stmt 1 view .LVU1300
 583:Drivers/STM32F0xx_HAL_Driver/Src/stm32f0xx_ll_usb.c **** 
 4089              		.loc 1 583 9 is_stmt 0 discriminator 19 view .LVU1301
 4090 05a8 2378     		ldrb	r3, [r4]
 4091 05aa DB00     		lsls	r3, r3, #3
 4092 05ac 9B18     		adds	r3, r3, r2
 4093 05ae 234A     		ldr	r2, .L224+8
 4094              	.LVL458:
 583:Drivers/STM32F0xx_HAL_Driver/Src/stm32f0xx_ll_usb.c **** 
 4095              		.loc 1 583 9 discriminator 19 view .LVU1302
 4096 05b0 9446     		mov	ip, r2
 4097 05b2 6344     		add	r3, r3, ip
 4098              	.LVL459:
 583:Drivers/STM32F0xx_HAL_Driver/Src/stm32f0xx_ll_usb.c **** 
 4099              		.loc 1 583 9 is_stmt 1 view .LVU1303
 4100              	.LBB117:
 583:Drivers/STM32F0xx_HAL_Driver/Src/stm32f0xx_ll_usb.c **** 
 4101              		.loc 1 583 9 view .LVU1304
 583:Drivers/STM32F0xx_HAL_Driver/Src/stm32f0xx_ll_usb.c **** 
 4102              		.loc 1 583 9 view .LVU1305
 583:Drivers/STM32F0xx_HAL_Driver/Src/stm32f0xx_ll_usb.c **** 
 4103              		.loc 1 583 9 is_stmt 0 discriminator 19 view .LVU1306
 4104 05b4 1A88     		ldrh	r2, [r3]
 4105 05b6 9205     		lsls	r2, r2, #22
 4106 05b8 920D     		lsrs	r2, r2, #22
 4107 05ba 1A80     		strh	r2, [r3]
 583:Drivers/STM32F0xx_HAL_Driver/Src/stm32f0xx_ll_usb.c **** 
 4108              		.loc 1 583 9 is_stmt 1 view .LVU1307
 583:Drivers/STM32F0xx_HAL_Driver/Src/stm32f0xx_ll_usb.c **** 
 4109              		.loc 1 583 9 is_stmt 0 discriminator 19 view .LVU1308
 4110 05bc 2269     		ldr	r2, [r4, #16]
 4111 05be 002A     		cmp	r2, #0
 4112 05c0 1ED1     		bne	.L172
 583:Drivers/STM32F0xx_HAL_Driver/Src/stm32f0xx_ll_usb.c **** 
 4113              		.loc 1 583 9 is_stmt 1 discriminator 21 view .LVU1309
 4114 05c2 1A88     		ldrh	r2, [r3]
 4115 05c4 1C49     		ldr	r1, .L224+4
 4116 05c6 0A43     		orrs	r2, r1
 4117 05c8 92B2     		uxth	r2, r2
 4118 05ca 1A80     		strh	r2, [r3]
ARM GAS  /tmp/cceQvfFh.s 			page 102


 4119 05cc 3EE0     		b	.L173
 4120              	.LVL460:
 4121              	.L167:
 583:Drivers/STM32F0xx_HAL_Driver/Src/stm32f0xx_ll_usb.c **** 
 4122              		.loc 1 583 9 is_stmt 0 discriminator 21 view .LVU1310
 4123              	.LBE117:
 4124              	.LBE116:
 4125              	.LBE115:
 4126              	.LBB120:
 4127              	.LBB114:
 583:Drivers/STM32F0xx_HAL_Driver/Src/stm32f0xx_ll_usb.c **** 
 4128              		.loc 1 583 9 is_stmt 1 discriminator 4 view .LVU1311
 4129 05ce 3E2A     		cmp	r2, #62
 4130 05d0 09D8     		bhi	.L168
 583:Drivers/STM32F0xx_HAL_Driver/Src/stm32f0xx_ll_usb.c **** 
 4131              		.loc 1 583 9 discriminator 6 view .LVU1312
 583:Drivers/STM32F0xx_HAL_Driver/Src/stm32f0xx_ll_usb.c **** 
 4132              		.loc 1 583 9 discriminator 6 view .LVU1313
 4133 05d2 5108     		lsrs	r1, r2, #1
 4134              	.LVL461:
 583:Drivers/STM32F0xx_HAL_Driver/Src/stm32f0xx_ll_usb.c **** 
 4135              		.loc 1 583 9 view .LVU1314
 583:Drivers/STM32F0xx_HAL_Driver/Src/stm32f0xx_ll_usb.c **** 
 4136              		.loc 1 583 9 is_stmt 0 discriminator 6 view .LVU1315
 4137 05d4 D207     		lsls	r2, r2, #31
 4138 05d6 00D5     		bpl	.L169
 583:Drivers/STM32F0xx_HAL_Driver/Src/stm32f0xx_ll_usb.c **** 
 4139              		.loc 1 583 9 is_stmt 1 discriminator 8 view .LVU1316
 4140 05d8 0131     		adds	r1, r1, #1
 4141              	.LVL462:
 4142              	.L169:
 583:Drivers/STM32F0xx_HAL_Driver/Src/stm32f0xx_ll_usb.c **** 
 4143              		.loc 1 583 9 discriminator 10 view .LVU1317
 4144 05da 1A88     		ldrh	r2, [r3]
 4145 05dc 8902     		lsls	r1, r1, #10
 4146              	.LVL463:
 583:Drivers/STM32F0xx_HAL_Driver/Src/stm32f0xx_ll_usb.c **** 
 4147              		.loc 1 583 9 is_stmt 0 discriminator 10 view .LVU1318
 4148 05de 89B2     		uxth	r1, r1
 4149 05e0 0A43     		orrs	r2, r1
 4150 05e2 1A80     		strh	r2, [r3]
 583:Drivers/STM32F0xx_HAL_Driver/Src/stm32f0xx_ll_usb.c **** 
 4151              		.loc 1 583 9 is_stmt 1 view .LVU1319
 4152 05e4 DAE7     		b	.L166
 4153              	.LVL464:
 4154              	.L168:
 583:Drivers/STM32F0xx_HAL_Driver/Src/stm32f0xx_ll_usb.c **** 
 4155              		.loc 1 583 9 discriminator 7 view .LVU1320
 583:Drivers/STM32F0xx_HAL_Driver/Src/stm32f0xx_ll_usb.c **** 
 4156              		.loc 1 583 9 discriminator 7 view .LVU1321
 4157 05e6 5109     		lsrs	r1, r2, #5
 4158              	.LVL465:
 583:Drivers/STM32F0xx_HAL_Driver/Src/stm32f0xx_ll_usb.c **** 
 4159              		.loc 1 583 9 view .LVU1322
 583:Drivers/STM32F0xx_HAL_Driver/Src/stm32f0xx_ll_usb.c **** 
 4160              		.loc 1 583 9 is_stmt 0 discriminator 7 view .LVU1323
 4161 05e8 D206     		lsls	r2, r2, #27
ARM GAS  /tmp/cceQvfFh.s 			page 103


 4162 05ea 00D1     		bne	.L170
 583:Drivers/STM32F0xx_HAL_Driver/Src/stm32f0xx_ll_usb.c **** 
 4163              		.loc 1 583 9 is_stmt 1 discriminator 12 view .LVU1324
 4164 05ec 0139     		subs	r1, r1, #1
 4165              	.LVL466:
 4166              	.L170:
 583:Drivers/STM32F0xx_HAL_Driver/Src/stm32f0xx_ll_usb.c **** 
 4167              		.loc 1 583 9 discriminator 14 view .LVU1325
 4168 05ee 1A88     		ldrh	r2, [r3]
 4169 05f0 8902     		lsls	r1, r1, #10
 4170              	.LVL467:
 583:Drivers/STM32F0xx_HAL_Driver/Src/stm32f0xx_ll_usb.c **** 
 4171              		.loc 1 583 9 is_stmt 0 discriminator 14 view .LVU1326
 4172 05f2 89B2     		uxth	r1, r1
 4173 05f4 1143     		orrs	r1, r2
 4174 05f6 104A     		ldr	r2, .L224+4
 4175 05f8 0A43     		orrs	r2, r1
 4176 05fa 92B2     		uxth	r2, r2
 4177 05fc 1A80     		strh	r2, [r3]
 4178 05fe CDE7     		b	.L166
 4179              	.LVL468:
 4180              	.L172:
 583:Drivers/STM32F0xx_HAL_Driver/Src/stm32f0xx_ll_usb.c **** 
 4181              		.loc 1 583 9 discriminator 14 view .LVU1327
 4182              	.LBE114:
 4183              	.LBE120:
 4184              	.LBB121:
 4185              	.LBB119:
 4186              	.LBB118:
 583:Drivers/STM32F0xx_HAL_Driver/Src/stm32f0xx_ll_usb.c **** 
 4187              		.loc 1 583 9 is_stmt 1 discriminator 22 view .LVU1328
 4188 0600 3E2A     		cmp	r2, #62
 4189 0602 09D8     		bhi	.L174
 583:Drivers/STM32F0xx_HAL_Driver/Src/stm32f0xx_ll_usb.c **** 
 4190              		.loc 1 583 9 discriminator 24 view .LVU1329
 583:Drivers/STM32F0xx_HAL_Driver/Src/stm32f0xx_ll_usb.c **** 
 4191              		.loc 1 583 9 discriminator 24 view .LVU1330
 4192 0604 5108     		lsrs	r1, r2, #1
 4193              	.LVL469:
 583:Drivers/STM32F0xx_HAL_Driver/Src/stm32f0xx_ll_usb.c **** 
 4194              		.loc 1 583 9 view .LVU1331
 583:Drivers/STM32F0xx_HAL_Driver/Src/stm32f0xx_ll_usb.c **** 
 4195              		.loc 1 583 9 is_stmt 0 discriminator 24 view .LVU1332
 4196 0606 D207     		lsls	r2, r2, #31
 4197 0608 00D5     		bpl	.L175
 583:Drivers/STM32F0xx_HAL_Driver/Src/stm32f0xx_ll_usb.c **** 
 4198              		.loc 1 583 9 is_stmt 1 discriminator 26 view .LVU1333
 4199 060a 0131     		adds	r1, r1, #1
 4200              	.LVL470:
 4201              	.L175:
 583:Drivers/STM32F0xx_HAL_Driver/Src/stm32f0xx_ll_usb.c **** 
 4202              		.loc 1 583 9 discriminator 28 view .LVU1334
 4203 060c 1A88     		ldrh	r2, [r3]
 4204 060e 8902     		lsls	r1, r1, #10
 4205              	.LVL471:
 583:Drivers/STM32F0xx_HAL_Driver/Src/stm32f0xx_ll_usb.c **** 
 4206              		.loc 1 583 9 is_stmt 0 discriminator 28 view .LVU1335
ARM GAS  /tmp/cceQvfFh.s 			page 104


 4207 0610 89B2     		uxth	r1, r1
 4208 0612 0A43     		orrs	r2, r1
 4209 0614 1A80     		strh	r2, [r3]
 583:Drivers/STM32F0xx_HAL_Driver/Src/stm32f0xx_ll_usb.c **** 
 4210              		.loc 1 583 9 is_stmt 1 view .LVU1336
 4211 0616 19E0     		b	.L173
 4212              	.LVL472:
 4213              	.L174:
 583:Drivers/STM32F0xx_HAL_Driver/Src/stm32f0xx_ll_usb.c **** 
 4214              		.loc 1 583 9 discriminator 25 view .LVU1337
 583:Drivers/STM32F0xx_HAL_Driver/Src/stm32f0xx_ll_usb.c **** 
 4215              		.loc 1 583 9 discriminator 25 view .LVU1338
 4216 0618 5109     		lsrs	r1, r2, #5
 4217              	.LVL473:
 583:Drivers/STM32F0xx_HAL_Driver/Src/stm32f0xx_ll_usb.c **** 
 4218              		.loc 1 583 9 view .LVU1339
 583:Drivers/STM32F0xx_HAL_Driver/Src/stm32f0xx_ll_usb.c **** 
 4219              		.loc 1 583 9 is_stmt 0 discriminator 25 view .LVU1340
 4220 061a D206     		lsls	r2, r2, #27
 4221 061c 00D1     		bne	.L176
 583:Drivers/STM32F0xx_HAL_Driver/Src/stm32f0xx_ll_usb.c **** 
 4222              		.loc 1 583 9 is_stmt 1 discriminator 30 view .LVU1341
 4223 061e 0139     		subs	r1, r1, #1
 4224              	.LVL474:
 4225              	.L176:
 583:Drivers/STM32F0xx_HAL_Driver/Src/stm32f0xx_ll_usb.c **** 
 4226              		.loc 1 583 9 discriminator 32 view .LVU1342
 4227 0620 1A88     		ldrh	r2, [r3]
 4228 0622 8902     		lsls	r1, r1, #10
 4229              	.LVL475:
 583:Drivers/STM32F0xx_HAL_Driver/Src/stm32f0xx_ll_usb.c **** 
 4230              		.loc 1 583 9 is_stmt 0 discriminator 32 view .LVU1343
 4231 0624 89B2     		uxth	r1, r1
 4232 0626 1143     		orrs	r1, r2
 4233 0628 034A     		ldr	r2, .L224+4
 4234 062a 0A43     		orrs	r2, r1
 4235 062c 92B2     		uxth	r2, r2
 4236 062e 1A80     		strh	r2, [r3]
 4237 0630 0CE0     		b	.L173
 4238              	.L225:
 4239 0632 C046     		.align	2
 4240              	.L224:
 4241 0634 02040000 		.word	1026
 4242 0638 0080FFFF 		.word	-32768
 4243 063c 06040000 		.word	1030
 4244 0640 8F8EFFFF 		.word	-29041
 4245 0644 8080FFFF 		.word	-32640
 4246              	.LVL476:
 4247              	.L171:
 583:Drivers/STM32F0xx_HAL_Driver/Src/stm32f0xx_ll_usb.c **** 
 4248              		.loc 1 583 9 discriminator 32 view .LVU1344
 4249              	.LBE118:
 4250              	.LBE119:
 583:Drivers/STM32F0xx_HAL_Driver/Src/stm32f0xx_ll_usb.c **** 
 4251              		.loc 1 583 9 is_stmt 1 discriminator 20 view .LVU1345
 4252 0648 012B     		cmp	r3, #1
 4253 064a 16D0     		beq	.L221
ARM GAS  /tmp/cceQvfFh.s 			page 105


 4254              	.LVL477:
 4255              	.L173:
 583:Drivers/STM32F0xx_HAL_Driver/Src/stm32f0xx_ll_usb.c **** 
 4256              		.loc 1 583 9 is_stmt 0 discriminator 20 view .LVU1346
 4257              	.LBE121:
 583:Drivers/STM32F0xx_HAL_Driver/Src/stm32f0xx_ll_usb.c **** 
 4258              		.loc 1 583 9 is_stmt 1 discriminator 36 view .LVU1347
 583:Drivers/STM32F0xx_HAL_Driver/Src/stm32f0xx_ll_usb.c **** 
 4259              		.loc 1 583 9 discriminator 36 view .LVU1348
 586:Drivers/STM32F0xx_HAL_Driver/Src/stm32f0xx_ll_usb.c ****         {
 4260              		.loc 1 586 9 view .LVU1349
 586:Drivers/STM32F0xx_HAL_Driver/Src/stm32f0xx_ll_usb.c ****         {
 4261              		.loc 1 586 15 is_stmt 0 view .LVU1350
 4262 064c E369     		ldr	r3, [r4, #28]
 586:Drivers/STM32F0xx_HAL_Driver/Src/stm32f0xx_ll_usb.c ****         {
 4263              		.loc 1 586 12 view .LVU1351
 4264 064e 002B     		cmp	r3, #0
 4265 0650 00D1     		bne	.LCB4520
 4266 0652 FBE4     		b	.L161	@long jump
 4267              	.LCB4520:
 589:Drivers/STM32F0xx_HAL_Driver/Src/stm32f0xx_ll_usb.c **** 
 4268              		.loc 1 589 11 is_stmt 1 view .LVU1352
 589:Drivers/STM32F0xx_HAL_Driver/Src/stm32f0xx_ll_usb.c **** 
 4269              		.loc 1 589 20 is_stmt 0 view .LVU1353
 4270 0654 2378     		ldrb	r3, [r4]
 4271 0656 9B00     		lsls	r3, r3, #2
 4272 0658 EB18     		adds	r3, r5, r3
 589:Drivers/STM32F0xx_HAL_Driver/Src/stm32f0xx_ll_usb.c **** 
 4273              		.loc 1 589 18 view .LVU1354
 4274 065a 1A88     		ldrh	r2, [r3]
 4275              	.LVL478:
 592:Drivers/STM32F0xx_HAL_Driver/Src/stm32f0xx_ll_usb.c ****               (((wEPVal & USB_EP_DTOG_RX) == 0U) && ((wEPVal & USB_EP_DTOG_TX) == 0U)))
 4276              		.loc 1 592 11 is_stmt 1 view .LVU1355
 4277 065c 3049     		ldr	r1, .L226
 4278 065e 0A40     		ands	r2, r1
 4279              	.LVL479:
 592:Drivers/STM32F0xx_HAL_Driver/Src/stm32f0xx_ll_usb.c ****               (((wEPVal & USB_EP_DTOG_RX) == 0U) && ((wEPVal & USB_EP_DTOG_TX) == 0U)))
 4280              		.loc 1 592 14 is_stmt 0 view .LVU1356
 4281 0660 8A42     		cmp	r2, r1
 4282 0662 02D0     		beq	.L177
 592:Drivers/STM32F0xx_HAL_Driver/Src/stm32f0xx_ll_usb.c ****               (((wEPVal & USB_EP_DTOG_RX) == 0U) && ((wEPVal & USB_EP_DTOG_TX) == 0U)))
 4283              		.loc 1 592 88 discriminator 1 view .LVU1357
 4284 0664 002A     		cmp	r2, #0
 4285 0666 00D0     		beq	.LCB4536
 4286 0668 F0E4     		b	.L161	@long jump
 4287              	.LCB4536:
 4288              	.L177:
 595:Drivers/STM32F0xx_HAL_Driver/Src/stm32f0xx_ll_usb.c ****           }
 4289              		.loc 1 595 13 is_stmt 1 view .LVU1358
 595:Drivers/STM32F0xx_HAL_Driver/Src/stm32f0xx_ll_usb.c ****           }
 4290              		.loc 1 595 13 view .LVU1359
 595:Drivers/STM32F0xx_HAL_Driver/Src/stm32f0xx_ll_usb.c ****           }
 4291              		.loc 1 595 13 discriminator 1 view .LVU1360
 4292              	.LBB122:
 595:Drivers/STM32F0xx_HAL_Driver/Src/stm32f0xx_ll_usb.c ****           }
 4293              		.loc 1 595 13 discriminator 1 view .LVU1361
 595:Drivers/STM32F0xx_HAL_Driver/Src/stm32f0xx_ll_usb.c ****           }
ARM GAS  /tmp/cceQvfFh.s 			page 106


 4294              		.loc 1 595 13 discriminator 1 view .LVU1362
 4295 066a 1988     		ldrh	r1, [r3]
 4296 066c 2D4A     		ldr	r2, .L226+4
 4297 066e 1140     		ands	r1, r2
 4298              	.LVL480:
 595:Drivers/STM32F0xx_HAL_Driver/Src/stm32f0xx_ll_usb.c ****           }
 4299              		.loc 1 595 13 view .LVU1363
 595:Drivers/STM32F0xx_HAL_Driver/Src/stm32f0xx_ll_usb.c ****           }
 4300              		.loc 1 595 13 is_stmt 0 discriminator 1 view .LVU1364
 4301 0670 2D4A     		ldr	r2, .L226+8
 4302 0672 0A43     		orrs	r2, r1
 4303 0674 92B2     		uxth	r2, r2
 4304 0676 1A80     		strh	r2, [r3]
 4305              	.LBE122:
 595:Drivers/STM32F0xx_HAL_Driver/Src/stm32f0xx_ll_usb.c ****           }
 4306              		.loc 1 595 13 is_stmt 1 view .LVU1365
 4307 0678 E8E4     		b	.L161
 4308              	.LVL481:
 4309              	.L221:
 4310              	.LBB123:
 583:Drivers/STM32F0xx_HAL_Driver/Src/stm32f0xx_ll_usb.c **** 
 4311              		.loc 1 583 9 discriminator 34 view .LVU1366
 4312 067a 4F33     		adds	r3, r3, #79
 4313 067c EA5A     		ldrh	r2, [r5, r3]
 4314 067e AA18     		adds	r2, r5, r2
 4315              	.LVL482:
 583:Drivers/STM32F0xx_HAL_Driver/Src/stm32f0xx_ll_usb.c **** 
 4316              		.loc 1 583 9 view .LVU1367
 583:Drivers/STM32F0xx_HAL_Driver/Src/stm32f0xx_ll_usb.c **** 
 4317              		.loc 1 583 9 is_stmt 0 discriminator 34 view .LVU1368
 4318 0680 2378     		ldrb	r3, [r4]
 4319 0682 DB00     		lsls	r3, r3, #3
 4320 0684 9B18     		adds	r3, r3, r2
 4321 0686 294A     		ldr	r2, .L226+12
 4322              	.LVL483:
 583:Drivers/STM32F0xx_HAL_Driver/Src/stm32f0xx_ll_usb.c **** 
 4323              		.loc 1 583 9 discriminator 34 view .LVU1369
 4324 0688 9446     		mov	ip, r2
 4325 068a 6344     		add	r3, r3, ip
 4326              	.LVL484:
 583:Drivers/STM32F0xx_HAL_Driver/Src/stm32f0xx_ll_usb.c **** 
 4327              		.loc 1 583 9 is_stmt 1 view .LVU1370
 583:Drivers/STM32F0xx_HAL_Driver/Src/stm32f0xx_ll_usb.c **** 
 4328              		.loc 1 583 9 is_stmt 0 discriminator 34 view .LVU1371
 4329 068c 228A     		ldrh	r2, [r4, #16]
 4330 068e 1A80     		strh	r2, [r3]
 4331 0690 DCE7     		b	.L173
 4332              	.LVL485:
 4333              	.L178:
 583:Drivers/STM32F0xx_HAL_Driver/Src/stm32f0xx_ll_usb.c **** 
 4334              		.loc 1 583 9 discriminator 34 view .LVU1372
 4335              	.LBE123:
 610:Drivers/STM32F0xx_HAL_Driver/Src/stm32f0xx_ll_usb.c ****           ep->xfer_len = 0U;
 4336              		.loc 1 610 11 is_stmt 1 view .LVU1373
 611:Drivers/STM32F0xx_HAL_Driver/Src/stm32f0xx_ll_usb.c ****         }
 4337              		.loc 1 611 11 view .LVU1374
 611:Drivers/STM32F0xx_HAL_Driver/Src/stm32f0xx_ll_usb.c ****         }
ARM GAS  /tmp/cceQvfFh.s 			page 107


 4338              		.loc 1 611 24 is_stmt 0 view .LVU1375
 4339 0692 0022     		movs	r2, #0
 4340 0694 A261     		str	r2, [r4, #24]
 610:Drivers/STM32F0xx_HAL_Driver/Src/stm32f0xx_ll_usb.c ****           ep->xfer_len = 0U;
 4341              		.loc 1 610 15 view .LVU1376
 4342 0696 0A00     		movs	r2, r1
 4343 0698 38E7     		b	.L179
 4344              	.LVL486:
 4345              	.L181:
 4346              	.LBB124:
 4347              	.LBB106:
 613:Drivers/STM32F0xx_HAL_Driver/Src/stm32f0xx_ll_usb.c ****       }
 4348              		.loc 1 613 9 is_stmt 1 discriminator 4 view .LVU1377
 4349 069a 3E2A     		cmp	r2, #62
 4350 069c 09D8     		bhi	.L182
 613:Drivers/STM32F0xx_HAL_Driver/Src/stm32f0xx_ll_usb.c ****       }
 4351              		.loc 1 613 9 discriminator 6 view .LVU1378
 613:Drivers/STM32F0xx_HAL_Driver/Src/stm32f0xx_ll_usb.c ****       }
 4352              		.loc 1 613 9 discriminator 6 view .LVU1379
 4353 069e 5108     		lsrs	r1, r2, #1
 4354              	.LVL487:
 613:Drivers/STM32F0xx_HAL_Driver/Src/stm32f0xx_ll_usb.c ****       }
 4355              		.loc 1 613 9 view .LVU1380
 613:Drivers/STM32F0xx_HAL_Driver/Src/stm32f0xx_ll_usb.c ****       }
 4356              		.loc 1 613 9 is_stmt 0 discriminator 6 view .LVU1381
 4357 06a0 D007     		lsls	r0, r2, #31
 4358 06a2 00D5     		bpl	.L183
 4359              	.LVL488:
 613:Drivers/STM32F0xx_HAL_Driver/Src/stm32f0xx_ll_usb.c ****       }
 4360              		.loc 1 613 9 is_stmt 1 discriminator 8 view .LVU1382
 4361 06a4 0131     		adds	r1, r1, #1
 4362              	.LVL489:
 4363              	.L183:
 613:Drivers/STM32F0xx_HAL_Driver/Src/stm32f0xx_ll_usb.c ****       }
 4364              		.loc 1 613 9 discriminator 10 view .LVU1383
 4365 06a6 1888     		ldrh	r0, [r3]
 4366 06a8 8902     		lsls	r1, r1, #10
 4367              	.LVL490:
 613:Drivers/STM32F0xx_HAL_Driver/Src/stm32f0xx_ll_usb.c ****       }
 4368              		.loc 1 613 9 is_stmt 0 discriminator 10 view .LVU1384
 4369 06aa 89B2     		uxth	r1, r1
 4370 06ac 0143     		orrs	r1, r0
 4371 06ae 1980     		strh	r1, [r3]
 613:Drivers/STM32F0xx_HAL_Driver/Src/stm32f0xx_ll_usb.c ****       }
 4372              		.loc 1 613 9 is_stmt 1 view .LVU1385
 4373 06b0 43E7     		b	.L180
 4374              	.LVL491:
 4375              	.L182:
 613:Drivers/STM32F0xx_HAL_Driver/Src/stm32f0xx_ll_usb.c ****       }
 4376              		.loc 1 613 9 discriminator 7 view .LVU1386
 613:Drivers/STM32F0xx_HAL_Driver/Src/stm32f0xx_ll_usb.c ****       }
 4377              		.loc 1 613 9 discriminator 7 view .LVU1387
 4378 06b2 5109     		lsrs	r1, r2, #5
 4379              	.LVL492:
 613:Drivers/STM32F0xx_HAL_Driver/Src/stm32f0xx_ll_usb.c ****       }
 4380              		.loc 1 613 9 view .LVU1388
 613:Drivers/STM32F0xx_HAL_Driver/Src/stm32f0xx_ll_usb.c ****       }
ARM GAS  /tmp/cceQvfFh.s 			page 108


 4381              		.loc 1 613 9 is_stmt 0 discriminator 7 view .LVU1389
 4382 06b4 D006     		lsls	r0, r2, #27
 4383 06b6 00D1     		bne	.L184
 4384              	.LVL493:
 613:Drivers/STM32F0xx_HAL_Driver/Src/stm32f0xx_ll_usb.c ****       }
 4385              		.loc 1 613 9 is_stmt 1 discriminator 12 view .LVU1390
 4386 06b8 0139     		subs	r1, r1, #1
 4387              	.LVL494:
 4388              	.L184:
 613:Drivers/STM32F0xx_HAL_Driver/Src/stm32f0xx_ll_usb.c ****       }
 4389              		.loc 1 613 9 discriminator 14 view .LVU1391
 4390 06ba 1888     		ldrh	r0, [r3]
 4391 06bc 8902     		lsls	r1, r1, #10
 4392              	.LVL495:
 613:Drivers/STM32F0xx_HAL_Driver/Src/stm32f0xx_ll_usb.c ****       }
 4393              		.loc 1 613 9 is_stmt 0 discriminator 14 view .LVU1392
 4394 06be 89B2     		uxth	r1, r1
 4395 06c0 0843     		orrs	r0, r1
 4396 06c2 1B49     		ldr	r1, .L226+16
 4397 06c4 0143     		orrs	r1, r0
 4398 06c6 89B2     		uxth	r1, r1
 4399 06c8 1980     		strh	r1, [r3]
 4400 06ca 36E7     		b	.L180
 4401              	.LVL496:
 4402              	.L186:
 613:Drivers/STM32F0xx_HAL_Driver/Src/stm32f0xx_ll_usb.c ****       }
 4403              		.loc 1 613 9 discriminator 14 view .LVU1393
 4404              	.LBE106:
 4405              	.LBE124:
 4406              	.LBB125:
 4407              	.LBB111:
 4408              	.LBB110:
 613:Drivers/STM32F0xx_HAL_Driver/Src/stm32f0xx_ll_usb.c ****       }
 4409              		.loc 1 613 9 is_stmt 1 discriminator 22 view .LVU1394
 4410 06cc 3E2A     		cmp	r2, #62
 4411 06ce 09D8     		bhi	.L187
 613:Drivers/STM32F0xx_HAL_Driver/Src/stm32f0xx_ll_usb.c ****       }
 4412              		.loc 1 613 9 discriminator 24 view .LVU1395
 613:Drivers/STM32F0xx_HAL_Driver/Src/stm32f0xx_ll_usb.c ****       }
 4413              		.loc 1 613 9 discriminator 24 view .LVU1396
 4414 06d0 5108     		lsrs	r1, r2, #1
 4415              	.LVL497:
 613:Drivers/STM32F0xx_HAL_Driver/Src/stm32f0xx_ll_usb.c ****       }
 4416              		.loc 1 613 9 view .LVU1397
 613:Drivers/STM32F0xx_HAL_Driver/Src/stm32f0xx_ll_usb.c ****       }
 4417              		.loc 1 613 9 is_stmt 0 discriminator 24 view .LVU1398
 4418 06d2 D207     		lsls	r2, r2, #31
 4419 06d4 00D5     		bpl	.L188
 4420              	.LVL498:
 613:Drivers/STM32F0xx_HAL_Driver/Src/stm32f0xx_ll_usb.c ****       }
 4421              		.loc 1 613 9 is_stmt 1 discriminator 26 view .LVU1399
 4422 06d6 0131     		adds	r1, r1, #1
 4423              	.LVL499:
 4424              	.L188:
 613:Drivers/STM32F0xx_HAL_Driver/Src/stm32f0xx_ll_usb.c ****       }
 4425              		.loc 1 613 9 discriminator 28 view .LVU1400
 4426 06d8 1A88     		ldrh	r2, [r3]
ARM GAS  /tmp/cceQvfFh.s 			page 109


 4427 06da 8902     		lsls	r1, r1, #10
 4428              	.LVL500:
 613:Drivers/STM32F0xx_HAL_Driver/Src/stm32f0xx_ll_usb.c ****       }
 4429              		.loc 1 613 9 is_stmt 0 discriminator 28 view .LVU1401
 4430 06dc 89B2     		uxth	r1, r1
 4431 06de 0A43     		orrs	r2, r1
 4432 06e0 1A80     		strh	r2, [r3]
 613:Drivers/STM32F0xx_HAL_Driver/Src/stm32f0xx_ll_usb.c ****       }
 4433              		.loc 1 613 9 is_stmt 1 view .LVU1402
 4434 06e2 B3E4     		b	.L161
 4435              	.LVL501:
 4436              	.L187:
 613:Drivers/STM32F0xx_HAL_Driver/Src/stm32f0xx_ll_usb.c ****       }
 4437              		.loc 1 613 9 discriminator 25 view .LVU1403
 613:Drivers/STM32F0xx_HAL_Driver/Src/stm32f0xx_ll_usb.c ****       }
 4438              		.loc 1 613 9 discriminator 25 view .LVU1404
 4439 06e4 5109     		lsrs	r1, r2, #5
 4440              	.LVL502:
 613:Drivers/STM32F0xx_HAL_Driver/Src/stm32f0xx_ll_usb.c ****       }
 4441              		.loc 1 613 9 view .LVU1405
 613:Drivers/STM32F0xx_HAL_Driver/Src/stm32f0xx_ll_usb.c ****       }
 4442              		.loc 1 613 9 is_stmt 0 discriminator 25 view .LVU1406
 4443 06e6 D206     		lsls	r2, r2, #27
 4444 06e8 00D1     		bne	.L189
 4445              	.LVL503:
 613:Drivers/STM32F0xx_HAL_Driver/Src/stm32f0xx_ll_usb.c ****       }
 4446              		.loc 1 613 9 is_stmt 1 discriminator 30 view .LVU1407
 4447 06ea 0139     		subs	r1, r1, #1
 4448              	.LVL504:
 4449              	.L189:
 613:Drivers/STM32F0xx_HAL_Driver/Src/stm32f0xx_ll_usb.c ****       }
 4450              		.loc 1 613 9 discriminator 32 view .LVU1408
 4451 06ec 1A88     		ldrh	r2, [r3]
 4452 06ee 8902     		lsls	r1, r1, #10
 4453              	.LVL505:
 613:Drivers/STM32F0xx_HAL_Driver/Src/stm32f0xx_ll_usb.c ****       }
 4454              		.loc 1 613 9 is_stmt 0 discriminator 32 view .LVU1409
 4455 06f0 89B2     		uxth	r1, r1
 4456 06f2 1143     		orrs	r1, r2
 4457 06f4 0E4A     		ldr	r2, .L226+16
 4458 06f6 0A43     		orrs	r2, r1
 4459 06f8 92B2     		uxth	r2, r2
 4460 06fa 1A80     		strh	r2, [r3]
 4461 06fc A6E4     		b	.L161
 4462              	.LVL506:
 4463              	.L185:
 613:Drivers/STM32F0xx_HAL_Driver/Src/stm32f0xx_ll_usb.c ****       }
 4464              		.loc 1 613 9 discriminator 32 view .LVU1410
 4465              	.LBE110:
 4466              	.LBE111:
 613:Drivers/STM32F0xx_HAL_Driver/Src/stm32f0xx_ll_usb.c ****       }
 4467              		.loc 1 613 9 is_stmt 1 discriminator 20 view .LVU1411
 4468 06fe 012B     		cmp	r3, #1
 4469 0700 00D0     		beq	.LCB4779
 4470 0702 A3E4     		b	.L161	@long jump
 4471              	.LCB4779:
 613:Drivers/STM32F0xx_HAL_Driver/Src/stm32f0xx_ll_usb.c ****       }
ARM GAS  /tmp/cceQvfFh.s 			page 110


 4472              		.loc 1 613 9 discriminator 34 view .LVU1412
 4473 0704 4F33     		adds	r3, r3, #79
 4474 0706 E95A     		ldrh	r1, [r5, r3]
 4475 0708 6918     		adds	r1, r5, r1
 4476              	.LVL507:
 613:Drivers/STM32F0xx_HAL_Driver/Src/stm32f0xx_ll_usb.c ****       }
 4477              		.loc 1 613 9 view .LVU1413
 613:Drivers/STM32F0xx_HAL_Driver/Src/stm32f0xx_ll_usb.c ****       }
 4478              		.loc 1 613 9 is_stmt 0 discriminator 34 view .LVU1414
 4479 070a 2378     		ldrb	r3, [r4]
 4480 070c DB00     		lsls	r3, r3, #3
 4481 070e 5B18     		adds	r3, r3, r1
 4482 0710 0649     		ldr	r1, .L226+12
 4483              	.LVL508:
 613:Drivers/STM32F0xx_HAL_Driver/Src/stm32f0xx_ll_usb.c ****       }
 4484              		.loc 1 613 9 discriminator 34 view .LVU1415
 4485 0712 8C46     		mov	ip, r1
 4486 0714 6344     		add	r3, r3, ip
 4487              	.LVL509:
 613:Drivers/STM32F0xx_HAL_Driver/Src/stm32f0xx_ll_usb.c ****       }
 4488              		.loc 1 613 9 is_stmt 1 view .LVU1416
 613:Drivers/STM32F0xx_HAL_Driver/Src/stm32f0xx_ll_usb.c ****       }
 4489              		.loc 1 613 9 is_stmt 0 discriminator 34 view .LVU1417
 4490 0716 92B2     		uxth	r2, r2
 4491              	.LVL510:
 613:Drivers/STM32F0xx_HAL_Driver/Src/stm32f0xx_ll_usb.c ****       }
 4492              		.loc 1 613 9 discriminator 34 view .LVU1418
 4493 0718 1A80     		strh	r2, [r3]
 4494 071a 97E4     		b	.L161
 4495              	.LVL511:
 4496              	.L190:
 613:Drivers/STM32F0xx_HAL_Driver/Src/stm32f0xx_ll_usb.c ****       }
 4497              		.loc 1 613 9 discriminator 34 view .LVU1419
 4498              	.LBE125:
 617:Drivers/STM32F0xx_HAL_Driver/Src/stm32f0xx_ll_usb.c ****       }
 4499              		.loc 1 617 16 view .LVU1420
 4500 071c 0120     		movs	r0, #1
 4501              	.LVL512:
 617:Drivers/STM32F0xx_HAL_Driver/Src/stm32f0xx_ll_usb.c ****       }
 4502              		.loc 1 617 16 view .LVU1421
 4503 071e A3E4     		b	.L156
 4504              	.L227:
 4505              		.align	2
 4506              	.L226:
 4507 0720 40400000 		.word	16448
 4508 0724 8F8FFFFF 		.word	-28785
 4509 0728 C080FFFF 		.word	-32576
 4510 072c 06040000 		.word	1030
 4511 0730 0080FFFF 		.word	-32768
 4512              		.cfi_endproc
 4513              	.LFE49:
 4515              		.section	.text.USB_ReadPMA,"ax",%progbits
 4516              		.align	1
 4517              		.global	USB_ReadPMA
 4518              		.syntax unified
 4519              		.code	16
 4520              		.thumb_func
ARM GAS  /tmp/cceQvfFh.s 			page 111


 4522              	USB_ReadPMA:
 4523              	.LVL513:
 4524              	.LFB61:
 861:Drivers/STM32F0xx_HAL_Driver/Src/stm32f0xx_ll_usb.c **** 
 862:Drivers/STM32F0xx_HAL_Driver/Src/stm32f0xx_ll_usb.c **** /**
 863:Drivers/STM32F0xx_HAL_Driver/Src/stm32f0xx_ll_usb.c ****   * @brief Copy data from packet memory area (PMA) to user memory buffer
 864:Drivers/STM32F0xx_HAL_Driver/Src/stm32f0xx_ll_usb.c ****   * @param   USBx USB peripheral instance register address.
 865:Drivers/STM32F0xx_HAL_Driver/Src/stm32f0xx_ll_usb.c ****   * @param   pbUsrBuf pointer to user memory area.
 866:Drivers/STM32F0xx_HAL_Driver/Src/stm32f0xx_ll_usb.c ****   * @param   wPMABufAddr address into PMA.
 867:Drivers/STM32F0xx_HAL_Driver/Src/stm32f0xx_ll_usb.c ****   * @param   wNBytes no. of bytes to be copied.
 868:Drivers/STM32F0xx_HAL_Driver/Src/stm32f0xx_ll_usb.c ****   * @retval None
 869:Drivers/STM32F0xx_HAL_Driver/Src/stm32f0xx_ll_usb.c ****   */
 870:Drivers/STM32F0xx_HAL_Driver/Src/stm32f0xx_ll_usb.c **** void USB_ReadPMA(USB_TypeDef const *USBx, uint8_t *pbUsrBuf, uint16_t wPMABufAddr, uint16_t wNBytes
 871:Drivers/STM32F0xx_HAL_Driver/Src/stm32f0xx_ll_usb.c **** {
 4525              		.loc 1 871 1 is_stmt 1 view -0
 4526              		.cfi_startproc
 4527              		@ args = 0, pretend = 0, frame = 0
 4528              		@ frame_needed = 0, uses_anonymous_args = 0
 4529              		.loc 1 871 1 is_stmt 0 view .LVU1423
 4530 0000 10B5     		push	{r4, lr}
 4531              		.cfi_def_cfa_offset 8
 4532              		.cfi_offset 4, -8
 4533              		.cfi_offset 14, -4
 872:Drivers/STM32F0xx_HAL_Driver/Src/stm32f0xx_ll_usb.c ****   uint32_t n = (uint32_t)wNBytes >> 1;
 4534              		.loc 1 872 3 is_stmt 1 view .LVU1424
 4535              		.loc 1 872 34 is_stmt 0 view .LVU1425
 4536 0002 5C08     		lsrs	r4, r3, #1
 4537              	.LVL514:
 873:Drivers/STM32F0xx_HAL_Driver/Src/stm32f0xx_ll_usb.c ****   uint32_t BaseAddr = (uint32_t)USBx;
 4538              		.loc 1 873 3 is_stmt 1 view .LVU1426
 874:Drivers/STM32F0xx_HAL_Driver/Src/stm32f0xx_ll_usb.c ****   uint32_t count;
 4539              		.loc 1 874 3 view .LVU1427
 875:Drivers/STM32F0xx_HAL_Driver/Src/stm32f0xx_ll_usb.c ****   uint32_t RdVal;
 4540              		.loc 1 875 3 view .LVU1428
 876:Drivers/STM32F0xx_HAL_Driver/Src/stm32f0xx_ll_usb.c ****   __IO uint16_t *pdwVal;
 4541              		.loc 1 876 3 view .LVU1429
 877:Drivers/STM32F0xx_HAL_Driver/Src/stm32f0xx_ll_usb.c ****   uint8_t *pBuf = pbUsrBuf;
 4542              		.loc 1 877 3 view .LVU1430
 878:Drivers/STM32F0xx_HAL_Driver/Src/stm32f0xx_ll_usb.c **** 
 879:Drivers/STM32F0xx_HAL_Driver/Src/stm32f0xx_ll_usb.c ****   pdwVal = (__IO uint16_t *)(BaseAddr + 0x400U + ((uint32_t)wPMABufAddr * PMA_ACCESS));
 4543              		.loc 1 879 3 view .LVU1431
 4544              		.loc 1 879 48 is_stmt 0 view .LVU1432
 4545 0004 1218     		adds	r2, r2, r0
 4546              	.LVL515:
 4547              		.loc 1 879 48 view .LVU1433
 4548 0006 8020     		movs	r0, #128
 4549              	.LVL516:
 4550              		.loc 1 879 48 view .LVU1434
 4551 0008 C000     		lsls	r0, r0, #3
 4552 000a 8446     		mov	ip, r0
 4553 000c 6244     		add	r2, r2, ip
 4554              	.LVL517:
 880:Drivers/STM32F0xx_HAL_Driver/Src/stm32f0xx_ll_usb.c **** 
 881:Drivers/STM32F0xx_HAL_Driver/Src/stm32f0xx_ll_usb.c ****   for (count = n; count != 0U; count--)
 4555              		.loc 1 881 3 is_stmt 1 view .LVU1435
 4556              		.loc 1 881 3 is_stmt 0 view .LVU1436
 4557 000e 06E0     		b	.L229
ARM GAS  /tmp/cceQvfFh.s 			page 112


 4558              	.LVL518:
 4559              	.L230:
 882:Drivers/STM32F0xx_HAL_Driver/Src/stm32f0xx_ll_usb.c ****   {
 883:Drivers/STM32F0xx_HAL_Driver/Src/stm32f0xx_ll_usb.c ****     RdVal = *(__IO uint16_t *)pdwVal;
 4560              		.loc 1 883 5 is_stmt 1 view .LVU1437
 4561              		.loc 1 883 13 is_stmt 0 view .LVU1438
 4562 0010 1088     		ldrh	r0, [r2]
 4563              	.LVL519:
 884:Drivers/STM32F0xx_HAL_Driver/Src/stm32f0xx_ll_usb.c ****     pdwVal++;
 4564              		.loc 1 884 5 is_stmt 1 view .LVU1439
 4565              		.loc 1 884 11 is_stmt 0 view .LVU1440
 4566 0012 0232     		adds	r2, r2, #2
 4567              	.LVL520:
 885:Drivers/STM32F0xx_HAL_Driver/Src/stm32f0xx_ll_usb.c ****     *pBuf = (uint8_t)((RdVal >> 0) & 0xFFU);
 4568              		.loc 1 885 5 is_stmt 1 view .LVU1441
 4569              		.loc 1 885 11 is_stmt 0 view .LVU1442
 4570 0014 0870     		strb	r0, [r1]
 886:Drivers/STM32F0xx_HAL_Driver/Src/stm32f0xx_ll_usb.c ****     pBuf++;
 4571              		.loc 1 886 5 is_stmt 1 view .LVU1443
 4572              	.LVL521:
 887:Drivers/STM32F0xx_HAL_Driver/Src/stm32f0xx_ll_usb.c ****     *pBuf = (uint8_t)((RdVal >> 8) & 0xFFU);
 4573              		.loc 1 887 5 view .LVU1444
 4574              		.loc 1 887 13 is_stmt 0 view .LVU1445
 4575 0016 000A     		lsrs	r0, r0, #8
 4576              	.LVL522:
 4577              		.loc 1 887 11 view .LVU1446
 4578 0018 4870     		strb	r0, [r1, #1]
 888:Drivers/STM32F0xx_HAL_Driver/Src/stm32f0xx_ll_usb.c ****     pBuf++;
 4579              		.loc 1 888 5 is_stmt 1 view .LVU1447
 4580              		.loc 1 888 9 is_stmt 0 view .LVU1448
 4581 001a 0231     		adds	r1, r1, #2
 4582              	.LVL523:
 881:Drivers/STM32F0xx_HAL_Driver/Src/stm32f0xx_ll_usb.c ****   {
 4583              		.loc 1 881 37 is_stmt 1 discriminator 3 view .LVU1449
 4584 001c 013C     		subs	r4, r4, #1
 4585              	.LVL524:
 4586              	.L229:
 881:Drivers/STM32F0xx_HAL_Driver/Src/stm32f0xx_ll_usb.c ****   {
 4587              		.loc 1 881 25 discriminator 1 view .LVU1450
 4588 001e 002C     		cmp	r4, #0
 4589 0020 F6D1     		bne	.L230
 889:Drivers/STM32F0xx_HAL_Driver/Src/stm32f0xx_ll_usb.c **** 
 890:Drivers/STM32F0xx_HAL_Driver/Src/stm32f0xx_ll_usb.c **** #if PMA_ACCESS > 1U
 891:Drivers/STM32F0xx_HAL_Driver/Src/stm32f0xx_ll_usb.c ****     pdwVal++;
 892:Drivers/STM32F0xx_HAL_Driver/Src/stm32f0xx_ll_usb.c **** #endif /* PMA_ACCESS */
 893:Drivers/STM32F0xx_HAL_Driver/Src/stm32f0xx_ll_usb.c ****   }
 894:Drivers/STM32F0xx_HAL_Driver/Src/stm32f0xx_ll_usb.c **** 
 895:Drivers/STM32F0xx_HAL_Driver/Src/stm32f0xx_ll_usb.c ****   if ((wNBytes % 2U) != 0U)
 4590              		.loc 1 895 3 view .LVU1451
 4591              		.loc 1 895 6 is_stmt 0 view .LVU1452
 4592 0022 DB07     		lsls	r3, r3, #31
 4593 0024 01D5     		bpl	.L228
 4594              	.LVL525:
 896:Drivers/STM32F0xx_HAL_Driver/Src/stm32f0xx_ll_usb.c ****   {
 897:Drivers/STM32F0xx_HAL_Driver/Src/stm32f0xx_ll_usb.c ****     RdVal = *pdwVal;
 4595              		.loc 1 897 5 is_stmt 1 view .LVU1453
 4596              		.loc 1 897 13 is_stmt 0 view .LVU1454
ARM GAS  /tmp/cceQvfFh.s 			page 113


 4597 0026 1388     		ldrh	r3, [r2]
 4598              	.LVL526:
 898:Drivers/STM32F0xx_HAL_Driver/Src/stm32f0xx_ll_usb.c ****     *pBuf = (uint8_t)((RdVal >> 0) & 0xFFU);
 4599              		.loc 1 898 5 is_stmt 1 view .LVU1455
 4600              		.loc 1 898 11 is_stmt 0 view .LVU1456
 4601 0028 0B70     		strb	r3, [r1]
 4602              	.LVL527:
 4603              	.L228:
 899:Drivers/STM32F0xx_HAL_Driver/Src/stm32f0xx_ll_usb.c ****   }
 900:Drivers/STM32F0xx_HAL_Driver/Src/stm32f0xx_ll_usb.c **** }
 4604              		.loc 1 900 1 view .LVU1457
 4605              		@ sp needed
 4606              	.LVL528:
 4607              		.loc 1 900 1 view .LVU1458
 4608 002a 10BD     		pop	{r4, pc}
 4609              		.cfi_endproc
 4610              	.LFE61:
 4612              		.text
 4613              	.Letext0:
 4614              		.file 2 "/usr/arm-none-eabi/include/machine/_default_types.h"
 4615              		.file 3 "/usr/arm-none-eabi/include/sys/_stdint.h"
 4616              		.file 4 "Drivers/CMSIS/Device/ST/STM32F0xx/Include/stm32f042x6.h"
 4617              		.file 5 "Drivers/STM32F0xx_HAL_Driver/Inc/stm32f0xx_hal_def.h"
 4618              		.file 6 "Drivers/STM32F0xx_HAL_Driver/Inc/stm32f0xx_ll_usb.h"
ARM GAS  /tmp/cceQvfFh.s 			page 114


DEFINED SYMBOLS
                            *ABS*:00000000 stm32f0xx_ll_usb.c
     /tmp/cceQvfFh.s:19     .text.USB_CoreInit:00000000 $t
     /tmp/cceQvfFh.s:25     .text.USB_CoreInit:00000000 USB_CoreInit
     /tmp/cceQvfFh.s:52     .text.USB_EnableGlobalInt:00000000 $t
     /tmp/cceQvfFh.s:58     .text.USB_EnableGlobalInt:00000000 USB_EnableGlobalInt
     /tmp/cceQvfFh.s:89     .text.USB_EnableGlobalInt:00000010 $d
     /tmp/cceQvfFh.s:94     .text.USB_DisableGlobalInt:00000000 $t
     /tmp/cceQvfFh.s:100    .text.USB_DisableGlobalInt:00000000 USB_DisableGlobalInt
     /tmp/cceQvfFh.s:128    .text.USB_DisableGlobalInt:00000010 $d
     /tmp/cceQvfFh.s:133    .text.USB_SetCurrentMode:00000000 $t
     /tmp/cceQvfFh.s:139    .text.USB_SetCurrentMode:00000000 USB_SetCurrentMode
     /tmp/cceQvfFh.s:160    .text.USB_DevInit:00000000 $t
     /tmp/cceQvfFh.s:166    .text.USB_DevInit:00000000 USB_DevInit
     /tmp/cceQvfFh.s:209    .text.USB_FlushTxFifo:00000000 $t
     /tmp/cceQvfFh.s:215    .text.USB_FlushTxFifo:00000000 USB_FlushTxFifo
     /tmp/cceQvfFh.s:236    .text.USB_FlushRxFifo:00000000 $t
     /tmp/cceQvfFh.s:242    .text.USB_FlushRxFifo:00000000 USB_FlushRxFifo
     /tmp/cceQvfFh.s:262    .text.USB_ActivateEndpoint:00000000 $t
     /tmp/cceQvfFh.s:268    .text.USB_ActivateEndpoint:00000000 USB_ActivateEndpoint
     /tmp/cceQvfFh.s:1173   .text.USB_ActivateEndpoint:000002f4 $d
     /tmp/cceQvfFh.s:1190   .text.USB_DeactivateEndpoint:00000000 $t
     /tmp/cceQvfFh.s:1196   .text.USB_DeactivateEndpoint:00000000 USB_DeactivateEndpoint
     /tmp/cceQvfFh.s:1622   .text.USB_DeactivateEndpoint:00000158 $d
     /tmp/cceQvfFh.s:1633   .text.USB_EPSetStall:00000000 $t
     /tmp/cceQvfFh.s:1639   .text.USB_EPSetStall:00000000 USB_EPSetStall
     /tmp/cceQvfFh.s:1723   .text.USB_EPSetStall:00000040 $d
     /tmp/cceQvfFh.s:1731   .text.USB_EPClearStall:00000000 $t
     /tmp/cceQvfFh.s:1737   .text.USB_EPClearStall:00000000 USB_EPClearStall
     /tmp/cceQvfFh.s:1908   .text.USB_EPClearStall:00000084 $d
     /tmp/cceQvfFh.s:1918   .text.USB_EPStopXfer:00000000 $t
     /tmp/cceQvfFh.s:1924   .text.USB_EPStopXfer:00000000 USB_EPStopXfer
     /tmp/cceQvfFh.s:2082   .text.USB_EPStopXfer:00000084 $d
     /tmp/cceQvfFh.s:2090   .text.USB_StopDevice:00000000 $t
     /tmp/cceQvfFh.s:2096   .text.USB_StopDevice:00000000 USB_StopDevice
     /tmp/cceQvfFh.s:2129   .text.USB_SetDevAddress:00000000 $t
     /tmp/cceQvfFh.s:2135   .text.USB_SetDevAddress:00000000 USB_SetDevAddress
     /tmp/cceQvfFh.s:2164   .text.USB_DevConnect:00000000 $t
     /tmp/cceQvfFh.s:2170   .text.USB_DevConnect:00000000 USB_DevConnect
     /tmp/cceQvfFh.s:2197   .text.USB_DevConnect:00000010 $d
     /tmp/cceQvfFh.s:2202   .text.USB_DevDisconnect:00000000 $t
     /tmp/cceQvfFh.s:2208   .text.USB_DevDisconnect:00000000 USB_DevDisconnect
     /tmp/cceQvfFh.s:2235   .text.USB_ReadInterrupts:00000000 $t
     /tmp/cceQvfFh.s:2241   .text.USB_ReadInterrupts:00000000 USB_ReadInterrupts
     /tmp/cceQvfFh.s:2266   .text.USB_ActivateRemoteWakeup:00000000 $t
     /tmp/cceQvfFh.s:2272   .text.USB_ActivateRemoteWakeup:00000000 USB_ActivateRemoteWakeup
     /tmp/cceQvfFh.s:2300   .text.USB_DeActivateRemoteWakeup:00000000 $t
     /tmp/cceQvfFh.s:2306   .text.USB_DeActivateRemoteWakeup:00000000 USB_DeActivateRemoteWakeup
     /tmp/cceQvfFh.s:2333   .text.USB_WritePMA:00000000 $t
     /tmp/cceQvfFh.s:2339   .text.USB_WritePMA:00000000 USB_WritePMA
     /tmp/cceQvfFh.s:2417   .text.USB_EPStartXfer:00000000 $t
     /tmp/cceQvfFh.s:2423   .text.USB_EPStartXfer:00000000 USB_EPStartXfer
     /tmp/cceQvfFh.s:3320   .text.USB_EPStartXfer:00000314 $d
     /tmp/cceQvfFh.s:3340   .text.USB_EPStartXfer:00000334 $t
     /tmp/cceQvfFh.s:4241   .text.USB_EPStartXfer:00000634 $d
     /tmp/cceQvfFh.s:4252   .text.USB_EPStartXfer:00000648 $t
     /tmp/cceQvfFh.s:4507   .text.USB_EPStartXfer:00000720 $d
ARM GAS  /tmp/cceQvfFh.s 			page 115


     /tmp/cceQvfFh.s:4516   .text.USB_ReadPMA:00000000 $t
     /tmp/cceQvfFh.s:4522   .text.USB_ReadPMA:00000000 USB_ReadPMA

NO UNDEFINED SYMBOLS
