ARM GAS  /tmp/ccDTP6hH.s 			page 1


   1              		.cpu cortex-m0
   2              		.arch armv6s-m
   3              		.fpu softvfp
   4              		.eabi_attribute 20, 1
   5              		.eabi_attribute 21, 1
   6              		.eabi_attribute 23, 3
   7              		.eabi_attribute 24, 1
   8              		.eabi_attribute 25, 1
   9              		.eabi_attribute 26, 1
  10              		.eabi_attribute 30, 1
  11              		.eabi_attribute 34, 0
  12              		.eabi_attribute 18, 4
  13              		.file	"usb_device.c"
  14              		.text
  15              	.Ltext0:
  16              		.cfi_sections	.debug_frame
  17              		.file 1 "USB_DEVICE/App/usb_device.c"
  18              		.section	.text.MX_USB_DEVICE_Init,"ax",%progbits
  19              		.align	1
  20              		.global	MX_USB_DEVICE_Init
  21              		.syntax unified
  22              		.code	16
  23              		.thumb_func
  25              	MX_USB_DEVICE_Init:
  26              	.LFB43:
   1:USB_DEVICE/App/usb_device.c **** /* USER CODE BEGIN Header */
   2:USB_DEVICE/App/usb_device.c **** /**
   3:USB_DEVICE/App/usb_device.c ****   ******************************************************************************
   4:USB_DEVICE/App/usb_device.c ****   * @file           : usb_device.c
   5:USB_DEVICE/App/usb_device.c ****   * @version        : v2.0_Cube
   6:USB_DEVICE/App/usb_device.c ****   * @brief          : This file implements the USB Device
   7:USB_DEVICE/App/usb_device.c ****   ******************************************************************************
   8:USB_DEVICE/App/usb_device.c ****   * @attention
   9:USB_DEVICE/App/usb_device.c ****   *
  10:USB_DEVICE/App/usb_device.c ****   * Copyright (c) 2026 STMicroelectronics.
  11:USB_DEVICE/App/usb_device.c ****   * All rights reserved.
  12:USB_DEVICE/App/usb_device.c ****   *
  13:USB_DEVICE/App/usb_device.c ****   * This software is licensed under terms that can be found in the LICENSE file
  14:USB_DEVICE/App/usb_device.c ****   * in the root directory of this software component.
  15:USB_DEVICE/App/usb_device.c ****   * If no LICENSE file comes with this software, it is provided AS-IS.
  16:USB_DEVICE/App/usb_device.c ****   *
  17:USB_DEVICE/App/usb_device.c ****   ******************************************************************************
  18:USB_DEVICE/App/usb_device.c ****   */
  19:USB_DEVICE/App/usb_device.c **** /* USER CODE END Header */
  20:USB_DEVICE/App/usb_device.c **** 
  21:USB_DEVICE/App/usb_device.c **** /* Includes ------------------------------------------------------------------*/
  22:USB_DEVICE/App/usb_device.c **** 
  23:USB_DEVICE/App/usb_device.c **** #include "usb_device.h"
  24:USB_DEVICE/App/usb_device.c **** #include "usbd_core.h"
  25:USB_DEVICE/App/usb_device.c **** #include "usbd_desc.h"
  26:USB_DEVICE/App/usb_device.c **** #include "usbd_hid.h"
  27:USB_DEVICE/App/usb_device.c **** 
  28:USB_DEVICE/App/usb_device.c **** /* USER CODE BEGIN Includes */
  29:USB_DEVICE/App/usb_device.c **** 
  30:USB_DEVICE/App/usb_device.c **** /* USER CODE END Includes */
  31:USB_DEVICE/App/usb_device.c **** 
  32:USB_DEVICE/App/usb_device.c **** /* USER CODE BEGIN PV */
ARM GAS  /tmp/ccDTP6hH.s 			page 2


  33:USB_DEVICE/App/usb_device.c **** /* Private variables ---------------------------------------------------------*/
  34:USB_DEVICE/App/usb_device.c **** 
  35:USB_DEVICE/App/usb_device.c **** /* USER CODE END PV */
  36:USB_DEVICE/App/usb_device.c **** 
  37:USB_DEVICE/App/usb_device.c **** /* USER CODE BEGIN PFP */
  38:USB_DEVICE/App/usb_device.c **** /* Private function prototypes -----------------------------------------------*/
  39:USB_DEVICE/App/usb_device.c **** 
  40:USB_DEVICE/App/usb_device.c **** /* USER CODE END PFP */
  41:USB_DEVICE/App/usb_device.c **** 
  42:USB_DEVICE/App/usb_device.c **** /* USB Device Core handle declaration. */
  43:USB_DEVICE/App/usb_device.c **** USBD_HandleTypeDef hUsbDeviceFS;
  44:USB_DEVICE/App/usb_device.c **** 
  45:USB_DEVICE/App/usb_device.c **** /*
  46:USB_DEVICE/App/usb_device.c ****  * -- Insert your variables declaration here --
  47:USB_DEVICE/App/usb_device.c ****  */
  48:USB_DEVICE/App/usb_device.c **** /* USER CODE BEGIN 0 */
  49:USB_DEVICE/App/usb_device.c **** 
  50:USB_DEVICE/App/usb_device.c **** /* USER CODE END 0 */
  51:USB_DEVICE/App/usb_device.c **** 
  52:USB_DEVICE/App/usb_device.c **** /*
  53:USB_DEVICE/App/usb_device.c ****  * -- Insert your external function declaration here --
  54:USB_DEVICE/App/usb_device.c ****  */
  55:USB_DEVICE/App/usb_device.c **** /* USER CODE BEGIN 1 */
  56:USB_DEVICE/App/usb_device.c **** 
  57:USB_DEVICE/App/usb_device.c **** /* USER CODE END 1 */
  58:USB_DEVICE/App/usb_device.c **** 
  59:USB_DEVICE/App/usb_device.c **** /**
  60:USB_DEVICE/App/usb_device.c ****   * Init USB device Library, add supported class and start the library
  61:USB_DEVICE/App/usb_device.c ****   * @retval None
  62:USB_DEVICE/App/usb_device.c ****   */
  63:USB_DEVICE/App/usb_device.c **** void MX_USB_DEVICE_Init(void)
  64:USB_DEVICE/App/usb_device.c **** {
  27              		.loc 1 64 1 view -0
  28              		.cfi_startproc
  29              		@ args = 0, pretend = 0, frame = 0
  30              		@ frame_needed = 0, uses_anonymous_args = 0
  31 0000 10B5     		push	{r4, lr}
  32              		.cfi_def_cfa_offset 8
  33              		.cfi_offset 4, -8
  34              		.cfi_offset 14, -4
  65:USB_DEVICE/App/usb_device.c ****   /* USER CODE BEGIN USB_DEVICE_Init_PreTreatment */
  66:USB_DEVICE/App/usb_device.c **** 
  67:USB_DEVICE/App/usb_device.c ****   /* USER CODE END USB_DEVICE_Init_PreTreatment */
  68:USB_DEVICE/App/usb_device.c **** 
  69:USB_DEVICE/App/usb_device.c ****   /* Init Device Library, add supported class and start the library. */
  70:USB_DEVICE/App/usb_device.c ****   if (USBD_Init(&hUsbDeviceFS, &FS_Desc, DEVICE_FS) != USBD_OK)
  35              		.loc 1 70 3 view .LVU1
  36              		.loc 1 70 7 is_stmt 0 view .LVU2
  37 0002 0E49     		ldr	r1, .L8
  38 0004 0E48     		ldr	r0, .L8+4
  39 0006 0022     		movs	r2, #0
  40 0008 FFF7FEFF 		bl	USBD_Init
  41              	.LVL0:
  42              		.loc 1 70 6 discriminator 1 view .LVU3
  43 000c 0028     		cmp	r0, #0
  44 000e 0BD1     		bne	.L5
  45              	.L2:
ARM GAS  /tmp/ccDTP6hH.s 			page 3


  71:USB_DEVICE/App/usb_device.c ****   {
  72:USB_DEVICE/App/usb_device.c ****     Error_Handler();
  73:USB_DEVICE/App/usb_device.c ****   }
  74:USB_DEVICE/App/usb_device.c ****   if (USBD_RegisterClass(&hUsbDeviceFS, &USBD_HID) != USBD_OK)
  46              		.loc 1 74 3 is_stmt 1 view .LVU4
  47              		.loc 1 74 7 is_stmt 0 view .LVU5
  48 0010 0C49     		ldr	r1, .L8+8
  49 0012 0B48     		ldr	r0, .L8+4
  50 0014 FFF7FEFF 		bl	USBD_RegisterClass
  51              	.LVL1:
  52              		.loc 1 74 6 discriminator 1 view .LVU6
  53 0018 0028     		cmp	r0, #0
  54 001a 08D1     		bne	.L6
  55              	.L3:
  75:USB_DEVICE/App/usb_device.c ****   {
  76:USB_DEVICE/App/usb_device.c ****     Error_Handler();
  77:USB_DEVICE/App/usb_device.c ****   }
  78:USB_DEVICE/App/usb_device.c ****   if (USBD_Start(&hUsbDeviceFS) != USBD_OK)
  56              		.loc 1 78 3 is_stmt 1 view .LVU7
  57              		.loc 1 78 7 is_stmt 0 view .LVU8
  58 001c 0848     		ldr	r0, .L8+4
  59 001e FFF7FEFF 		bl	USBD_Start
  60              	.LVL2:
  61              		.loc 1 78 6 discriminator 1 view .LVU9
  62 0022 0028     		cmp	r0, #0
  63 0024 06D1     		bne	.L7
  64              	.L1:
  79:USB_DEVICE/App/usb_device.c ****   {
  80:USB_DEVICE/App/usb_device.c ****     Error_Handler();
  81:USB_DEVICE/App/usb_device.c ****   }
  82:USB_DEVICE/App/usb_device.c **** 
  83:USB_DEVICE/App/usb_device.c ****   /* USER CODE BEGIN USB_DEVICE_Init_PostTreatment */
  84:USB_DEVICE/App/usb_device.c **** 
  85:USB_DEVICE/App/usb_device.c ****   /* USER CODE END USB_DEVICE_Init_PostTreatment */
  86:USB_DEVICE/App/usb_device.c **** }
  65              		.loc 1 86 1 view .LVU10
  66              		@ sp needed
  67 0026 10BD     		pop	{r4, pc}
  68              	.L5:
  72:USB_DEVICE/App/usb_device.c ****   }
  69              		.loc 1 72 5 is_stmt 1 view .LVU11
  70 0028 FFF7FEFF 		bl	Error_Handler
  71              	.LVL3:
  72 002c F0E7     		b	.L2
  73              	.L6:
  76:USB_DEVICE/App/usb_device.c ****   }
  74              		.loc 1 76 5 view .LVU12
  75 002e FFF7FEFF 		bl	Error_Handler
  76              	.LVL4:
  77 0032 F3E7     		b	.L3
  78              	.L7:
  80:USB_DEVICE/App/usb_device.c ****   }
  79              		.loc 1 80 5 view .LVU13
  80 0034 FFF7FEFF 		bl	Error_Handler
  81              	.LVL5:
  82              		.loc 1 86 1 is_stmt 0 view .LVU14
  83 0038 F5E7     		b	.L1
ARM GAS  /tmp/ccDTP6hH.s 			page 4


  84              	.L9:
  85 003a C046     		.align	2
  86              	.L8:
  87 003c 00000000 		.word	FS_Desc
  88 0040 00000000 		.word	hUsbDeviceFS
  89 0044 00000000 		.word	USBD_HID
  90              		.cfi_endproc
  91              	.LFE43:
  93              		.global	hUsbDeviceFS
  94              		.section	.bss.hUsbDeviceFS,"aw",%nobits
  95              		.align	2
  98              	hUsbDeviceFS:
  99 0000 00000000 		.space	708
  99      00000000 
  99      00000000 
  99      00000000 
  99      00000000 
 100              		.text
 101              	.Letext0:
 102              		.file 2 "/usr/arm-none-eabi/include/machine/_default_types.h"
 103              		.file 3 "/usr/arm-none-eabi/include/sys/_stdint.h"
 104              		.file 4 "Middlewares/ST/STM32_USB_Device_Library/Core/Inc/usbd_def.h"
 105              		.file 5 "USB_DEVICE/App/usbd_desc.h"
 106              		.file 6 "Middlewares/ST/STM32_USB_Device_Library/Class/HID/Inc/usbd_hid.h"
 107              		.file 7 "Middlewares/ST/STM32_USB_Device_Library/Core/Inc/usbd_core.h"
 108              		.file 8 "Core/Inc/main.h"
ARM GAS  /tmp/ccDTP6hH.s 			page 5


DEFINED SYMBOLS
                            *ABS*:00000000 usb_device.c
     /tmp/ccDTP6hH.s:19     .text.MX_USB_DEVICE_Init:00000000 $t
     /tmp/ccDTP6hH.s:25     .text.MX_USB_DEVICE_Init:00000000 MX_USB_DEVICE_Init
     /tmp/ccDTP6hH.s:87     .text.MX_USB_DEVICE_Init:0000003c $d
     /tmp/ccDTP6hH.s:98     .bss.hUsbDeviceFS:00000000 hUsbDeviceFS
     /tmp/ccDTP6hH.s:95     .bss.hUsbDeviceFS:00000000 $d

UNDEFINED SYMBOLS
USBD_Init
USBD_RegisterClass
USBD_Start
Error_Handler
FS_Desc
USBD_HID
