ARM GAS  /tmp/ccP2MeyX.s 			page 1


   1              		.cpu cortex-m0
   2              		.arch armv6s-m
   3              		.fpu softvfp
   4              		.eabi_attribute 20, 1
   5              		.eabi_attribute 21, 1
   6              		.eabi_attribute 23, 3
   7              		.eabi_attribute 24, 1
   8              		.eabi_attribute 25, 1
   9              		.eabi_attribute 26, 1
  10              		.eabi_attribute 30, 1
  11              		.eabi_attribute 34, 0
  12              		.eabi_attribute 18, 4
  13              		.file	"main.c"
  14              		.text
  15              		.section	.text.addUSBReport,"ax",%progbits
  16              		.align	1
  17              		.global	addUSBReport
  18              		.syntax unified
  19              		.code	16
  20              		.thumb_func
  22              	addUSBReport:
  23              		@ args = 0, pretend = 0, frame = 0
  24              		@ frame_needed = 0, uses_anonymous_args = 0
  25              		@ link register save eliminated.
  26 0000 0300     		movs	r3, r0
  27 0002 2033     		adds	r3, r3, #32
  28 0004 DBB2     		uxtb	r3, r3
  29 0006 072B     		cmp	r3, #7
  30 0008 13D9     		bls	.L4
  31 000a 021F     		subs	r2, r0, #4
  32 000c D2B2     		uxtb	r2, r2
  33 000e 5F2A     		cmp	r2, #95
  34 0010 0ED8     		bhi	.L1
  35 0012 0438     		subs	r0, r0, #4
  36 0014 83B2     		uxth	r3, r0
  37 0016 DB08     		lsrs	r3, r3, #3
  38 0018 DBB2     		uxtb	r3, r3
  39 001a 0233     		adds	r3, r3, #2
  40 001c DBB2     		uxtb	r3, r3
  41 001e 0720     		movs	r0, #7
  42 0020 1040     		ands	r0, r2
  43 0022 084A     		ldr	r2, .L5
  44 0024 D318     		adds	r3, r2, r3
  45 0026 9A78     		ldrb	r2, [r3, #2]
  46 0028 0121     		movs	r1, #1
  47 002a 8140     		lsls	r1, r1, r0
  48 002c 0A43     		orrs	r2, r1
  49 002e 9A70     		strb	r2, [r3, #2]
  50              	.L1:
  51              		@ sp needed
  52 0030 7047     		bx	lr
  53              	.L4:
  54 0032 0449     		ldr	r1, .L5
  55 0034 8B78     		ldrb	r3, [r1, #2]
  56 0036 E038     		subs	r0, r0, #224
  57 0038 0122     		movs	r2, #1
  58 003a 8240     		lsls	r2, r2, r0
ARM GAS  /tmp/ccP2MeyX.s 			page 2


  59 003c 1343     		orrs	r3, r2
  60 003e 8B70     		strb	r3, [r1, #2]
  61 0040 F6E7     		b	.L1
  62              	.L6:
  63 0042 C046     		.align	2
  64              	.L5:
  65 0044 00000000 		.word	REPORT
  67              		.section	.text.Error_Handler,"ax",%progbits
  68              		.align	1
  69              		.global	Error_Handler
  70              		.syntax unified
  71              		.code	16
  72              		.thumb_func
  74              	Error_Handler:
  75              		@ Volatile: function does not return.
  76              		@ args = 0, pretend = 0, frame = 0
  77              		@ frame_needed = 0, uses_anonymous_args = 0
  78              		@ link register save eliminated.
  79              		.syntax divided
  80              	@ 142 "Drivers/CMSIS/Include/cmsis_gcc.h" 1
  81 0000 72B6     		cpsid i
  82              	@ 0 "" 2
  83              		.thumb
  84              		.syntax unified
  85              	.L8:
  86 0002 FEE7     		b	.L8
  88              		.section	.text.SystemClock_Config,"ax",%progbits
  89              		.align	1
  90              		.global	SystemClock_Config
  91              		.syntax unified
  92              		.code	16
  93              		.thumb_func
  95              	SystemClock_Config:
  96              		@ args = 0, pretend = 0, frame = 96
  97              		@ frame_needed = 0, uses_anonymous_args = 0
  98 0000 10B5     		push	{r4, lr}
  99 0002 98B0     		sub	sp, sp, #96
 100 0004 0BAC     		add	r4, sp, #44
 101 0006 3422     		movs	r2, #52
 102 0008 0021     		movs	r1, #0
 103 000a 2000     		movs	r0, r4
 104 000c FFF7FEFF 		bl	memset
 105 0010 1022     		movs	r2, #16
 106 0012 0021     		movs	r1, #0
 107 0014 07A8     		add	r0, sp, #28
 108 0016 FFF7FEFF 		bl	memset
 109 001a 1822     		movs	r2, #24
 110 001c 0021     		movs	r1, #0
 111 001e 01A8     		add	r0, sp, #4
 112 0020 FFF7FEFF 		bl	memset
 113 0024 2023     		movs	r3, #32
 114 0026 0B93     		str	r3, [sp, #44]
 115 0028 1F3B     		subs	r3, r3, #31
 116 002a 1393     		str	r3, [sp, #76]
 117 002c 2000     		movs	r0, r4
 118 002e FFF7FEFF 		bl	HAL_RCC_OscConfig
 119 0032 0028     		cmp	r0, #0
ARM GAS  /tmp/ccP2MeyX.s 			page 3


 120 0034 18D1     		bne	.L13
 121 0036 07A8     		add	r0, sp, #28
 122 0038 0723     		movs	r3, #7
 123 003a 0793     		str	r3, [sp, #28]
 124 003c 043B     		subs	r3, r3, #4
 125 003e 4360     		str	r3, [r0, #4]
 126 0040 0023     		movs	r3, #0
 127 0042 8360     		str	r3, [r0, #8]
 128 0044 C360     		str	r3, [r0, #12]
 129 0046 0121     		movs	r1, #1
 130 0048 FFF7FEFF 		bl	HAL_RCC_ClockConfig
 131 004c 0028     		cmp	r0, #0
 132 004e 0DD1     		bne	.L14
 133 0050 01A8     		add	r0, sp, #4
 134 0052 8023     		movs	r3, #128
 135 0054 9B02     		lsls	r3, r3, #10
 136 0056 0193     		str	r3, [sp, #4]
 137 0058 0023     		movs	r3, #0
 138 005a 4361     		str	r3, [r0, #20]
 139 005c FFF7FEFF 		bl	HAL_RCCEx_PeriphCLKConfig
 140 0060 0028     		cmp	r0, #0
 141 0062 05D1     		bne	.L15
 142 0064 18B0     		add	sp, sp, #96
 143              		@ sp needed
 144 0066 10BD     		pop	{r4, pc}
 145              	.L13:
 146 0068 FFF7FEFF 		bl	Error_Handler
 147              	.L14:
 148 006c FFF7FEFF 		bl	Error_Handler
 149              	.L15:
 150 0070 FFF7FEFF 		bl	Error_Handler
 152              		.section	.text.main,"ax",%progbits
 153              		.align	1
 154              		.global	main
 155              		.syntax unified
 156              		.code	16
 157              		.thumb_func
 159              	main:
 160              		@ Volatile: function does not return.
 161              		@ args = 0, pretend = 0, frame = 0
 162              		@ frame_needed = 0, uses_anonymous_args = 0
 163 0000 10B5     		push	{r4, lr}
 164 0002 FFF7FEFF 		bl	HAL_Init
 165 0006 FFF7FEFF 		bl	SystemClock_Config
 166 000a FFF7FEFF 		bl	MX_GPIO_Init
 167 000e FFF7FEFF 		bl	MX_USB_DEVICE_Init
 168              	.L17:
 169 0012 1A20     		movs	r0, #26
 170 0014 FFF7FEFF 		bl	addUSBReport
 171 0018 0449     		ldr	r1, .L18
 172 001a 0548     		ldr	r0, .L18+4
 173 001c 0E22     		movs	r2, #14
 174 001e FFF7FEFF 		bl	USBD_HID_SendReport
 175 0022 0A20     		movs	r0, #10
 176 0024 FFF7FEFF 		bl	HAL_Delay
 177 0028 F3E7     		b	.L17
 178              	.L19:
ARM GAS  /tmp/ccP2MeyX.s 			page 4


 179 002a C046     		.align	2
 180              	.L18:
 181 002c 00000000 		.word	REPORT
 182 0030 00000000 		.word	hUsbDeviceFS
 184              		.global	REPORT
 185              		.section	.bss.REPORT,"aw",%nobits
 186              		.align	2
 189              	REPORT:
 190 0000 00000000 		.space	14
 190      00000000 
 190      00000000 
 190      0000
 191              		.global	KEYCODE
 192              		.section	.data.KEYCODE,"aw"
 193              		.align	2
 196              	KEYCODE:
 197 0000 1A080706 		.ascii	"\032\010\007\006\033\035\004\024"
 197      1B1D0414 
 198              		.ident	"GCC: (Arch Repository) 14.2.0"
ARM GAS  /tmp/ccP2MeyX.s 			page 5

