ARM GAS  /tmp/ccDq0qaf.s 			page 1


   1              		.cpu cortex-m0
   2              		.arch armv6s-m
   3              		.fpu softvfp
   4              		.eabi_attribute 20, 1
   5              		.eabi_attribute 21, 1
   6              		.eabi_attribute 23, 3
   7              		.eabi_attribute 24, 1
   8              		.eabi_attribute 25, 1
   9              		.eabi_attribute 26, 1
  10              		.eabi_attribute 30, 1
  11              		.eabi_attribute 34, 0
  12              		.eabi_attribute 18, 4
  13              		.file	"stm32f0xx_hal_i2c.c"
  14              		.text
  15              		.section	.text.I2C_Flush_TXDR,"ax",%progbits
  16              		.align	1
  17              		.syntax unified
  18              		.code	16
  19              		.thumb_func
  21              	I2C_Flush_TXDR:
  22              		@ args = 0, pretend = 0, frame = 0
  23              		@ frame_needed = 0, uses_anonymous_args = 0
  24              		@ link register save eliminated.
  25 0000 0268     		ldr	r2, [r0]
  26 0002 9369     		ldr	r3, [r2, #24]
  27 0004 9B07     		lsls	r3, r3, #30
  28 0006 01D5     		bpl	.L2
  29 0008 0023     		movs	r3, #0
  30 000a 9362     		str	r3, [r2, #40]
  31              	.L2:
  32 000c 0368     		ldr	r3, [r0]
  33 000e 9A69     		ldr	r2, [r3, #24]
  34 0010 D207     		lsls	r2, r2, #31
  35 0012 03D4     		bmi	.L1
  36 0014 9A69     		ldr	r2, [r3, #24]
  37 0016 0121     		movs	r1, #1
  38 0018 0A43     		orrs	r2, r1
  39 001a 9A61     		str	r2, [r3, #24]
  40              	.L1:
  41              		@ sp needed
  42 001c 7047     		bx	lr
  44              		.section	.text.I2C_TransferConfig,"ax",%progbits
  45              		.align	1
  46              		.syntax unified
  47              		.code	16
  48              		.thumb_func
  50              	I2C_TransferConfig:
  51              		@ args = 4, pretend = 0, frame = 0
  52              		@ frame_needed = 0, uses_anonymous_args = 0
  53 0000 10B5     		push	{r4, lr}
  54 0002 8905     		lsls	r1, r1, #22
  55 0004 890D     		lsrs	r1, r1, #22
  56 0006 1204     		lsls	r2, r2, #16
  57 0008 1143     		orrs	r1, r2
  58 000a 1943     		orrs	r1, r3
  59 000c 029B     		ldr	r3, [sp, #8]
  60 000e 1943     		orrs	r1, r3
ARM GAS  /tmp/ccDq0qaf.s 			page 2


  61 0010 4900     		lsls	r1, r1, #1
  62 0012 4908     		lsrs	r1, r1, #1
  63 0014 0468     		ldr	r4, [r0]
  64 0016 6268     		ldr	r2, [r4, #4]
  65 0018 5B0D     		lsrs	r3, r3, #21
  66 001a 8020     		movs	r0, #128
  67 001c C000     		lsls	r0, r0, #3
  68 001e 0340     		ands	r3, r0
  69 0020 0348     		ldr	r0, .L7
  70 0022 0343     		orrs	r3, r0
  71 0024 9A43     		bics	r2, r3
  72 0026 1300     		movs	r3, r2
  73 0028 0B43     		orrs	r3, r1
  74 002a 6360     		str	r3, [r4, #4]
  75              		@ sp needed
  76 002c 10BD     		pop	{r4, pc}
  77              	.L8:
  78 002e C046     		.align	2
  79              	.L7:
  80 0030 FF63FF03 		.word	67068927
  82              		.section	.text.I2C_Enable_IRQ,"ax",%progbits
  83              		.align	1
  84              		.syntax unified
  85              		.code	16
  86              		.thumb_func
  88              	I2C_Enable_IRQ:
  89              		@ args = 0, pretend = 0, frame = 0
  90              		@ frame_needed = 0, uses_anonymous_args = 0
  91              		@ link register save eliminated.
  92 0000 436B     		ldr	r3, [r0, #52]
  93 0002 214A     		ldr	r2, .L27
  94 0004 9342     		cmp	r3, r2
  95 0006 1DD0     		beq	.L10
  96 0008 204A     		ldr	r2, .L27+4
  97 000a 9342     		cmp	r3, r2
  98 000c 1AD0     		beq	.L10
  99 000e 204A     		ldr	r2, .L27+8
 100 0010 9342     		cmp	r3, r2
 101 0012 17D0     		beq	.L10
 102 0014 0BB2     		sxth	r3, r1
 103 0016 002B     		cmp	r3, #0
 104 0018 0DDB     		blt	.L21
 105 001a 0023     		movs	r3, #0
 106              	.L11:
 107 001c CA07     		lsls	r2, r1, #31
 108 001e 01D5     		bpl	.L12
 109 0020 F222     		movs	r2, #242
 110 0022 1343     		orrs	r3, r2
 111              	.L12:
 112 0024 8A07     		lsls	r2, r1, #30
 113 0026 08D5     		bpl	.L13
 114 0028 F422     		movs	r2, #244
 115 002a 1343     		orrs	r3, r2
 116              	.L14:
 117 002c 2029     		cmp	r1, #32
 118 002e 19D1     		bne	.L15
 119 0030 2022     		movs	r2, #32
ARM GAS  /tmp/ccDq0qaf.s 			page 3


 120 0032 1343     		orrs	r3, r2
 121 0034 16E0     		b	.L15
 122              	.L21:
 123 0036 B823     		movs	r3, #184
 124 0038 F0E7     		b	.L11
 125              	.L13:
 126 003a 1029     		cmp	r1, #16
 127 003c F6D1     		bne	.L14
 128 003e 9022     		movs	r2, #144
 129 0040 1343     		orrs	r3, r2
 130 0042 0FE0     		b	.L15
 131              	.L10:
 132 0044 0BB2     		sxth	r3, r1
 133 0046 002B     		cmp	r3, #0
 134 0048 11DB     		blt	.L22
 135 004a 0023     		movs	r3, #0
 136              	.L16:
 137 004c CA07     		lsls	r2, r1, #31
 138 004e 01D5     		bpl	.L17
 139 0050 F222     		movs	r2, #242
 140 0052 1343     		orrs	r3, r2
 141              	.L17:
 142 0054 8A07     		lsls	r2, r1, #30
 143 0056 0CD5     		bpl	.L18
 144 0058 F422     		movs	r2, #244
 145 005a 1343     		orrs	r3, r2
 146              	.L19:
 147 005c 2029     		cmp	r1, #32
 148 005e 0DD0     		beq	.L25
 149              	.L20:
 150 0060 4029     		cmp	r1, #64
 151 0062 0ED0     		beq	.L26
 152              	.L15:
 153 0064 0168     		ldr	r1, [r0]
 154 0066 0A68     		ldr	r2, [r1]
 155 0068 1343     		orrs	r3, r2
 156 006a 0B60     		str	r3, [r1]
 157              		@ sp needed
 158 006c 7047     		bx	lr
 159              	.L22:
 160 006e B823     		movs	r3, #184
 161 0070 ECE7     		b	.L16
 162              	.L18:
 163 0072 1029     		cmp	r1, #16
 164 0074 F2D1     		bne	.L19
 165 0076 9022     		movs	r2, #144
 166 0078 1343     		orrs	r3, r2
 167 007a F1E7     		b	.L20
 168              	.L25:
 169 007c 6022     		movs	r2, #96
 170 007e 1343     		orrs	r3, r2
 171 0080 F0E7     		b	.L15
 172              	.L26:
 173 0082 4022     		movs	r2, #64
 174 0084 1343     		orrs	r3, r2
 175 0086 EDE7     		b	.L15
 176              	.L28:
ARM GAS  /tmp/ccDq0qaf.s 			page 4


 177              		.align	2
 178              	.L27:
 179 0088 00000000 		.word	I2C_Master_ISR_DMA
 180 008c 00000000 		.word	I2C_Slave_ISR_DMA
 181 0090 00000000 		.word	I2C_Mem_ISR_DMA
 183              		.section	.text.I2C_Disable_IRQ,"ax",%progbits
 184              		.align	1
 185              		.syntax unified
 186              		.code	16
 187              		.thumb_func
 189              	I2C_Disable_IRQ:
 190              		@ args = 0, pretend = 0, frame = 0
 191              		@ frame_needed = 0, uses_anonymous_args = 0
 192 0000 30B5     		push	{r4, r5, lr}
 193 0002 CB07     		lsls	r3, r1, #31
 194 0004 09D5     		bpl	.L36
 195 0006 4123     		movs	r3, #65
 196 0008 C35C     		ldrb	r3, [r0, r3]
 197 000a 2822     		movs	r2, #40
 198 000c 1340     		ands	r3, r2
 199 000e 282B     		cmp	r3, #40
 200 0010 01D0     		beq	.L40
 201 0012 F223     		movs	r3, #242
 202 0014 02E0     		b	.L30
 203              	.L40:
 204 0016 1A33     		adds	r3, r3, #26
 205 0018 00E0     		b	.L30
 206              	.L36:
 207 001a 0023     		movs	r3, #0
 208              	.L30:
 209 001c 8A07     		lsls	r2, r1, #30
 210 001e 09D5     		bpl	.L31
 211 0020 4424     		movs	r4, #68
 212 0022 1C43     		orrs	r4, r3
 213 0024 4122     		movs	r2, #65
 214 0026 825C     		ldrb	r2, [r0, r2]
 215 0028 2825     		movs	r5, #40
 216 002a 2A40     		ands	r2, r5
 217 002c 282A     		cmp	r2, #40
 218 002e 09D0     		beq	.L38
 219 0030 F422     		movs	r2, #244
 220 0032 1343     		orrs	r3, r2
 221              	.L31:
 222 0034 0AB2     		sxth	r2, r1
 223 0036 002A     		cmp	r2, #0
 224 0038 06DB     		blt	.L41
 225 003a 1029     		cmp	r1, #16
 226 003c 06D1     		bne	.L33
 227 003e 9022     		movs	r2, #144
 228 0040 1343     		orrs	r3, r2
 229 0042 05E0     		b	.L34
 230              	.L38:
 231 0044 2300     		movs	r3, r4
 232 0046 F5E7     		b	.L31
 233              	.L41:
 234 0048 B822     		movs	r2, #184
 235 004a 1343     		orrs	r3, r2
ARM GAS  /tmp/ccDq0qaf.s 			page 5


 236              	.L33:
 237 004c 2029     		cmp	r1, #32
 238 004e 06D0     		beq	.L42
 239              	.L34:
 240 0050 4029     		cmp	r1, #64
 241 0052 07D0     		beq	.L43
 242              	.L35:
 243 0054 0168     		ldr	r1, [r0]
 244 0056 0A68     		ldr	r2, [r1]
 245 0058 9A43     		bics	r2, r3
 246 005a 0A60     		str	r2, [r1]
 247              		@ sp needed
 248 005c 30BD     		pop	{r4, r5, pc}
 249              	.L42:
 250 005e 2022     		movs	r2, #32
 251 0060 1343     		orrs	r3, r2
 252 0062 F7E7     		b	.L35
 253              	.L43:
 254 0064 4022     		movs	r2, #64
 255 0066 1343     		orrs	r3, r2
 256 0068 F4E7     		b	.L35
 258              		.section	.text.I2C_ConvertOtherXferOptions,"ax",%progbits
 259              		.align	1
 260              		.syntax unified
 261              		.code	16
 262              		.thumb_func
 264              	I2C_ConvertOtherXferOptions:
 265              		@ args = 0, pretend = 0, frame = 0
 266              		@ frame_needed = 0, uses_anonymous_args = 0
 267              		@ link register save eliminated.
 268 0000 C36A     		ldr	r3, [r0, #44]
 269 0002 AA2B     		cmp	r3, #170
 270 0004 05D0     		beq	.L47
 271 0006 C26A     		ldr	r2, [r0, #44]
 272 0008 AA23     		movs	r3, #170
 273 000a 1B02     		lsls	r3, r3, #8
 274 000c 9A42     		cmp	r2, r3
 275 000e 03D0     		beq	.L48
 276              	.L44:
 277              		@ sp needed
 278 0010 7047     		bx	lr
 279              	.L47:
 280 0012 0023     		movs	r3, #0
 281 0014 C362     		str	r3, [r0, #44]
 282 0016 FBE7     		b	.L44
 283              	.L48:
 284 0018 8023     		movs	r3, #128
 285 001a 9B04     		lsls	r3, r3, #18
 286 001c C362     		str	r3, [r0, #44]
 287 001e F7E7     		b	.L44
 289              		.section	.text.I2C_IsErrorOccurred,"ax",%progbits
 290              		.align	1
 291              		.syntax unified
 292              		.code	16
 293              		.thumb_func
 295              	I2C_IsErrorOccurred:
 296              		@ args = 0, pretend = 0, frame = 0
ARM GAS  /tmp/ccDq0qaf.s 			page 6


 297              		@ frame_needed = 0, uses_anonymous_args = 0
 298 0000 F0B5     		push	{r4, r5, r6, r7, lr}
 299 0002 C646     		mov	lr, r8
 300 0004 00B5     		push	{lr}
 301 0006 0400     		movs	r4, r0
 302 0008 0D00     		movs	r5, r1
 303 000a 1700     		movs	r7, r2
 304 000c 0168     		ldr	r1, [r0]
 305 000e 8B69     		ldr	r3, [r1, #24]
 306 0010 1022     		movs	r2, #16
 307 0012 1600     		movs	r6, r2
 308 0014 1E40     		ands	r6, r3
 309 0016 1A42     		tst	r2, r3
 310 0018 00D1     		bne	.LCB360
 311 001a 75E0     		b	.L66	@long jump
 312              	.LCB360:
 313 001c 1023     		movs	r3, #16
 314 001e CB61     		str	r3, [r1, #28]
 315 0020 0023     		movs	r3, #0
 316 0022 9846     		mov	r8, r3
 317 0024 0026     		movs	r6, #0
 318              	.L52:
 319 0026 2068     		ldr	r0, [r4]
 320 0028 8369     		ldr	r3, [r0, #24]
 321 002a 9B06     		lsls	r3, r3, #26
 322 002c 31D4     		bmi	.L58
 323 002e 002E     		cmp	r6, #0
 324 0030 2FD1     		bne	.L58
 325 0032 6B1C     		adds	r3, r5, #1
 326 0034 F7D0     		beq	.L52
 327 0036 FFF7FEFF 		bl	HAL_GetTick
 328 003a C01B     		subs	r0, r0, r7
 329 003c A842     		cmp	r0, r5
 330 003e 01D8     		bhi	.L53
 331 0040 002D     		cmp	r5, #0
 332 0042 F0D1     		bne	.L52
 333              	.L53:
 334 0044 2168     		ldr	r1, [r4]
 335 0046 4B68     		ldr	r3, [r1, #4]
 336 0048 8022     		movs	r2, #128
 337 004a D201     		lsls	r2, r2, #7
 338 004c 1340     		ands	r3, r2
 339 004e 4222     		movs	r2, #66
 340 0050 A25C     		ldrb	r2, [r4, r2]
 341 0052 D2B2     		uxtb	r2, r2
 342 0054 8869     		ldr	r0, [r1, #24]
 343 0056 0004     		lsls	r0, r0, #16
 344 0058 03D5     		bpl	.L56
 345 005a 002B     		cmp	r3, #0
 346 005c 01D1     		bne	.L56
 347 005e 202A     		cmp	r2, #32
 348 0060 0ED1     		bne	.L72
 349              	.L56:
 350 0062 2368     		ldr	r3, [r4]
 351 0064 9B69     		ldr	r3, [r3, #24]
 352 0066 9B06     		lsls	r3, r3, #26
 353 0068 DDD4     		bmi	.L52
ARM GAS  /tmp/ccDq0qaf.s 			page 7


 354 006a FFF7FEFF 		bl	HAL_GetTick
 355 006e C01B     		subs	r0, r0, r7
 356 0070 1928     		cmp	r0, #25
 357 0072 F6D9     		bls	.L56
 358 0074 2023     		movs	r3, #32
 359 0076 4246     		mov	r2, r8
 360 0078 1A43     		orrs	r2, r3
 361 007a 9046     		mov	r8, r2
 362 007c 0126     		movs	r6, #1
 363 007e D2E7     		b	.L52
 364              	.L72:
 365 0080 4A68     		ldr	r2, [r1, #4]
 366 0082 8023     		movs	r3, #128
 367 0084 DB01     		lsls	r3, r3, #7
 368 0086 1343     		orrs	r3, r2
 369 0088 4B60     		str	r3, [r1, #4]
 370 008a FFF7FEFF 		bl	HAL_GetTick
 371 008e 0700     		movs	r7, r0
 372 0090 E7E7     		b	.L56
 373              	.L58:
 374 0092 002E     		cmp	r6, #0
 375 0094 01D1     		bne	.L60
 376 0096 2023     		movs	r3, #32
 377 0098 C361     		str	r3, [r0, #28]
 378              	.L60:
 379 009a 0426     		movs	r6, #4
 380 009c 4346     		mov	r3, r8
 381 009e 3343     		orrs	r3, r6
 382 00a0 1E00     		movs	r6, r3
 383 00a2 0125     		movs	r5, #1
 384              	.L50:
 385 00a4 2268     		ldr	r2, [r4]
 386 00a6 9369     		ldr	r3, [r2, #24]
 387 00a8 D905     		lsls	r1, r3, #23
 388 00aa 04D5     		bpl	.L61
 389 00ac 0121     		movs	r1, #1
 390 00ae 0E43     		orrs	r6, r1
 391 00b0 FF31     		adds	r1, r1, #255
 392 00b2 D161     		str	r1, [r2, #28]
 393 00b4 0125     		movs	r5, #1
 394              	.L61:
 395 00b6 5A05     		lsls	r2, r3, #21
 396 00b8 06D5     		bpl	.L62
 397 00ba 0822     		movs	r2, #8
 398 00bc 1643     		orrs	r6, r2
 399 00be 2268     		ldr	r2, [r4]
 400 00c0 8021     		movs	r1, #128
 401 00c2 C900     		lsls	r1, r1, #3
 402 00c4 D161     		str	r1, [r2, #28]
 403 00c6 0125     		movs	r5, #1
 404              	.L62:
 405 00c8 9B05     		lsls	r3, r3, #22
 406 00ca 1FD5     		bpl	.L63
 407 00cc 0223     		movs	r3, #2
 408 00ce 1E43     		orrs	r6, r3
 409 00d0 2368     		ldr	r3, [r4]
 410 00d2 8022     		movs	r2, #128
ARM GAS  /tmp/ccDq0qaf.s 			page 8


 411 00d4 9200     		lsls	r2, r2, #2
 412 00d6 DA61     		str	r2, [r3, #28]
 413 00d8 0125     		movs	r5, #1
 414              	.L64:
 415 00da 2000     		movs	r0, r4
 416 00dc FFF7FEFF 		bl	I2C_Flush_TXDR
 417 00e0 2268     		ldr	r2, [r4]
 418 00e2 5368     		ldr	r3, [r2, #4]
 419 00e4 0B49     		ldr	r1, .L73
 420 00e6 0B40     		ands	r3, r1
 421 00e8 5360     		str	r3, [r2, #4]
 422 00ea 636C     		ldr	r3, [r4, #68]
 423 00ec 3343     		orrs	r3, r6
 424 00ee 6364     		str	r3, [r4, #68]
 425 00f0 4123     		movs	r3, #65
 426 00f2 2022     		movs	r2, #32
 427 00f4 E254     		strb	r2, [r4, r3]
 428 00f6 0023     		movs	r3, #0
 429 00f8 2232     		adds	r2, r2, #34
 430 00fa A354     		strb	r3, [r4, r2]
 431 00fc 023A     		subs	r2, r2, #2
 432 00fe A354     		strb	r3, [r4, r2]
 433              	.L65:
 434 0100 2800     		movs	r0, r5
 435              		@ sp needed
 436 0102 80BC     		pop	{r7}
 437 0104 B846     		mov	r8, r7
 438 0106 F0BD     		pop	{r4, r5, r6, r7, pc}
 439              	.L66:
 440 0108 0025     		movs	r5, #0
 441 010a CBE7     		b	.L50
 442              	.L63:
 443 010c 002D     		cmp	r5, #0
 444 010e F7D0     		beq	.L65
 445 0110 E3E7     		b	.L64
 446              	.L74:
 447 0112 C046     		.align	2
 448              	.L73:
 449 0114 00E800FE 		.word	-33495040
 451              		.section	.text.I2C_WaitOnTXISFlagUntilTimeout,"ax",%progbits
 452              		.align	1
 453              		.syntax unified
 454              		.code	16
 455              		.thumb_func
 457              	I2C_WaitOnTXISFlagUntilTimeout:
 458              		@ args = 0, pretend = 0, frame = 0
 459              		@ frame_needed = 0, uses_anonymous_args = 0
 460 0000 70B5     		push	{r4, r5, r6, lr}
 461 0002 0400     		movs	r4, r0
 462 0004 0D00     		movs	r5, r1
 463 0006 1600     		movs	r6, r2
 464              	.L78:
 465 0008 2368     		ldr	r3, [r4]
 466 000a 9B69     		ldr	r3, [r3, #24]
 467 000c 9B07     		lsls	r3, r3, #30
 468 000e 20D4     		bmi	.L84
 469 0010 3200     		movs	r2, r6
ARM GAS  /tmp/ccDq0qaf.s 			page 9


 470 0012 2900     		movs	r1, r5
 471 0014 2000     		movs	r0, r4
 472 0016 FFF7FEFF 		bl	I2C_IsErrorOccurred
 473 001a 0028     		cmp	r0, #0
 474 001c 1BD1     		bne	.L81
 475 001e 6B1C     		adds	r3, r5, #1
 476 0020 F2D0     		beq	.L78
 477 0022 FFF7FEFF 		bl	HAL_GetTick
 478 0026 801B     		subs	r0, r0, r6
 479 0028 A842     		cmp	r0, r5
 480 002a 01D8     		bhi	.L79
 481 002c 002D     		cmp	r5, #0
 482 002e EBD1     		bne	.L78
 483              	.L79:
 484 0030 2368     		ldr	r3, [r4]
 485 0032 9B69     		ldr	r3, [r3, #24]
 486 0034 9B07     		lsls	r3, r3, #30
 487 0036 E7D4     		bmi	.L78
 488 0038 636C     		ldr	r3, [r4, #68]
 489 003a 2022     		movs	r2, #32
 490 003c 1343     		orrs	r3, r2
 491 003e 6364     		str	r3, [r4, #68]
 492 0040 4123     		movs	r3, #65
 493 0042 E254     		strb	r2, [r4, r3]
 494 0044 0023     		movs	r3, #0
 495 0046 2232     		adds	r2, r2, #34
 496 0048 A354     		strb	r3, [r4, r2]
 497 004a 023A     		subs	r2, r2, #2
 498 004c A354     		strb	r3, [r4, r2]
 499 004e 0120     		movs	r0, #1
 500 0050 00E0     		b	.L77
 501              	.L84:
 502 0052 0020     		movs	r0, #0
 503              	.L77:
 504              		@ sp needed
 505 0054 70BD     		pop	{r4, r5, r6, pc}
 506              	.L81:
 507 0056 0120     		movs	r0, #1
 508 0058 FCE7     		b	.L77
 510              		.section	.text.I2C_WaitOnFlagUntilTimeout,"ax",%progbits
 511              		.align	1
 512              		.syntax unified
 513              		.code	16
 514              		.thumb_func
 516              	I2C_WaitOnFlagUntilTimeout:
 517              		@ args = 4, pretend = 0, frame = 8
 518              		@ frame_needed = 0, uses_anonymous_args = 0
 519 0000 F0B5     		push	{r4, r5, r6, r7, lr}
 520 0002 D646     		mov	lr, r10
 521 0004 4F46     		mov	r7, r9
 522 0006 80B5     		push	{r7, lr}
 523 0008 83B0     		sub	sp, sp, #12
 524 000a 0700     		movs	r7, r0
 525 000c 0D00     		movs	r5, r1
 526 000e 1600     		movs	r6, r2
 527 0010 9946     		mov	r9, r3
 528 0012 0A9B     		ldr	r3, [sp, #40]
ARM GAS  /tmp/ccDq0qaf.s 			page 10


 529 0014 9A46     		mov	r10, r3
 530              	.L88:
 531 0016 3B68     		ldr	r3, [r7]
 532 0018 9C69     		ldr	r4, [r3, #24]
 533 001a 2C40     		ands	r4, r5
 534 001c 641B     		subs	r4, r4, r5
 535 001e 6342     		rsbs	r3, r4, #0
 536 0020 5C41     		adcs	r4, r4, r3
 537 0022 0196     		str	r6, [sp, #4]
 538 0024 B442     		cmp	r4, r6
 539 0026 28D1     		bne	.L93
 540 0028 5246     		mov	r2, r10
 541 002a 4946     		mov	r1, r9
 542 002c 3800     		movs	r0, r7
 543 002e FFF7FEFF 		bl	I2C_IsErrorOccurred
 544 0032 0028     		cmp	r0, #0
 545 0034 27D1     		bne	.L91
 546 0036 4B46     		mov	r3, r9
 547 0038 0133     		adds	r3, r3, #1
 548 003a ECD0     		beq	.L88
 549 003c FFF7FEFF 		bl	HAL_GetTick
 550 0040 5346     		mov	r3, r10
 551 0042 C01A     		subs	r0, r0, r3
 552 0044 4845     		cmp	r0, r9
 553 0046 02D8     		bhi	.L89
 554 0048 4B46     		mov	r3, r9
 555 004a 002B     		cmp	r3, #0
 556 004c E3D1     		bne	.L88
 557              	.L89:
 558 004e 3B68     		ldr	r3, [r7]
 559 0050 9B69     		ldr	r3, [r3, #24]
 560 0052 2B40     		ands	r3, r5
 561 0054 5B1B     		subs	r3, r3, r5
 562 0056 5A42     		rsbs	r2, r3, #0
 563 0058 5341     		adcs	r3, r3, r2
 564 005a 019A     		ldr	r2, [sp, #4]
 565 005c 9342     		cmp	r3, r2
 566 005e DAD1     		bne	.L88
 567 0060 7B6C     		ldr	r3, [r7, #68]
 568 0062 2022     		movs	r2, #32
 569 0064 1343     		orrs	r3, r2
 570 0066 7B64     		str	r3, [r7, #68]
 571 0068 4123     		movs	r3, #65
 572 006a FA54     		strb	r2, [r7, r3]
 573 006c 0023     		movs	r3, #0
 574 006e 2232     		adds	r2, r2, #34
 575 0070 BB54     		strb	r3, [r7, r2]
 576 0072 023A     		subs	r2, r2, #2
 577 0074 BB54     		strb	r3, [r7, r2]
 578 0076 0120     		movs	r0, #1
 579 0078 00E0     		b	.L87
 580              	.L93:
 581 007a 0020     		movs	r0, #0
 582              	.L87:
 583 007c 03B0     		add	sp, sp, #12
 584              		@ sp needed
 585 007e C0BC     		pop	{r6, r7}
ARM GAS  /tmp/ccDq0qaf.s 			page 11


 586 0080 BA46     		mov	r10, r7
 587 0082 B146     		mov	r9, r6
 588 0084 F0BD     		pop	{r4, r5, r6, r7, pc}
 589              	.L91:
 590 0086 0120     		movs	r0, #1
 591 0088 F8E7     		b	.L87
 593              		.section	.text.I2C_RequestMemoryWrite,"ax",%progbits
 594              		.align	1
 595              		.syntax unified
 596              		.code	16
 597              		.thumb_func
 599              	I2C_RequestMemoryWrite:
 600              		@ args = 8, pretend = 0, frame = 0
 601              		@ frame_needed = 0, uses_anonymous_args = 0
 602 0000 70B5     		push	{r4, r5, r6, lr}
 603 0002 82B0     		sub	sp, sp, #8
 604 0004 0400     		movs	r4, r0
 605 0006 1500     		movs	r5, r2
 606 0008 1E00     		movs	r6, r3
 607 000a 8023     		movs	r3, #128
 608 000c F2B2     		uxtb	r2, r6
 609 000e 1948     		ldr	r0, .L102
 610 0010 0090     		str	r0, [sp]
 611 0012 5B04     		lsls	r3, r3, #17
 612 0014 2000     		movs	r0, r4
 613 0016 FFF7FEFF 		bl	I2C_TransferConfig
 614 001a 079A     		ldr	r2, [sp, #28]
 615 001c 0699     		ldr	r1, [sp, #24]
 616 001e 2000     		movs	r0, r4
 617 0020 FFF7FEFF 		bl	I2C_WaitOnTXISFlagUntilTimeout
 618 0024 0028     		cmp	r0, #0
 619 0026 1ED1     		bne	.L98
 620 0028 012E     		cmp	r6, #1
 621 002a 0ED1     		bne	.L96
 622 002c 2368     		ldr	r3, [r4]
 623 002e EDB2     		uxtb	r5, r5
 624 0030 9D62     		str	r5, [r3, #40]
 625              	.L97:
 626 0032 079B     		ldr	r3, [sp, #28]
 627 0034 0093     		str	r3, [sp]
 628 0036 069B     		ldr	r3, [sp, #24]
 629 0038 0022     		movs	r2, #0
 630 003a 8021     		movs	r1, #128
 631 003c 2000     		movs	r0, r4
 632 003e FFF7FEFF 		bl	I2C_WaitOnFlagUntilTimeout
 633 0042 0028     		cmp	r0, #0
 634 0044 13D1     		bne	.L101
 635              	.L95:
 636 0046 02B0     		add	sp, sp, #8
 637              		@ sp needed
 638 0048 70BD     		pop	{r4, r5, r6, pc}
 639              	.L96:
 640 004a 2368     		ldr	r3, [r4]
 641 004c 2A0A     		lsrs	r2, r5, #8
 642 004e 9A62     		str	r2, [r3, #40]
 643 0050 079A     		ldr	r2, [sp, #28]
 644 0052 0699     		ldr	r1, [sp, #24]
ARM GAS  /tmp/ccDq0qaf.s 			page 12


 645 0054 2000     		movs	r0, r4
 646 0056 FFF7FEFF 		bl	I2C_WaitOnTXISFlagUntilTimeout
 647 005a 0028     		cmp	r0, #0
 648 005c 05D1     		bne	.L99
 649 005e 2368     		ldr	r3, [r4]
 650 0060 EDB2     		uxtb	r5, r5
 651 0062 9D62     		str	r5, [r3, #40]
 652 0064 E5E7     		b	.L97
 653              	.L98:
 654 0066 0120     		movs	r0, #1
 655 0068 EDE7     		b	.L95
 656              	.L99:
 657 006a 0120     		movs	r0, #1
 658 006c EBE7     		b	.L95
 659              	.L101:
 660 006e 0120     		movs	r0, #1
 661 0070 E9E7     		b	.L95
 662              	.L103:
 663 0072 C046     		.align	2
 664              	.L102:
 665 0074 00200080 		.word	-2147475456
 667              		.section	.text.I2C_RequestMemoryRead,"ax",%progbits
 668              		.align	1
 669              		.syntax unified
 670              		.code	16
 671              		.thumb_func
 673              	I2C_RequestMemoryRead:
 674              		@ args = 8, pretend = 0, frame = 0
 675              		@ frame_needed = 0, uses_anonymous_args = 0
 676 0000 70B5     		push	{r4, r5, r6, lr}
 677 0002 82B0     		sub	sp, sp, #8
 678 0004 0400     		movs	r4, r0
 679 0006 1500     		movs	r5, r2
 680 0008 1E00     		movs	r6, r3
 681 000a DAB2     		uxtb	r2, r3
 682 000c 184B     		ldr	r3, .L112
 683 000e 0093     		str	r3, [sp]
 684 0010 0023     		movs	r3, #0
 685 0012 FFF7FEFF 		bl	I2C_TransferConfig
 686 0016 079A     		ldr	r2, [sp, #28]
 687 0018 0699     		ldr	r1, [sp, #24]
 688 001a 2000     		movs	r0, r4
 689 001c FFF7FEFF 		bl	I2C_WaitOnTXISFlagUntilTimeout
 690 0020 0028     		cmp	r0, #0
 691 0022 1ED1     		bne	.L108
 692 0024 012E     		cmp	r6, #1
 693 0026 0ED1     		bne	.L106
 694 0028 2368     		ldr	r3, [r4]
 695 002a EDB2     		uxtb	r5, r5
 696 002c 9D62     		str	r5, [r3, #40]
 697              	.L107:
 698 002e 079B     		ldr	r3, [sp, #28]
 699 0030 0093     		str	r3, [sp]
 700 0032 069B     		ldr	r3, [sp, #24]
 701 0034 0022     		movs	r2, #0
 702 0036 4021     		movs	r1, #64
 703 0038 2000     		movs	r0, r4
ARM GAS  /tmp/ccDq0qaf.s 			page 13


 704 003a FFF7FEFF 		bl	I2C_WaitOnFlagUntilTimeout
 705 003e 0028     		cmp	r0, #0
 706 0040 13D1     		bne	.L111
 707              	.L105:
 708 0042 02B0     		add	sp, sp, #8
 709              		@ sp needed
 710 0044 70BD     		pop	{r4, r5, r6, pc}
 711              	.L106:
 712 0046 2368     		ldr	r3, [r4]
 713 0048 2A0A     		lsrs	r2, r5, #8
 714 004a 9A62     		str	r2, [r3, #40]
 715 004c 079A     		ldr	r2, [sp, #28]
 716 004e 0699     		ldr	r1, [sp, #24]
 717 0050 2000     		movs	r0, r4
 718 0052 FFF7FEFF 		bl	I2C_WaitOnTXISFlagUntilTimeout
 719 0056 0028     		cmp	r0, #0
 720 0058 05D1     		bne	.L109
 721 005a 2368     		ldr	r3, [r4]
 722 005c EDB2     		uxtb	r5, r5
 723 005e 9D62     		str	r5, [r3, #40]
 724 0060 E5E7     		b	.L107
 725              	.L108:
 726 0062 0120     		movs	r0, #1
 727 0064 EDE7     		b	.L105
 728              	.L109:
 729 0066 0120     		movs	r0, #1
 730 0068 EBE7     		b	.L105
 731              	.L111:
 732 006a 0120     		movs	r0, #1
 733 006c E9E7     		b	.L105
 734              	.L113:
 735 006e C046     		.align	2
 736              	.L112:
 737 0070 00200080 		.word	-2147475456
 739              		.section	.text.I2C_WaitOnSTOPFlagUntilTimeout,"ax",%progbits
 740              		.align	1
 741              		.syntax unified
 742              		.code	16
 743              		.thumb_func
 745              	I2C_WaitOnSTOPFlagUntilTimeout:
 746              		@ args = 0, pretend = 0, frame = 0
 747              		@ frame_needed = 0, uses_anonymous_args = 0
 748 0000 70B5     		push	{r4, r5, r6, lr}
 749 0002 0400     		movs	r4, r0
 750 0004 0D00     		movs	r5, r1
 751 0006 1600     		movs	r6, r2
 752 0008 03E0     		b	.L115
 753              	.L117:
 754 000a 2368     		ldr	r3, [r4]
 755 000c 9B69     		ldr	r3, [r3, #24]
 756 000e 9B06     		lsls	r3, r3, #26
 757 0010 12D5     		bpl	.L121
 758              	.L115:
 759 0012 2368     		ldr	r3, [r4]
 760 0014 9B69     		ldr	r3, [r3, #24]
 761 0016 9B06     		lsls	r3, r3, #26
 762 0018 1BD4     		bmi	.L122
ARM GAS  /tmp/ccDq0qaf.s 			page 14


 763 001a 3200     		movs	r2, r6
 764 001c 2900     		movs	r1, r5
 765 001e 2000     		movs	r0, r4
 766 0020 FFF7FEFF 		bl	I2C_IsErrorOccurred
 767 0024 0028     		cmp	r0, #0
 768 0026 16D1     		bne	.L119
 769 0028 FFF7FEFF 		bl	HAL_GetTick
 770 002c 801B     		subs	r0, r0, r6
 771 002e A842     		cmp	r0, r5
 772 0030 EBD8     		bhi	.L117
 773 0032 002D     		cmp	r5, #0
 774 0034 EDD1     		bne	.L115
 775 0036 E8E7     		b	.L117
 776              	.L121:
 777 0038 636C     		ldr	r3, [r4, #68]
 778 003a 2022     		movs	r2, #32
 779 003c 1343     		orrs	r3, r2
 780 003e 6364     		str	r3, [r4, #68]
 781 0040 4123     		movs	r3, #65
 782 0042 E254     		strb	r2, [r4, r3]
 783 0044 0023     		movs	r3, #0
 784 0046 2232     		adds	r2, r2, #34
 785 0048 A354     		strb	r3, [r4, r2]
 786 004a 023A     		subs	r2, r2, #2
 787 004c A354     		strb	r3, [r4, r2]
 788 004e 0120     		movs	r0, #1
 789 0050 00E0     		b	.L116
 790              	.L122:
 791 0052 0020     		movs	r0, #0
 792              	.L116:
 793              		@ sp needed
 794 0054 70BD     		pop	{r4, r5, r6, pc}
 795              	.L119:
 796 0056 0120     		movs	r0, #1
 797 0058 FCE7     		b	.L116
 799              		.section	.text.I2C_WaitOnRXNEFlagUntilTimeout,"ax",%progbits
 800              		.align	1
 801              		.syntax unified
 802              		.code	16
 803              		.thumb_func
 805              	I2C_WaitOnRXNEFlagUntilTimeout:
 806              		@ args = 0, pretend = 0, frame = 0
 807              		@ frame_needed = 0, uses_anonymous_args = 0
 808 0000 F8B5     		push	{r3, r4, r5, r6, r7, lr}
 809 0002 0400     		movs	r4, r0
 810 0004 0E00     		movs	r6, r1
 811 0006 1700     		movs	r7, r2
 812 0008 0025     		movs	r5, #0
 813 000a 18E0     		b	.L124
 814              	.L127:
 815 000c 0023     		movs	r3, #0
 816 000e 6364     		str	r3, [r4, #68]
 817              	.L126:
 818 0010 FFF7FEFF 		bl	HAL_GetTick
 819 0014 C01B     		subs	r0, r0, r7
 820 0016 B042     		cmp	r0, r6
 821 0018 01D8     		bhi	.L128
ARM GAS  /tmp/ccDq0qaf.s 			page 15


 822 001a 002E     		cmp	r6, #0
 823 001c 0FD1     		bne	.L124
 824              	.L128:
 825 001e 002D     		cmp	r5, #0
 826 0020 0DD1     		bne	.L124
 827 0022 2368     		ldr	r3, [r4]
 828 0024 9B69     		ldr	r3, [r3, #24]
 829 0026 5B07     		lsls	r3, r3, #29
 830 0028 09D4     		bmi	.L124
 831 002a 636C     		ldr	r3, [r4, #68]
 832 002c 2022     		movs	r2, #32
 833 002e 1343     		orrs	r3, r2
 834 0030 6364     		str	r3, [r4, #68]
 835 0032 4123     		movs	r3, #65
 836 0034 E254     		strb	r2, [r4, r3]
 837 0036 013B     		subs	r3, r3, #1
 838 0038 0022     		movs	r2, #0
 839 003a E254     		strb	r2, [r4, r3]
 840 003c 0135     		adds	r5, r5, #1
 841              	.L124:
 842 003e 2368     		ldr	r3, [r4]
 843 0040 9B69     		ldr	r3, [r3, #24]
 844 0042 5B07     		lsls	r3, r3, #29
 845 0044 28D4     		bmi	.L130
 846 0046 002D     		cmp	r5, #0
 847 0048 26D1     		bne	.L130
 848 004a 3A00     		movs	r2, r7
 849 004c 3100     		movs	r1, r6
 850 004e 2000     		movs	r0, r4
 851 0050 FFF7FEFF 		bl	I2C_IsErrorOccurred
 852 0054 0028     		cmp	r0, #0
 853 0056 00D0     		beq	.L125
 854 0058 0125     		movs	r5, #1
 855              	.L125:
 856 005a 2268     		ldr	r2, [r4]
 857 005c 9369     		ldr	r3, [r2, #24]
 858 005e 9B06     		lsls	r3, r3, #26
 859 0060 D6D5     		bpl	.L126
 860 0062 002D     		cmp	r5, #0
 861 0064 D4D1     		bne	.L126
 862 0066 9369     		ldr	r3, [r2, #24]
 863 0068 9369     		ldr	r3, [r2, #24]
 864 006a DB06     		lsls	r3, r3, #27
 865 006c CED5     		bpl	.L127
 866 006e 1023     		movs	r3, #16
 867 0070 D361     		str	r3, [r2, #28]
 868 0072 0C3B     		subs	r3, r3, #12
 869 0074 6364     		str	r3, [r4, #68]
 870 0076 2368     		ldr	r3, [r4]
 871 0078 2022     		movs	r2, #32
 872 007a DA61     		str	r2, [r3, #28]
 873 007c 2168     		ldr	r1, [r4]
 874 007e 4B68     		ldr	r3, [r1, #4]
 875 0080 0648     		ldr	r0, .L136
 876 0082 0340     		ands	r3, r0
 877 0084 4B60     		str	r3, [r1, #4]
 878 0086 4123     		movs	r3, #65
ARM GAS  /tmp/ccDq0qaf.s 			page 16


 879 0088 E254     		strb	r2, [r4, r3]
 880 008a 0023     		movs	r3, #0
 881 008c 2232     		adds	r2, r2, #34
 882 008e A354     		strb	r3, [r4, r2]
 883 0090 023A     		subs	r2, r2, #2
 884 0092 A354     		strb	r3, [r4, r2]
 885 0094 0135     		adds	r5, r5, #1
 886 0096 BBE7     		b	.L126
 887              	.L130:
 888 0098 2800     		movs	r0, r5
 889              		@ sp needed
 890 009a F8BD     		pop	{r3, r4, r5, r6, r7, pc}
 891              	.L137:
 892              		.align	2
 893              	.L136:
 894 009c 00E800FE 		.word	-33495040
 896              		.section	.text.HAL_I2C_MspInit,"ax",%progbits
 897              		.align	1
 898              		.weak	HAL_I2C_MspInit
 899              		.syntax unified
 900              		.code	16
 901              		.thumb_func
 903              	HAL_I2C_MspInit:
 904              		@ args = 0, pretend = 0, frame = 0
 905              		@ frame_needed = 0, uses_anonymous_args = 0
 906              		@ link register save eliminated.
 907              		@ sp needed
 908 0000 7047     		bx	lr
 910              		.section	.text.HAL_I2C_Init,"ax",%progbits
 911              		.align	1
 912              		.global	HAL_I2C_Init
 913              		.syntax unified
 914              		.code	16
 915              		.thumb_func
 917              	HAL_I2C_Init:
 918              		@ args = 0, pretend = 0, frame = 0
 919              		@ frame_needed = 0, uses_anonymous_args = 0
 920 0000 10B5     		push	{r4, lr}
 921 0002 041E     		subs	r4, r0, #0
 922 0004 60D0     		beq	.L146
 923 0006 4123     		movs	r3, #65
 924 0008 C35C     		ldrb	r3, [r0, r3]
 925 000a 002B     		cmp	r3, #0
 926 000c 48D0     		beq	.L147
 927              	.L141:
 928 000e 4123     		movs	r3, #65
 929 0010 2422     		movs	r2, #36
 930 0012 E254     		strb	r2, [r4, r3]
 931 0014 2268     		ldr	r2, [r4]
 932 0016 1368     		ldr	r3, [r2]
 933 0018 0121     		movs	r1, #1
 934 001a 8B43     		bics	r3, r1
 935 001c 1360     		str	r3, [r2]
 936 001e 6368     		ldr	r3, [r4, #4]
 937 0020 2268     		ldr	r2, [r4]
 938 0022 2A49     		ldr	r1, .L150
 939 0024 0B40     		ands	r3, r1
ARM GAS  /tmp/ccDq0qaf.s 			page 17


 940 0026 1361     		str	r3, [r2, #16]
 941 0028 2268     		ldr	r2, [r4]
 942 002a 9368     		ldr	r3, [r2, #8]
 943 002c 2849     		ldr	r1, .L150+4
 944 002e 0B40     		ands	r3, r1
 945 0030 9360     		str	r3, [r2, #8]
 946 0032 E368     		ldr	r3, [r4, #12]
 947 0034 012B     		cmp	r3, #1
 948 0036 39D0     		beq	.L148
 949 0038 A168     		ldr	r1, [r4, #8]
 950 003a 2268     		ldr	r2, [r4]
 951 003c 8423     		movs	r3, #132
 952 003e 1B02     		lsls	r3, r3, #8
 953 0040 0B43     		orrs	r3, r1
 954 0042 9360     		str	r3, [r2, #8]
 955              	.L143:
 956 0044 E368     		ldr	r3, [r4, #12]
 957 0046 022B     		cmp	r3, #2
 958 0048 37D0     		beq	.L149
 959 004a 2268     		ldr	r2, [r4]
 960 004c 5368     		ldr	r3, [r2, #4]
 961 004e 2149     		ldr	r1, .L150+8
 962 0050 0B40     		ands	r3, r1
 963 0052 5360     		str	r3, [r2, #4]
 964              	.L145:
 965 0054 2268     		ldr	r2, [r4]
 966 0056 5168     		ldr	r1, [r2, #4]
 967 0058 1F4B     		ldr	r3, .L150+12
 968 005a 0B43     		orrs	r3, r1
 969 005c 5360     		str	r3, [r2, #4]
 970 005e 2268     		ldr	r2, [r4]
 971 0060 D368     		ldr	r3, [r2, #12]
 972 0062 1B49     		ldr	r1, .L150+4
 973 0064 0B40     		ands	r3, r1
 974 0066 D360     		str	r3, [r2, #12]
 975 0068 2369     		ldr	r3, [r4, #16]
 976 006a 6269     		ldr	r2, [r4, #20]
 977 006c 1343     		orrs	r3, r2
 978 006e A269     		ldr	r2, [r4, #24]
 979 0070 1202     		lsls	r2, r2, #8
 980 0072 2168     		ldr	r1, [r4]
 981 0074 1343     		orrs	r3, r2
 982 0076 CB60     		str	r3, [r1, #12]
 983 0078 E369     		ldr	r3, [r4, #28]
 984 007a 216A     		ldr	r1, [r4, #32]
 985 007c 2268     		ldr	r2, [r4]
 986 007e 0B43     		orrs	r3, r1
 987 0080 1360     		str	r3, [r2]
 988 0082 2268     		ldr	r2, [r4]
 989 0084 1368     		ldr	r3, [r2]
 990 0086 0121     		movs	r1, #1
 991 0088 0B43     		orrs	r3, r1
 992 008a 1360     		str	r3, [r2]
 993 008c 0023     		movs	r3, #0
 994 008e 6364     		str	r3, [r4, #68]
 995 0090 4122     		movs	r2, #65
 996 0092 1F31     		adds	r1, r1, #31
ARM GAS  /tmp/ccDq0qaf.s 			page 18


 997 0094 A154     		strb	r1, [r4, r2]
 998 0096 2363     		str	r3, [r4, #48]
 999 0098 0132     		adds	r2, r2, #1
 1000 009a A354     		strb	r3, [r4, r2]
 1001 009c 0020     		movs	r0, #0
 1002              	.L140:
 1003              		@ sp needed
 1004 009e 10BD     		pop	{r4, pc}
 1005              	.L147:
 1006 00a0 4033     		adds	r3, r3, #64
 1007 00a2 0022     		movs	r2, #0
 1008 00a4 C254     		strb	r2, [r0, r3]
 1009 00a6 FFF7FEFF 		bl	HAL_I2C_MspInit
 1010 00aa B0E7     		b	.L141
 1011              	.L148:
 1012 00ac A168     		ldr	r1, [r4, #8]
 1013 00ae 2268     		ldr	r2, [r4]
 1014 00b0 8023     		movs	r3, #128
 1015 00b2 1B02     		lsls	r3, r3, #8
 1016 00b4 0B43     		orrs	r3, r1
 1017 00b6 9360     		str	r3, [r2, #8]
 1018 00b8 C4E7     		b	.L143
 1019              	.L149:
 1020 00ba 2268     		ldr	r2, [r4]
 1021 00bc 5168     		ldr	r1, [r2, #4]
 1022 00be 8023     		movs	r3, #128
 1023 00c0 1B01     		lsls	r3, r3, #4
 1024 00c2 0B43     		orrs	r3, r1
 1025 00c4 5360     		str	r3, [r2, #4]
 1026 00c6 C5E7     		b	.L145
 1027              	.L146:
 1028 00c8 0120     		movs	r0, #1
 1029 00ca E8E7     		b	.L140
 1030              	.L151:
 1031              		.align	2
 1032              	.L150:
 1033 00cc FFFFFFF0 		.word	-251658241
 1034 00d0 FF7FFFFF 		.word	-32769
 1035 00d4 FFF7FFFF 		.word	-2049
 1036 00d8 00800002 		.word	33587200
 1038              		.section	.text.HAL_I2C_MspDeInit,"ax",%progbits
 1039              		.align	1
 1040              		.weak	HAL_I2C_MspDeInit
 1041              		.syntax unified
 1042              		.code	16
 1043              		.thumb_func
 1045              	HAL_I2C_MspDeInit:
 1046              		@ args = 0, pretend = 0, frame = 0
 1047              		@ frame_needed = 0, uses_anonymous_args = 0
 1048              		@ link register save eliminated.
 1049              		@ sp needed
 1050 0000 7047     		bx	lr
 1052              		.section	.text.HAL_I2C_DeInit,"ax",%progbits
 1053              		.align	1
 1054              		.global	HAL_I2C_DeInit
 1055              		.syntax unified
 1056              		.code	16
ARM GAS  /tmp/ccDq0qaf.s 			page 19


 1057              		.thumb_func
 1059              	HAL_I2C_DeInit:
 1060              		@ args = 0, pretend = 0, frame = 0
 1061              		@ frame_needed = 0, uses_anonymous_args = 0
 1062 0000 70B5     		push	{r4, r5, r6, lr}
 1063 0002 041E     		subs	r4, r0, #0
 1064 0004 13D0     		beq	.L155
 1065 0006 4125     		movs	r5, #65
 1066 0008 2423     		movs	r3, #36
 1067 000a 4355     		strb	r3, [r0, r5]
 1068 000c 0268     		ldr	r2, [r0]
 1069 000e 1368     		ldr	r3, [r2]
 1070 0010 0121     		movs	r1, #1
 1071 0012 8B43     		bics	r3, r1
 1072 0014 1360     		str	r3, [r2]
 1073 0016 FFF7FEFF 		bl	HAL_I2C_MspDeInit
 1074 001a 0023     		movs	r3, #0
 1075 001c 6364     		str	r3, [r4, #68]
 1076 001e 6355     		strb	r3, [r4, r5]
 1077 0020 2363     		str	r3, [r4, #48]
 1078 0022 4222     		movs	r2, #66
 1079 0024 A354     		strb	r3, [r4, r2]
 1080 0026 023A     		subs	r2, r2, #2
 1081 0028 A354     		strb	r3, [r4, r2]
 1082 002a 0020     		movs	r0, #0
 1083              	.L154:
 1084              		@ sp needed
 1085 002c 70BD     		pop	{r4, r5, r6, pc}
 1086              	.L155:
 1087 002e 0120     		movs	r0, #1
 1088 0030 FCE7     		b	.L154
 1090              		.section	.text.HAL_I2C_Master_Transmit,"ax",%progbits
 1091              		.align	1
 1092              		.global	HAL_I2C_Master_Transmit
 1093              		.syntax unified
 1094              		.code	16
 1095              		.thumb_func
 1097              	HAL_I2C_Master_Transmit:
 1098              		@ args = 4, pretend = 0, frame = 8
 1099              		@ frame_needed = 0, uses_anonymous_args = 0
 1100 0000 F0B5     		push	{r4, r5, r6, r7, lr}
 1101 0002 85B0     		sub	sp, sp, #20
 1102 0004 0400     		movs	r4, r0
 1103 0006 0E00     		movs	r6, r1
 1104 0008 0292     		str	r2, [sp, #8]
 1105 000a 0393     		str	r3, [sp, #12]
 1106 000c 0A9D     		ldr	r5, [sp, #40]
 1107 000e 4123     		movs	r3, #65
 1108 0010 C35C     		ldrb	r3, [r0, r3]
 1109 0012 202B     		cmp	r3, #32
 1110 0014 00D0     		beq	.LCB1298
 1111 0016 AAE0     		b	.L166	@long jump
 1112              	.LCB1298:
 1113 0018 2033     		adds	r3, r3, #32
 1114 001a C35C     		ldrb	r3, [r0, r3]
 1115 001c 012B     		cmp	r3, #1
 1116 001e 00D1     		bne	.LCB1302
ARM GAS  /tmp/ccDq0qaf.s 			page 20


 1117 0020 A8E0     		b	.L167	@long jump
 1118              	.LCB1302:
 1119 0022 4023     		movs	r3, #64
 1120 0024 0122     		movs	r2, #1
 1121 0026 C254     		strb	r2, [r0, r3]
 1122 0028 FFF7FEFF 		bl	HAL_GetTick
 1123 002c 0700     		movs	r7, r0
 1124 002e 8021     		movs	r1, #128
 1125 0030 0090     		str	r0, [sp]
 1126 0032 1923     		movs	r3, #25
 1127 0034 0122     		movs	r2, #1
 1128 0036 0902     		lsls	r1, r1, #8
 1129 0038 2000     		movs	r0, r4
 1130 003a FFF7FEFF 		bl	I2C_WaitOnFlagUntilTimeout
 1131 003e 0028     		cmp	r0, #0
 1132 0040 00D0     		beq	.LCB1317
 1133 0042 99E0     		b	.L168	@long jump
 1134              	.LCB1317:
 1135 0044 4123     		movs	r3, #65
 1136 0046 2122     		movs	r2, #33
 1137 0048 E254     		strb	r2, [r4, r3]
 1138 004a 0133     		adds	r3, r3, #1
 1139 004c 113A     		subs	r2, r2, #17
 1140 004e E254     		strb	r2, [r4, r3]
 1141 0050 0023     		movs	r3, #0
 1142 0052 6364     		str	r3, [r4, #68]
 1143 0054 029A     		ldr	r2, [sp, #8]
 1144 0056 6262     		str	r2, [r4, #36]
 1145 0058 039A     		ldr	r2, [sp, #12]
 1146 005a 6285     		strh	r2, [r4, #42]
 1147 005c 6363     		str	r3, [r4, #52]
 1148 005e 638D     		ldrh	r3, [r4, #42]
 1149 0060 FF2B     		cmp	r3, #255
 1150 0062 1ED9     		bls	.L158
 1151 0064 FF23     		movs	r3, #255
 1152 0066 2385     		strh	r3, [r4, #40]
 1153 0068 8023     		movs	r3, #128
 1154 006a 5B04     		lsls	r3, r3, #17
 1155              	.L159:
 1156 006c 228D     		ldrh	r2, [r4, #40]
 1157 006e 002A     		cmp	r2, #0
 1158 0070 1CD0     		beq	.L160
 1159 0072 2268     		ldr	r2, [r4]
 1160 0074 0299     		ldr	r1, [sp, #8]
 1161 0076 0978     		ldrb	r1, [r1]
 1162 0078 9162     		str	r1, [r2, #40]
 1163 007a 626A     		ldr	r2, [r4, #36]
 1164 007c 0132     		adds	r2, r2, #1
 1165 007e 6262     		str	r2, [r4, #36]
 1166 0080 628D     		ldrh	r2, [r4, #42]
 1167 0082 013A     		subs	r2, r2, #1
 1168 0084 92B2     		uxth	r2, r2
 1169 0086 6285     		strh	r2, [r4, #42]
 1170 0088 228D     		ldrh	r2, [r4, #40]
 1171 008a 013A     		subs	r2, r2, #1
 1172 008c 92B2     		uxth	r2, r2
 1173 008e 2285     		strh	r2, [r4, #40]
ARM GAS  /tmp/ccDq0qaf.s 			page 21


 1174 0090 0132     		adds	r2, r2, #1
 1175 0092 D2B2     		uxtb	r2, r2
 1176 0094 3C49     		ldr	r1, .L173
 1177 0096 0091     		str	r1, [sp]
 1178 0098 3100     		movs	r1, r6
 1179 009a 2000     		movs	r0, r4
 1180 009c FFF7FEFF 		bl	I2C_TransferConfig
 1181 00a0 18E0     		b	.L164
 1182              	.L158:
 1183 00a2 638D     		ldrh	r3, [r4, #42]
 1184 00a4 2385     		strh	r3, [r4, #40]
 1185 00a6 8023     		movs	r3, #128
 1186 00a8 9B04     		lsls	r3, r3, #18
 1187 00aa DFE7     		b	.L159
 1188              	.L160:
 1189 00ac D2B2     		uxtb	r2, r2
 1190 00ae 3649     		ldr	r1, .L173
 1191 00b0 0091     		str	r1, [sp]
 1192 00b2 3100     		movs	r1, r6
 1193 00b4 2000     		movs	r0, r4
 1194 00b6 FFF7FEFF 		bl	I2C_TransferConfig
 1195 00ba 0BE0     		b	.L164
 1196              	.L163:
 1197 00bc 628D     		ldrh	r2, [r4, #42]
 1198 00be 92B2     		uxth	r2, r2
 1199 00c0 2285     		strh	r2, [r4, #40]
 1200 00c2 8023     		movs	r3, #128
 1201 00c4 D2B2     		uxtb	r2, r2
 1202 00c6 0021     		movs	r1, #0
 1203 00c8 0091     		str	r1, [sp]
 1204 00ca 9B04     		lsls	r3, r3, #18
 1205 00cc 3100     		movs	r1, r6
 1206 00ce 2000     		movs	r0, r4
 1207 00d0 FFF7FEFF 		bl	I2C_TransferConfig
 1208              	.L164:
 1209 00d4 638D     		ldrh	r3, [r4, #42]
 1210 00d6 002B     		cmp	r3, #0
 1211 00d8 32D0     		beq	.L172
 1212 00da 3A00     		movs	r2, r7
 1213 00dc 2900     		movs	r1, r5
 1214 00de 2000     		movs	r0, r4
 1215 00e0 FFF7FEFF 		bl	I2C_WaitOnTXISFlagUntilTimeout
 1216 00e4 0028     		cmp	r0, #0
 1217 00e6 49D1     		bne	.L169
 1218 00e8 626A     		ldr	r2, [r4, #36]
 1219 00ea 2368     		ldr	r3, [r4]
 1220 00ec 1278     		ldrb	r2, [r2]
 1221 00ee 9A62     		str	r2, [r3, #40]
 1222 00f0 636A     		ldr	r3, [r4, #36]
 1223 00f2 0133     		adds	r3, r3, #1
 1224 00f4 6362     		str	r3, [r4, #36]
 1225 00f6 638D     		ldrh	r3, [r4, #42]
 1226 00f8 013B     		subs	r3, r3, #1
 1227 00fa 9BB2     		uxth	r3, r3
 1228 00fc 6385     		strh	r3, [r4, #42]
 1229 00fe 238D     		ldrh	r3, [r4, #40]
 1230 0100 013B     		subs	r3, r3, #1
ARM GAS  /tmp/ccDq0qaf.s 			page 22


 1231 0102 9BB2     		uxth	r3, r3
 1232 0104 2385     		strh	r3, [r4, #40]
 1233 0106 628D     		ldrh	r2, [r4, #42]
 1234 0108 002A     		cmp	r2, #0
 1235 010a E3D0     		beq	.L164
 1236 010c 002B     		cmp	r3, #0
 1237 010e E1D1     		bne	.L164
 1238 0110 0097     		str	r7, [sp]
 1239 0112 2B00     		movs	r3, r5
 1240 0114 0022     		movs	r2, #0
 1241 0116 8021     		movs	r1, #128
 1242 0118 2000     		movs	r0, r4
 1243 011a FFF7FEFF 		bl	I2C_WaitOnFlagUntilTimeout
 1244 011e 0028     		cmp	r0, #0
 1245 0120 2ED1     		bne	.L170
 1246 0122 638D     		ldrh	r3, [r4, #42]
 1247 0124 FF2B     		cmp	r3, #255
 1248 0126 C9D9     		bls	.L163
 1249 0128 FF23     		movs	r3, #255
 1250 012a 2385     		strh	r3, [r4, #40]
 1251 012c 7F3B     		subs	r3, r3, #127
 1252 012e 0022     		movs	r2, #0
 1253 0130 0092     		str	r2, [sp]
 1254 0132 5B04     		lsls	r3, r3, #17
 1255 0134 FF32     		adds	r2, r2, #255
 1256 0136 3100     		movs	r1, r6
 1257 0138 2000     		movs	r0, r4
 1258 013a FFF7FEFF 		bl	I2C_TransferConfig
 1259 013e C9E7     		b	.L164
 1260              	.L172:
 1261 0140 3A00     		movs	r2, r7
 1262 0142 2900     		movs	r1, r5
 1263 0144 2000     		movs	r0, r4
 1264 0146 FFF7FEFF 		bl	I2C_WaitOnSTOPFlagUntilTimeout
 1265 014a 0028     		cmp	r0, #0
 1266 014c 1AD1     		bne	.L171
 1267 014e 2368     		ldr	r3, [r4]
 1268 0150 2022     		movs	r2, #32
 1269 0152 DA61     		str	r2, [r3, #28]
 1270 0154 2168     		ldr	r1, [r4]
 1271 0156 4B68     		ldr	r3, [r1, #4]
 1272 0158 0C4D     		ldr	r5, .L173+4
 1273 015a 2B40     		ands	r3, r5
 1274 015c 4B60     		str	r3, [r1, #4]
 1275 015e 4123     		movs	r3, #65
 1276 0160 E254     		strb	r2, [r4, r3]
 1277 0162 0023     		movs	r3, #0
 1278 0164 2232     		adds	r2, r2, #34
 1279 0166 A354     		strb	r3, [r4, r2]
 1280 0168 023A     		subs	r2, r2, #2
 1281 016a A354     		strb	r3, [r4, r2]
 1282 016c 00E0     		b	.L157
 1283              	.L166:
 1284 016e 0220     		movs	r0, #2
 1285              	.L157:
 1286 0170 05B0     		add	sp, sp, #20
 1287              		@ sp needed
ARM GAS  /tmp/ccDq0qaf.s 			page 23


 1288 0172 F0BD     		pop	{r4, r5, r6, r7, pc}
 1289              	.L167:
 1290 0174 0220     		movs	r0, #2
 1291 0176 FBE7     		b	.L157
 1292              	.L168:
 1293 0178 0120     		movs	r0, #1
 1294 017a F9E7     		b	.L157
 1295              	.L169:
 1296 017c 0120     		movs	r0, #1
 1297 017e F7E7     		b	.L157
 1298              	.L170:
 1299 0180 0120     		movs	r0, #1
 1300 0182 F5E7     		b	.L157
 1301              	.L171:
 1302 0184 0120     		movs	r0, #1
 1303 0186 F3E7     		b	.L157
 1304              	.L174:
 1305              		.align	2
 1306              	.L173:
 1307 0188 00200080 		.word	-2147475456
 1308 018c 00E800FE 		.word	-33495040
 1310              		.section	.text.HAL_I2C_Master_Receive,"ax",%progbits
 1311              		.align	1
 1312              		.global	HAL_I2C_Master_Receive
 1313              		.syntax unified
 1314              		.code	16
 1315              		.thumb_func
 1317              	HAL_I2C_Master_Receive:
 1318              		@ args = 4, pretend = 0, frame = 8
 1319              		@ frame_needed = 0, uses_anonymous_args = 0
 1320 0000 F0B5     		push	{r4, r5, r6, r7, lr}
 1321 0002 85B0     		sub	sp, sp, #20
 1322 0004 0400     		movs	r4, r0
 1323 0006 0F00     		movs	r7, r1
 1324 0008 0292     		str	r2, [sp, #8]
 1325 000a 0393     		str	r3, [sp, #12]
 1326 000c 0A9D     		ldr	r5, [sp, #40]
 1327 000e 4123     		movs	r3, #65
 1328 0010 C35C     		ldrb	r3, [r0, r3]
 1329 0012 202B     		cmp	r3, #32
 1330 0014 00D0     		beq	.LCB1553
 1331 0016 97E0     		b	.L183	@long jump
 1332              	.LCB1553:
 1333 0018 2033     		adds	r3, r3, #32
 1334 001a C35C     		ldrb	r3, [r0, r3]
 1335 001c 012B     		cmp	r3, #1
 1336 001e 00D1     		bne	.LCB1557
 1337 0020 95E0     		b	.L184	@long jump
 1338              	.LCB1557:
 1339 0022 4023     		movs	r3, #64
 1340 0024 0122     		movs	r2, #1
 1341 0026 C254     		strb	r2, [r0, r3]
 1342 0028 FFF7FEFF 		bl	HAL_GetTick
 1343 002c 0600     		movs	r6, r0
 1344 002e 8021     		movs	r1, #128
 1345 0030 0090     		str	r0, [sp]
 1346 0032 1923     		movs	r3, #25
ARM GAS  /tmp/ccDq0qaf.s 			page 24


 1347 0034 0122     		movs	r2, #1
 1348 0036 0902     		lsls	r1, r1, #8
 1349 0038 2000     		movs	r0, r4
 1350 003a FFF7FEFF 		bl	I2C_WaitOnFlagUntilTimeout
 1351 003e 0028     		cmp	r0, #0
 1352 0040 00D0     		beq	.LCB1572
 1353 0042 86E0     		b	.L185	@long jump
 1354              	.LCB1572:
 1355 0044 4123     		movs	r3, #65
 1356 0046 2222     		movs	r2, #34
 1357 0048 E254     		strb	r2, [r4, r3]
 1358 004a 0133     		adds	r3, r3, #1
 1359 004c 123A     		subs	r2, r2, #18
 1360 004e E254     		strb	r2, [r4, r3]
 1361 0050 0023     		movs	r3, #0
 1362 0052 6364     		str	r3, [r4, #68]
 1363 0054 029A     		ldr	r2, [sp, #8]
 1364 0056 6262     		str	r2, [r4, #36]
 1365 0058 039A     		ldr	r2, [sp, #12]
 1366 005a 6285     		strh	r2, [r4, #42]
 1367 005c 6363     		str	r3, [r4, #52]
 1368 005e 638D     		ldrh	r3, [r4, #42]
 1369 0060 FF2B     		cmp	r3, #255
 1370 0062 0BD9     		bls	.L177
 1371 0064 0123     		movs	r3, #1
 1372 0066 2385     		strh	r3, [r4, #40]
 1373 0068 7F33     		adds	r3, r3, #127
 1374 006a 3E4A     		ldr	r2, .L190
 1375 006c 0092     		str	r2, [sp]
 1376 006e 5B04     		lsls	r3, r3, #17
 1377 0070 0122     		movs	r2, #1
 1378 0072 3900     		movs	r1, r7
 1379 0074 2000     		movs	r0, r4
 1380 0076 FFF7FEFF 		bl	I2C_TransferConfig
 1381 007a 18E0     		b	.L181
 1382              	.L177:
 1383 007c 628D     		ldrh	r2, [r4, #42]
 1384 007e 92B2     		uxth	r2, r2
 1385 0080 2285     		strh	r2, [r4, #40]
 1386 0082 8023     		movs	r3, #128
 1387 0084 D2B2     		uxtb	r2, r2
 1388 0086 3749     		ldr	r1, .L190
 1389 0088 0091     		str	r1, [sp]
 1390 008a 9B04     		lsls	r3, r3, #18
 1391 008c 3900     		movs	r1, r7
 1392 008e 2000     		movs	r0, r4
 1393 0090 FFF7FEFF 		bl	I2C_TransferConfig
 1394 0094 0BE0     		b	.L181
 1395              	.L180:
 1396 0096 628D     		ldrh	r2, [r4, #42]
 1397 0098 92B2     		uxth	r2, r2
 1398 009a 2285     		strh	r2, [r4, #40]
 1399 009c 8023     		movs	r3, #128
 1400 009e D2B2     		uxtb	r2, r2
 1401 00a0 0021     		movs	r1, #0
 1402 00a2 0091     		str	r1, [sp]
 1403 00a4 9B04     		lsls	r3, r3, #18
ARM GAS  /tmp/ccDq0qaf.s 			page 25


 1404 00a6 3900     		movs	r1, r7
 1405 00a8 2000     		movs	r0, r4
 1406 00aa FFF7FEFF 		bl	I2C_TransferConfig
 1407              	.L181:
 1408 00ae 638D     		ldrh	r3, [r4, #42]
 1409 00b0 002B     		cmp	r3, #0
 1410 00b2 32D0     		beq	.L189
 1411 00b4 3200     		movs	r2, r6
 1412 00b6 2900     		movs	r1, r5
 1413 00b8 2000     		movs	r0, r4
 1414 00ba FFF7FEFF 		bl	I2C_WaitOnRXNEFlagUntilTimeout
 1415 00be 0028     		cmp	r0, #0
 1416 00c0 49D1     		bne	.L186
 1417 00c2 2368     		ldr	r3, [r4]
 1418 00c4 5A6A     		ldr	r2, [r3, #36]
 1419 00c6 636A     		ldr	r3, [r4, #36]
 1420 00c8 1A70     		strb	r2, [r3]
 1421 00ca 636A     		ldr	r3, [r4, #36]
 1422 00cc 0133     		adds	r3, r3, #1
 1423 00ce 6362     		str	r3, [r4, #36]
 1424 00d0 238D     		ldrh	r3, [r4, #40]
 1425 00d2 013B     		subs	r3, r3, #1
 1426 00d4 9BB2     		uxth	r3, r3
 1427 00d6 2385     		strh	r3, [r4, #40]
 1428 00d8 628D     		ldrh	r2, [r4, #42]
 1429 00da 013A     		subs	r2, r2, #1
 1430 00dc 92B2     		uxth	r2, r2
 1431 00de 6285     		strh	r2, [r4, #42]
 1432 00e0 628D     		ldrh	r2, [r4, #42]
 1433 00e2 002A     		cmp	r2, #0
 1434 00e4 E3D0     		beq	.L181
 1435 00e6 002B     		cmp	r3, #0
 1436 00e8 E1D1     		bne	.L181
 1437 00ea 0096     		str	r6, [sp]
 1438 00ec 2B00     		movs	r3, r5
 1439 00ee 0022     		movs	r2, #0
 1440 00f0 8021     		movs	r1, #128
 1441 00f2 2000     		movs	r0, r4
 1442 00f4 FFF7FEFF 		bl	I2C_WaitOnFlagUntilTimeout
 1443 00f8 0028     		cmp	r0, #0
 1444 00fa 2ED1     		bne	.L187
 1445 00fc 638D     		ldrh	r3, [r4, #42]
 1446 00fe FF2B     		cmp	r3, #255
 1447 0100 C9D9     		bls	.L180
 1448 0102 FF23     		movs	r3, #255
 1449 0104 2385     		strh	r3, [r4, #40]
 1450 0106 7F3B     		subs	r3, r3, #127
 1451 0108 0022     		movs	r2, #0
 1452 010a 0092     		str	r2, [sp]
 1453 010c 5B04     		lsls	r3, r3, #17
 1454 010e FF32     		adds	r2, r2, #255
 1455 0110 3900     		movs	r1, r7
 1456 0112 2000     		movs	r0, r4
 1457 0114 FFF7FEFF 		bl	I2C_TransferConfig
 1458 0118 C9E7     		b	.L181
 1459              	.L189:
 1460 011a 3200     		movs	r2, r6
ARM GAS  /tmp/ccDq0qaf.s 			page 26


 1461 011c 2900     		movs	r1, r5
 1462 011e 2000     		movs	r0, r4
 1463 0120 FFF7FEFF 		bl	I2C_WaitOnSTOPFlagUntilTimeout
 1464 0124 0028     		cmp	r0, #0
 1465 0126 1AD1     		bne	.L188
 1466 0128 2368     		ldr	r3, [r4]
 1467 012a 2022     		movs	r2, #32
 1468 012c DA61     		str	r2, [r3, #28]
 1469 012e 2168     		ldr	r1, [r4]
 1470 0130 4B68     		ldr	r3, [r1, #4]
 1471 0132 0D4D     		ldr	r5, .L190+4
 1472 0134 2B40     		ands	r3, r5
 1473 0136 4B60     		str	r3, [r1, #4]
 1474 0138 4123     		movs	r3, #65
 1475 013a E254     		strb	r2, [r4, r3]
 1476 013c 0023     		movs	r3, #0
 1477 013e 2232     		adds	r2, r2, #34
 1478 0140 A354     		strb	r3, [r4, r2]
 1479 0142 023A     		subs	r2, r2, #2
 1480 0144 A354     		strb	r3, [r4, r2]
 1481 0146 00E0     		b	.L176
 1482              	.L183:
 1483 0148 0220     		movs	r0, #2
 1484              	.L176:
 1485 014a 05B0     		add	sp, sp, #20
 1486              		@ sp needed
 1487 014c F0BD     		pop	{r4, r5, r6, r7, pc}
 1488              	.L184:
 1489 014e 0220     		movs	r0, #2
 1490 0150 FBE7     		b	.L176
 1491              	.L185:
 1492 0152 0120     		movs	r0, #1
 1493 0154 F9E7     		b	.L176
 1494              	.L186:
 1495 0156 0120     		movs	r0, #1
 1496 0158 F7E7     		b	.L176
 1497              	.L187:
 1498 015a 0120     		movs	r0, #1
 1499 015c F5E7     		b	.L176
 1500              	.L188:
 1501 015e 0120     		movs	r0, #1
 1502 0160 F3E7     		b	.L176
 1503              	.L191:
 1504 0162 C046     		.align	2
 1505              	.L190:
 1506 0164 00240080 		.word	-2147474432
 1507 0168 00E800FE 		.word	-33495040
 1509              		.section	.text.HAL_I2C_Slave_Transmit,"ax",%progbits
 1510              		.align	1
 1511              		.global	HAL_I2C_Slave_Transmit
 1512              		.syntax unified
 1513              		.code	16
 1514              		.thumb_func
 1516              	HAL_I2C_Slave_Transmit:
 1517              		@ args = 0, pretend = 0, frame = 0
 1518              		@ frame_needed = 0, uses_anonymous_args = 0
 1519 0000 F0B5     		push	{r4, r5, r6, r7, lr}
ARM GAS  /tmp/ccDq0qaf.s 			page 27


 1520 0002 C646     		mov	lr, r8
 1521 0004 00B5     		push	{lr}
 1522 0006 82B0     		sub	sp, sp, #8
 1523 0008 0400     		movs	r4, r0
 1524 000a 0D00     		movs	r5, r1
 1525 000c 9046     		mov	r8, r2
 1526 000e 1E00     		movs	r6, r3
 1527 0010 4123     		movs	r3, #65
 1528 0012 C35C     		ldrb	r3, [r0, r3]
 1529 0014 202B     		cmp	r3, #32
 1530 0016 00D0     		beq	.LCB1782
 1531 0018 EDE0     		b	.L208	@long jump
 1532              	.LCB1782:
 1533 001a 0029     		cmp	r1, #0
 1534 001c 51D0     		beq	.L194
 1535 001e 002A     		cmp	r2, #0
 1536 0020 4FD0     		beq	.L194
 1537 0022 4023     		movs	r3, #64
 1538 0024 C35C     		ldrb	r3, [r0, r3]
 1539 0026 012B     		cmp	r3, #1
 1540 0028 00D1     		bne	.LCB1790
 1541 002a E9E0     		b	.L209	@long jump
 1542              	.LCB1790:
 1543 002c 4023     		movs	r3, #64
 1544 002e 0122     		movs	r2, #1
 1545 0030 C254     		strb	r2, [r0, r3]
 1546 0032 FFF7FEFF 		bl	HAL_GetTick
 1547 0036 0700     		movs	r7, r0
 1548 0038 4123     		movs	r3, #65
 1549 003a 2122     		movs	r2, #33
 1550 003c E254     		strb	r2, [r4, r3]
 1551 003e 0133     		adds	r3, r3, #1
 1552 0040 013A     		subs	r2, r2, #1
 1553 0042 E254     		strb	r2, [r4, r3]
 1554 0044 0023     		movs	r3, #0
 1555 0046 6364     		str	r3, [r4, #68]
 1556 0048 6562     		str	r5, [r4, #36]
 1557 004a 4246     		mov	r2, r8
 1558 004c 6285     		strh	r2, [r4, #42]
 1559 004e 6363     		str	r3, [r4, #52]
 1560 0050 2268     		ldr	r2, [r4]
 1561 0052 5368     		ldr	r3, [r2, #4]
 1562 0054 6B49     		ldr	r1, .L218
 1563 0056 0B40     		ands	r3, r1
 1564 0058 5360     		str	r3, [r2, #4]
 1565 005a 226A     		ldr	r2, [r4, #32]
 1566 005c 8023     		movs	r3, #128
 1567 005e 9B02     		lsls	r3, r3, #10
 1568 0060 9A42     		cmp	r2, r3
 1569 0062 33D0     		beq	.L210
 1570              	.L196:
 1571 0064 0097     		str	r7, [sp]
 1572 0066 3300     		movs	r3, r6
 1573 0068 0022     		movs	r2, #0
 1574 006a 0821     		movs	r1, #8
 1575 006c 2000     		movs	r0, r4
 1576 006e FFF7FEFF 		bl	I2C_WaitOnFlagUntilTimeout
ARM GAS  /tmp/ccDq0qaf.s 			page 28


 1577 0072 0028     		cmp	r0, #0
 1578 0074 36D1     		bne	.L211
 1579 0076 2368     		ldr	r3, [r4]
 1580 0078 0822     		movs	r2, #8
 1581 007a DA61     		str	r2, [r3, #28]
 1582 007c E368     		ldr	r3, [r4, #12]
 1583 007e 022B     		cmp	r3, #2
 1584 0080 3BD0     		beq	.L212
 1585              	.L198:
 1586 0082 8021     		movs	r1, #128
 1587 0084 0097     		str	r7, [sp]
 1588 0086 3300     		movs	r3, r6
 1589 0088 0022     		movs	r2, #0
 1590 008a 4902     		lsls	r1, r1, #9
 1591 008c 2000     		movs	r0, r4
 1592 008e FFF7FEFF 		bl	I2C_WaitOnFlagUntilTimeout
 1593 0092 0028     		cmp	r0, #0
 1594 0094 49D1     		bne	.L213
 1595              	.L200:
 1596 0096 638D     		ldrh	r3, [r4, #42]
 1597 0098 002B     		cmp	r3, #0
 1598 009a 59D0     		beq	.L214
 1599 009c 3A00     		movs	r2, r7
 1600 009e 3100     		movs	r1, r6
 1601 00a0 2000     		movs	r0, r4
 1602 00a2 FFF7FEFF 		bl	I2C_WaitOnTXISFlagUntilTimeout
 1603 00a6 0028     		cmp	r0, #0
 1604 00a8 4AD1     		bne	.L215
 1605 00aa 626A     		ldr	r2, [r4, #36]
 1606 00ac 2368     		ldr	r3, [r4]
 1607 00ae 1278     		ldrb	r2, [r2]
 1608 00b0 9A62     		str	r2, [r3, #40]
 1609 00b2 656A     		ldr	r5, [r4, #36]
 1610 00b4 0135     		adds	r5, r5, #1
 1611 00b6 6562     		str	r5, [r4, #36]
 1612 00b8 658D     		ldrh	r5, [r4, #42]
 1613 00ba 013D     		subs	r5, r5, #1
 1614 00bc ADB2     		uxth	r5, r5
 1615 00be 6585     		strh	r5, [r4, #42]
 1616 00c0 E9E7     		b	.L200
 1617              	.L194:
 1618 00c2 8023     		movs	r3, #128
 1619 00c4 9B00     		lsls	r3, r3, #2
 1620 00c6 6364     		str	r3, [r4, #68]
 1621 00c8 0120     		movs	r0, #1
 1622 00ca 95E0     		b	.L193
 1623              	.L210:
 1624 00cc 626A     		ldr	r2, [r4, #36]
 1625 00ce 2368     		ldr	r3, [r4]
 1626 00d0 1278     		ldrb	r2, [r2]
 1627 00d2 9A62     		str	r2, [r3, #40]
 1628 00d4 636A     		ldr	r3, [r4, #36]
 1629 00d6 0133     		adds	r3, r3, #1
 1630 00d8 6362     		str	r3, [r4, #36]
 1631 00da 638D     		ldrh	r3, [r4, #42]
 1632 00dc 013B     		subs	r3, r3, #1
 1633 00de 9BB2     		uxth	r3, r3
ARM GAS  /tmp/ccDq0qaf.s 			page 29


 1634 00e0 6385     		strh	r3, [r4, #42]
 1635 00e2 BFE7     		b	.L196
 1636              	.L211:
 1637 00e4 2268     		ldr	r2, [r4]
 1638 00e6 5168     		ldr	r1, [r2, #4]
 1639 00e8 8023     		movs	r3, #128
 1640 00ea 1B02     		lsls	r3, r3, #8
 1641 00ec 0B43     		orrs	r3, r1
 1642 00ee 5360     		str	r3, [r2, #4]
 1643 00f0 2000     		movs	r0, r4
 1644 00f2 FFF7FEFF 		bl	I2C_Flush_TXDR
 1645 00f6 0120     		movs	r0, #1
 1646 00f8 7EE0     		b	.L193
 1647              	.L212:
 1648 00fa 0097     		str	r7, [sp]
 1649 00fc 3300     		movs	r3, r6
 1650 00fe 0022     		movs	r2, #0
 1651 0100 0821     		movs	r1, #8
 1652 0102 2000     		movs	r0, r4
 1653 0104 FFF7FEFF 		bl	I2C_WaitOnFlagUntilTimeout
 1654 0108 0028     		cmp	r0, #0
 1655 010a 03D1     		bne	.L216
 1656 010c 2368     		ldr	r3, [r4]
 1657 010e 0822     		movs	r2, #8
 1658 0110 DA61     		str	r2, [r3, #28]
 1659 0112 B6E7     		b	.L198
 1660              	.L216:
 1661 0114 2268     		ldr	r2, [r4]
 1662 0116 5168     		ldr	r1, [r2, #4]
 1663 0118 8023     		movs	r3, #128
 1664 011a 1B02     		lsls	r3, r3, #8
 1665 011c 0B43     		orrs	r3, r1
 1666 011e 5360     		str	r3, [r2, #4]
 1667 0120 2000     		movs	r0, r4
 1668 0122 FFF7FEFF 		bl	I2C_Flush_TXDR
 1669 0126 0120     		movs	r0, #1
 1670 0128 66E0     		b	.L193
 1671              	.L213:
 1672 012a 2268     		ldr	r2, [r4]
 1673 012c 5168     		ldr	r1, [r2, #4]
 1674 012e 8023     		movs	r3, #128
 1675 0130 1B02     		lsls	r3, r3, #8
 1676 0132 0B43     		orrs	r3, r1
 1677 0134 5360     		str	r3, [r2, #4]
 1678 0136 2000     		movs	r0, r4
 1679 0138 FFF7FEFF 		bl	I2C_Flush_TXDR
 1680 013c 0120     		movs	r0, #1
 1681 013e 5BE0     		b	.L193
 1682              	.L215:
 1683 0140 2268     		ldr	r2, [r4]
 1684 0142 5168     		ldr	r1, [r2, #4]
 1685 0144 8023     		movs	r3, #128
 1686 0146 1B02     		lsls	r3, r3, #8
 1687 0148 0B43     		orrs	r3, r1
 1688 014a 5360     		str	r3, [r2, #4]
 1689 014c 0120     		movs	r0, #1
 1690 014e 53E0     		b	.L193
ARM GAS  /tmp/ccDq0qaf.s 			page 30


 1691              	.L214:
 1692 0150 0097     		str	r7, [sp]
 1693 0152 3300     		movs	r3, r6
 1694 0154 0022     		movs	r2, #0
 1695 0156 1021     		movs	r1, #16
 1696 0158 2000     		movs	r0, r4
 1697 015a FFF7FEFF 		bl	I2C_WaitOnFlagUntilTimeout
 1698 015e 0028     		cmp	r0, #0
 1699 0160 21D0     		beq	.L203
 1700 0162 638D     		ldrh	r3, [r4, #42]
 1701 0164 9BB2     		uxth	r3, r3
 1702 0166 626C     		ldr	r2, [r4, #68]
 1703 0168 042A     		cmp	r2, #4
 1704 016a 14D1     		bne	.L204
 1705 016c 002B     		cmp	r3, #0
 1706 016e 12D1     		bne	.L204
 1707 0170 6364     		str	r3, [r4, #68]
 1708              	.L205:
 1709 0172 8021     		movs	r1, #128
 1710 0174 0097     		str	r7, [sp]
 1711 0176 3300     		movs	r3, r6
 1712 0178 0122     		movs	r2, #1
 1713 017a 0902     		lsls	r1, r1, #8
 1714 017c 2000     		movs	r0, r4
 1715 017e FFF7FEFF 		bl	I2C_WaitOnFlagUntilTimeout
 1716 0182 0028     		cmp	r0, #0
 1717 0184 28D0     		beq	.L207
 1718 0186 2268     		ldr	r2, [r4]
 1719 0188 5168     		ldr	r1, [r2, #4]
 1720 018a 8023     		movs	r3, #128
 1721 018c 1B02     		lsls	r3, r3, #8
 1722 018e 0B43     		orrs	r3, r1
 1723 0190 5360     		str	r3, [r2, #4]
 1724 0192 0120     		movs	r0, #1
 1725 0194 30E0     		b	.L193
 1726              	.L204:
 1727 0196 2268     		ldr	r2, [r4]
 1728 0198 5168     		ldr	r1, [r2, #4]
 1729 019a 8023     		movs	r3, #128
 1730 019c 1B02     		lsls	r3, r3, #8
 1731 019e 0B43     		orrs	r3, r1
 1732 01a0 5360     		str	r3, [r2, #4]
 1733 01a2 0120     		movs	r0, #1
 1734 01a4 28E0     		b	.L193
 1735              	.L203:
 1736 01a6 2000     		movs	r0, r4
 1737 01a8 FFF7FEFF 		bl	I2C_Flush_TXDR
 1738 01ac 2368     		ldr	r3, [r4]
 1739 01ae 1022     		movs	r2, #16
 1740 01b0 DA61     		str	r2, [r3, #28]
 1741 01b2 3A00     		movs	r2, r7
 1742 01b4 3100     		movs	r1, r6
 1743 01b6 2000     		movs	r0, r4
 1744 01b8 FFF7FEFF 		bl	I2C_WaitOnSTOPFlagUntilTimeout
 1745 01bc 0028     		cmp	r0, #0
 1746 01be 03D1     		bne	.L217
 1747 01c0 2368     		ldr	r3, [r4]
ARM GAS  /tmp/ccDq0qaf.s 			page 31


 1748 01c2 2022     		movs	r2, #32
 1749 01c4 DA61     		str	r2, [r3, #28]
 1750 01c6 D4E7     		b	.L205
 1751              	.L217:
 1752 01c8 2268     		ldr	r2, [r4]
 1753 01ca 5168     		ldr	r1, [r2, #4]
 1754 01cc 8023     		movs	r3, #128
 1755 01ce 1B02     		lsls	r3, r3, #8
 1756 01d0 0B43     		orrs	r3, r1
 1757 01d2 5360     		str	r3, [r2, #4]
 1758 01d4 0120     		movs	r0, #1
 1759 01d6 0FE0     		b	.L193
 1760              	.L207:
 1761 01d8 2268     		ldr	r2, [r4]
 1762 01da 5168     		ldr	r1, [r2, #4]
 1763 01dc 8023     		movs	r3, #128
 1764 01de 1B02     		lsls	r3, r3, #8
 1765 01e0 0B43     		orrs	r3, r1
 1766 01e2 5360     		str	r3, [r2, #4]
 1767 01e4 4123     		movs	r3, #65
 1768 01e6 2022     		movs	r2, #32
 1769 01e8 E254     		strb	r2, [r4, r3]
 1770 01ea 0023     		movs	r3, #0
 1771 01ec 2232     		adds	r2, r2, #34
 1772 01ee A354     		strb	r3, [r4, r2]
 1773 01f0 023A     		subs	r2, r2, #2
 1774 01f2 A354     		strb	r3, [r4, r2]
 1775 01f4 00E0     		b	.L193
 1776              	.L208:
 1777 01f6 0220     		movs	r0, #2
 1778              	.L193:
 1779 01f8 02B0     		add	sp, sp, #8
 1780              		@ sp needed
 1781 01fa 80BC     		pop	{r7}
 1782 01fc B846     		mov	r8, r7
 1783 01fe F0BD     		pop	{r4, r5, r6, r7, pc}
 1784              	.L209:
 1785 0200 0220     		movs	r0, #2
 1786 0202 F9E7     		b	.L193
 1787              	.L219:
 1788              		.align	2
 1789              	.L218:
 1790 0204 FF7FFFFF 		.word	-32769
 1792              		.section	.text.HAL_I2C_Slave_Receive,"ax",%progbits
 1793              		.align	1
 1794              		.global	HAL_I2C_Slave_Receive
 1795              		.syntax unified
 1796              		.code	16
 1797              		.thumb_func
 1799              	HAL_I2C_Slave_Receive:
 1800              		@ args = 0, pretend = 0, frame = 0
 1801              		@ frame_needed = 0, uses_anonymous_args = 0
 1802 0000 F0B5     		push	{r4, r5, r6, r7, lr}
 1803 0002 C646     		mov	lr, r8
 1804 0004 00B5     		push	{lr}
 1805 0006 82B0     		sub	sp, sp, #8
 1806 0008 0400     		movs	r4, r0
ARM GAS  /tmp/ccDq0qaf.s 			page 32


 1807 000a 0D00     		movs	r5, r1
 1808 000c 9046     		mov	r8, r2
 1809 000e 1E00     		movs	r6, r3
 1810 0010 4123     		movs	r3, #65
 1811 0012 C35C     		ldrb	r3, [r0, r3]
 1812 0014 202B     		cmp	r3, #32
 1813 0016 00D0     		beq	.LCB2105
 1814 0018 B1E0     		b	.L231	@long jump
 1815              	.LCB2105:
 1816 001a 0029     		cmp	r1, #0
 1817 001c 30D0     		beq	.L222
 1818 001e 002A     		cmp	r2, #0
 1819 0020 2ED0     		beq	.L222
 1820 0022 4023     		movs	r3, #64
 1821 0024 C35C     		ldrb	r3, [r0, r3]
 1822 0026 012B     		cmp	r3, #1
 1823 0028 00D1     		bne	.LCB2113
 1824 002a ADE0     		b	.L232	@long jump
 1825              	.LCB2113:
 1826 002c 4023     		movs	r3, #64
 1827 002e 0122     		movs	r2, #1
 1828 0030 C254     		strb	r2, [r0, r3]
 1829 0032 FFF7FEFF 		bl	HAL_GetTick
 1830 0036 0700     		movs	r7, r0
 1831 0038 4123     		movs	r3, #65
 1832 003a 2222     		movs	r2, #34
 1833 003c E254     		strb	r2, [r4, r3]
 1834 003e 0133     		adds	r3, r3, #1
 1835 0040 023A     		subs	r2, r2, #2
 1836 0042 E254     		strb	r2, [r4, r3]
 1837 0044 0023     		movs	r3, #0
 1838 0046 6364     		str	r3, [r4, #68]
 1839 0048 6562     		str	r5, [r4, #36]
 1840 004a 4246     		mov	r2, r8
 1841 004c 6285     		strh	r2, [r4, #42]
 1842 004e 628D     		ldrh	r2, [r4, #42]
 1843 0050 2285     		strh	r2, [r4, #40]
 1844 0052 6363     		str	r3, [r4, #52]
 1845 0054 2268     		ldr	r2, [r4]
 1846 0056 5368     		ldr	r3, [r2, #4]
 1847 0058 4C49     		ldr	r1, .L237
 1848 005a 0B40     		ands	r3, r1
 1849 005c 5360     		str	r3, [r2, #4]
 1850 005e 0090     		str	r0, [sp]
 1851 0060 3300     		movs	r3, r6
 1852 0062 0022     		movs	r2, #0
 1853 0064 0821     		movs	r1, #8
 1854 0066 2000     		movs	r0, r4
 1855 0068 FFF7FEFF 		bl	I2C_WaitOnFlagUntilTimeout
 1856 006c 0028     		cmp	r0, #0
 1857 006e 0CD0     		beq	.L224
 1858 0070 2268     		ldr	r2, [r4]
 1859 0072 5168     		ldr	r1, [r2, #4]
 1860 0074 8023     		movs	r3, #128
 1861 0076 1B02     		lsls	r3, r3, #8
 1862 0078 0B43     		orrs	r3, r1
 1863 007a 5360     		str	r3, [r2, #4]
ARM GAS  /tmp/ccDq0qaf.s 			page 33


 1864 007c 0120     		movs	r0, #1
 1865 007e 7FE0     		b	.L221
 1866              	.L222:
 1867 0080 8023     		movs	r3, #128
 1868 0082 9B00     		lsls	r3, r3, #2
 1869 0084 6364     		str	r3, [r4, #68]
 1870 0086 0120     		movs	r0, #1
 1871 0088 7AE0     		b	.L221
 1872              	.L224:
 1873 008a 2368     		ldr	r3, [r4]
 1874 008c 0822     		movs	r2, #8
 1875 008e DA61     		str	r2, [r3, #28]
 1876 0090 8021     		movs	r1, #128
 1877 0092 0097     		str	r7, [sp]
 1878 0094 3300     		movs	r3, r6
 1879 0096 073A     		subs	r2, r2, #7
 1880 0098 4902     		lsls	r1, r1, #9
 1881 009a 2000     		movs	r0, r4
 1882 009c FFF7FEFF 		bl	I2C_WaitOnFlagUntilTimeout
 1883 00a0 0028     		cmp	r0, #0
 1884 00a2 18D1     		bne	.L234
 1885              	.L225:
 1886 00a4 638D     		ldrh	r3, [r4, #42]
 1887 00a6 002B     		cmp	r3, #0
 1888 00a8 36D0     		beq	.L235
 1889 00aa 3A00     		movs	r2, r7
 1890 00ac 3100     		movs	r1, r6
 1891 00ae 2000     		movs	r0, r4
 1892 00b0 FFF7FEFF 		bl	I2C_WaitOnRXNEFlagUntilTimeout
 1893 00b4 0028     		cmp	r0, #0
 1894 00b6 16D1     		bne	.L236
 1895 00b8 2368     		ldr	r3, [r4]
 1896 00ba 5A6A     		ldr	r2, [r3, #36]
 1897 00bc 636A     		ldr	r3, [r4, #36]
 1898 00be 1A70     		strb	r2, [r3]
 1899 00c0 636A     		ldr	r3, [r4, #36]
 1900 00c2 0133     		adds	r3, r3, #1
 1901 00c4 6362     		str	r3, [r4, #36]
 1902 00c6 658D     		ldrh	r5, [r4, #42]
 1903 00c8 013D     		subs	r5, r5, #1
 1904 00ca ADB2     		uxth	r5, r5
 1905 00cc 6585     		strh	r5, [r4, #42]
 1906 00ce 238D     		ldrh	r3, [r4, #40]
 1907 00d0 013B     		subs	r3, r3, #1
 1908 00d2 2385     		strh	r3, [r4, #40]
 1909 00d4 E6E7     		b	.L225
 1910              	.L234:
 1911 00d6 2268     		ldr	r2, [r4]
 1912 00d8 5168     		ldr	r1, [r2, #4]
 1913 00da 8023     		movs	r3, #128
 1914 00dc 1B02     		lsls	r3, r3, #8
 1915 00de 0B43     		orrs	r3, r1
 1916 00e0 5360     		str	r3, [r2, #4]
 1917 00e2 0120     		movs	r0, #1
 1918 00e4 4CE0     		b	.L221
 1919              	.L236:
 1920 00e6 2268     		ldr	r2, [r4]
ARM GAS  /tmp/ccDq0qaf.s 			page 34


 1921 00e8 5168     		ldr	r1, [r2, #4]
 1922 00ea 8023     		movs	r3, #128
 1923 00ec 1B02     		lsls	r3, r3, #8
 1924 00ee 0B43     		orrs	r3, r1
 1925 00f0 5360     		str	r3, [r2, #4]
 1926 00f2 2268     		ldr	r2, [r4]
 1927 00f4 9369     		ldr	r3, [r2, #24]
 1928 00f6 5B07     		lsls	r3, r3, #29
 1929 00f8 0CD5     		bpl	.L227
 1930 00fa 526A     		ldr	r2, [r2, #36]
 1931 00fc 636A     		ldr	r3, [r4, #36]
 1932 00fe 1A70     		strb	r2, [r3]
 1933 0100 636A     		ldr	r3, [r4, #36]
 1934 0102 0133     		adds	r3, r3, #1
 1935 0104 6362     		str	r3, [r4, #36]
 1936 0106 638D     		ldrh	r3, [r4, #42]
 1937 0108 013B     		subs	r3, r3, #1
 1938 010a 9BB2     		uxth	r3, r3
 1939 010c 6385     		strh	r3, [r4, #42]
 1940 010e 238D     		ldrh	r3, [r4, #40]
 1941 0110 013B     		subs	r3, r3, #1
 1942 0112 2385     		strh	r3, [r4, #40]
 1943              	.L227:
 1944 0114 0120     		movs	r0, #1
 1945 0116 33E0     		b	.L221
 1946              	.L235:
 1947 0118 3A00     		movs	r2, r7
 1948 011a 3100     		movs	r1, r6
 1949 011c 2000     		movs	r0, r4
 1950 011e FFF7FEFF 		bl	I2C_WaitOnSTOPFlagUntilTimeout
 1951 0122 0028     		cmp	r0, #0
 1952 0124 07D0     		beq	.L229
 1953 0126 2268     		ldr	r2, [r4]
 1954 0128 5168     		ldr	r1, [r2, #4]
 1955 012a 8023     		movs	r3, #128
 1956 012c 1B02     		lsls	r3, r3, #8
 1957 012e 0B43     		orrs	r3, r1
 1958 0130 5360     		str	r3, [r2, #4]
 1959 0132 0120     		movs	r0, #1
 1960 0134 24E0     		b	.L221
 1961              	.L229:
 1962 0136 2368     		ldr	r3, [r4]
 1963 0138 2022     		movs	r2, #32
 1964 013a DA61     		str	r2, [r3, #28]
 1965 013c 8021     		movs	r1, #128
 1966 013e 0097     		str	r7, [sp]
 1967 0140 3300     		movs	r3, r6
 1968 0142 1F3A     		subs	r2, r2, #31
 1969 0144 0902     		lsls	r1, r1, #8
 1970 0146 2000     		movs	r0, r4
 1971 0148 FFF7FEFF 		bl	I2C_WaitOnFlagUntilTimeout
 1972 014c 0028     		cmp	r0, #0
 1973 014e 07D0     		beq	.L230
 1974 0150 2268     		ldr	r2, [r4]
 1975 0152 5168     		ldr	r1, [r2, #4]
 1976 0154 8023     		movs	r3, #128
 1977 0156 1B02     		lsls	r3, r3, #8
ARM GAS  /tmp/ccDq0qaf.s 			page 35


 1978 0158 0B43     		orrs	r3, r1
 1979 015a 5360     		str	r3, [r2, #4]
 1980 015c 0120     		movs	r0, #1
 1981 015e 0FE0     		b	.L221
 1982              	.L230:
 1983 0160 2268     		ldr	r2, [r4]
 1984 0162 5168     		ldr	r1, [r2, #4]
 1985 0164 8023     		movs	r3, #128
 1986 0166 1B02     		lsls	r3, r3, #8
 1987 0168 0B43     		orrs	r3, r1
 1988 016a 5360     		str	r3, [r2, #4]
 1989 016c 4123     		movs	r3, #65
 1990 016e 2022     		movs	r2, #32
 1991 0170 E254     		strb	r2, [r4, r3]
 1992 0172 0023     		movs	r3, #0
 1993 0174 2232     		adds	r2, r2, #34
 1994 0176 A354     		strb	r3, [r4, r2]
 1995 0178 023A     		subs	r2, r2, #2
 1996 017a A354     		strb	r3, [r4, r2]
 1997 017c 00E0     		b	.L221
 1998              	.L231:
 1999 017e 0220     		movs	r0, #2
 2000              	.L221:
 2001 0180 02B0     		add	sp, sp, #8
 2002              		@ sp needed
 2003 0182 80BC     		pop	{r7}
 2004 0184 B846     		mov	r8, r7
 2005 0186 F0BD     		pop	{r4, r5, r6, r7, pc}
 2006              	.L232:
 2007 0188 0220     		movs	r0, #2
 2008 018a F9E7     		b	.L221
 2009              	.L238:
 2010              		.align	2
 2011              	.L237:
 2012 018c FF7FFFFF 		.word	-32769
 2014              		.section	.text.HAL_I2C_Master_Transmit_IT,"ax",%progbits
 2015              		.align	1
 2016              		.global	HAL_I2C_Master_Transmit_IT
 2017              		.syntax unified
 2018              		.code	16
 2019              		.thumb_func
 2021              	HAL_I2C_Master_Transmit_IT:
 2022              		@ args = 0, pretend = 0, frame = 0
 2023              		@ frame_needed = 0, uses_anonymous_args = 0
 2024 0000 70B5     		push	{r4, r5, r6, lr}
 2025 0002 82B0     		sub	sp, sp, #8
 2026 0004 0400     		movs	r4, r0
 2027 0006 4120     		movs	r0, #65
 2028 0008 205C     		ldrb	r0, [r4, r0]
 2029 000a 2028     		cmp	r0, #32
 2030 000c 4CD1     		bne	.L245
 2031 000e 2568     		ldr	r5, [r4]
 2032 0010 A869     		ldr	r0, [r5, #24]
 2033 0012 0004     		lsls	r0, r0, #16
 2034 0014 4AD4     		bmi	.L246
 2035 0016 4020     		movs	r0, #64
 2036 0018 205C     		ldrb	r0, [r4, r0]
ARM GAS  /tmp/ccDq0qaf.s 			page 36


 2037 001a 0128     		cmp	r0, #1
 2038 001c 48D0     		beq	.L247
 2039 001e 4020     		movs	r0, #64
 2040 0020 0126     		movs	r6, #1
 2041 0022 2654     		strb	r6, [r4, r0]
 2042 0024 0130     		adds	r0, r0, #1
 2043 0026 2036     		adds	r6, r6, #32
 2044 0028 2654     		strb	r6, [r4, r0]
 2045 002a 0130     		adds	r0, r0, #1
 2046 002c 113E     		subs	r6, r6, #17
 2047 002e 2654     		strb	r6, [r4, r0]
 2048 0030 0020     		movs	r0, #0
 2049 0032 6064     		str	r0, [r4, #68]
 2050 0034 6262     		str	r2, [r4, #36]
 2051 0036 6385     		strh	r3, [r4, #42]
 2052 0038 1E4B     		ldr	r3, .L248
 2053 003a E362     		str	r3, [r4, #44]
 2054 003c 1E4B     		ldr	r3, .L248+4
 2055 003e 6363     		str	r3, [r4, #52]
 2056 0040 638D     		ldrh	r3, [r4, #42]
 2057 0042 FF2B     		cmp	r3, #255
 2058 0044 24D9     		bls	.L241
 2059 0046 FF23     		movs	r3, #255
 2060 0048 2385     		strh	r3, [r4, #40]
 2061 004a 8023     		movs	r3, #128
 2062 004c 5B04     		lsls	r3, r3, #17
 2063              	.L242:
 2064 004e 208D     		ldrh	r0, [r4, #40]
 2065 0050 0028     		cmp	r0, #0
 2066 0052 22D0     		beq	.L243
 2067 0054 1278     		ldrb	r2, [r2]
 2068 0056 AA62     		str	r2, [r5, #40]
 2069 0058 626A     		ldr	r2, [r4, #36]
 2070 005a 0132     		adds	r2, r2, #1
 2071 005c 6262     		str	r2, [r4, #36]
 2072 005e 628D     		ldrh	r2, [r4, #42]
 2073 0060 013A     		subs	r2, r2, #1
 2074 0062 92B2     		uxth	r2, r2
 2075 0064 6285     		strh	r2, [r4, #42]
 2076 0066 228D     		ldrh	r2, [r4, #40]
 2077 0068 013A     		subs	r2, r2, #1
 2078 006a 92B2     		uxth	r2, r2
 2079 006c 2285     		strh	r2, [r4, #40]
 2080 006e 0132     		adds	r2, r2, #1
 2081 0070 D2B2     		uxtb	r2, r2
 2082 0072 1248     		ldr	r0, .L248+8
 2083 0074 0090     		str	r0, [sp]
 2084 0076 2000     		movs	r0, r4
 2085 0078 FFF7FEFF 		bl	I2C_TransferConfig
 2086              	.L244:
 2087 007c 4023     		movs	r3, #64
 2088 007e 0022     		movs	r2, #0
 2089 0080 E254     		strb	r2, [r4, r3]
 2090 0082 0121     		movs	r1, #1
 2091 0084 2000     		movs	r0, r4
 2092 0086 FFF7FEFF 		bl	I2C_Enable_IRQ
 2093 008a 0020     		movs	r0, #0
ARM GAS  /tmp/ccDq0qaf.s 			page 37


 2094              	.L240:
 2095 008c 02B0     		add	sp, sp, #8
 2096              		@ sp needed
 2097 008e 70BD     		pop	{r4, r5, r6, pc}
 2098              	.L241:
 2099 0090 638D     		ldrh	r3, [r4, #42]
 2100 0092 2385     		strh	r3, [r4, #40]
 2101 0094 8023     		movs	r3, #128
 2102 0096 9B04     		lsls	r3, r3, #18
 2103 0098 D9E7     		b	.L242
 2104              	.L243:
 2105 009a C2B2     		uxtb	r2, r0
 2106 009c 0748     		ldr	r0, .L248+8
 2107 009e 0090     		str	r0, [sp]
 2108 00a0 2000     		movs	r0, r4
 2109 00a2 FFF7FEFF 		bl	I2C_TransferConfig
 2110 00a6 E9E7     		b	.L244
 2111              	.L245:
 2112 00a8 0220     		movs	r0, #2
 2113 00aa EFE7     		b	.L240
 2114              	.L246:
 2115 00ac 0220     		movs	r0, #2
 2116 00ae EDE7     		b	.L240
 2117              	.L247:
 2118 00b0 0220     		movs	r0, #2
 2119 00b2 EBE7     		b	.L240
 2120              	.L249:
 2121              		.align	2
 2122              	.L248:
 2123 00b4 0000FFFF 		.word	-65536
 2124 00b8 00000000 		.word	I2C_Master_ISR_IT
 2125 00bc 00200080 		.word	-2147475456
 2127              		.section	.text.HAL_I2C_Master_Receive_IT,"ax",%progbits
 2128              		.align	1
 2129              		.global	HAL_I2C_Master_Receive_IT
 2130              		.syntax unified
 2131              		.code	16
 2132              		.thumb_func
 2134              	HAL_I2C_Master_Receive_IT:
 2135              		@ args = 0, pretend = 0, frame = 0
 2136              		@ frame_needed = 0, uses_anonymous_args = 0
 2137 0000 30B5     		push	{r4, r5, lr}
 2138 0002 83B0     		sub	sp, sp, #12
 2139 0004 0400     		movs	r4, r0
 2140 0006 4120     		movs	r0, #65
 2141 0008 205C     		ldrb	r0, [r4, r0]
 2142 000a 2028     		cmp	r0, #32
 2143 000c 35D1     		bne	.L254
 2144 000e 2068     		ldr	r0, [r4]
 2145 0010 8069     		ldr	r0, [r0, #24]
 2146 0012 0004     		lsls	r0, r0, #16
 2147 0014 33D4     		bmi	.L255
 2148 0016 4020     		movs	r0, #64
 2149 0018 205C     		ldrb	r0, [r4, r0]
 2150 001a 0128     		cmp	r0, #1
 2151 001c 31D0     		beq	.L256
 2152 001e 4020     		movs	r0, #64
ARM GAS  /tmp/ccDq0qaf.s 			page 38


 2153 0020 0125     		movs	r5, #1
 2154 0022 2554     		strb	r5, [r4, r0]
 2155 0024 0130     		adds	r0, r0, #1
 2156 0026 2135     		adds	r5, r5, #33
 2157 0028 2554     		strb	r5, [r4, r0]
 2158 002a 0130     		adds	r0, r0, #1
 2159 002c 123D     		subs	r5, r5, #18
 2160 002e 2554     		strb	r5, [r4, r0]
 2161 0030 0020     		movs	r0, #0
 2162 0032 6064     		str	r0, [r4, #68]
 2163 0034 6262     		str	r2, [r4, #36]
 2164 0036 6385     		strh	r3, [r4, #42]
 2165 0038 134B     		ldr	r3, .L257
 2166 003a E362     		str	r3, [r4, #44]
 2167 003c 134B     		ldr	r3, .L257+4
 2168 003e 6363     		str	r3, [r4, #52]
 2169 0040 638D     		ldrh	r3, [r4, #42]
 2170 0042 FF2B     		cmp	r3, #255
 2171 0044 14D9     		bls	.L252
 2172 0046 0123     		movs	r3, #1
 2173 0048 2385     		strh	r3, [r4, #40]
 2174 004a 8023     		movs	r3, #128
 2175 004c 5B04     		lsls	r3, r3, #17
 2176              	.L253:
 2177 004e 228D     		ldrh	r2, [r4, #40]
 2178 0050 D2B2     		uxtb	r2, r2
 2179 0052 0F48     		ldr	r0, .L257+8
 2180 0054 0090     		str	r0, [sp]
 2181 0056 2000     		movs	r0, r4
 2182 0058 FFF7FEFF 		bl	I2C_TransferConfig
 2183 005c 4023     		movs	r3, #64
 2184 005e 0022     		movs	r2, #0
 2185 0060 E254     		strb	r2, [r4, r3]
 2186 0062 0221     		movs	r1, #2
 2187 0064 2000     		movs	r0, r4
 2188 0066 FFF7FEFF 		bl	I2C_Enable_IRQ
 2189 006a 0020     		movs	r0, #0
 2190              	.L251:
 2191 006c 03B0     		add	sp, sp, #12
 2192              		@ sp needed
 2193 006e 30BD     		pop	{r4, r5, pc}
 2194              	.L252:
 2195 0070 638D     		ldrh	r3, [r4, #42]
 2196 0072 2385     		strh	r3, [r4, #40]
 2197 0074 8023     		movs	r3, #128
 2198 0076 9B04     		lsls	r3, r3, #18
 2199 0078 E9E7     		b	.L253
 2200              	.L254:
 2201 007a 0220     		movs	r0, #2
 2202 007c F6E7     		b	.L251
 2203              	.L255:
 2204 007e 0220     		movs	r0, #2
 2205 0080 F4E7     		b	.L251
 2206              	.L256:
 2207 0082 0220     		movs	r0, #2
 2208 0084 F2E7     		b	.L251
 2209              	.L258:
ARM GAS  /tmp/ccDq0qaf.s 			page 39


 2210 0086 C046     		.align	2
 2211              	.L257:
 2212 0088 0000FFFF 		.word	-65536
 2213 008c 00000000 		.word	I2C_Master_ISR_IT
 2214 0090 00240080 		.word	-2147474432
 2216              		.section	.text.HAL_I2C_Slave_Transmit_IT,"ax",%progbits
 2217              		.align	1
 2218              		.global	HAL_I2C_Slave_Transmit_IT
 2219              		.syntax unified
 2220              		.code	16
 2221              		.thumb_func
 2223              	HAL_I2C_Slave_Transmit_IT:
 2224              		@ args = 0, pretend = 0, frame = 0
 2225              		@ frame_needed = 0, uses_anonymous_args = 0
 2226 0000 70B5     		push	{r4, r5, r6, lr}
 2227 0002 4123     		movs	r3, #65
 2228 0004 C35C     		ldrb	r3, [r0, r3]
 2229 0006 202B     		cmp	r3, #32
 2230 0008 36D1     		bne	.L262
 2231 000a 2033     		adds	r3, r3, #32
 2232 000c C35C     		ldrb	r3, [r0, r3]
 2233 000e 012B     		cmp	r3, #1
 2234 0010 34D0     		beq	.L263
 2235 0012 4023     		movs	r3, #64
 2236 0014 0124     		movs	r4, #1
 2237 0016 C454     		strb	r4, [r0, r3]
 2238 0018 0133     		adds	r3, r3, #1
 2239 001a 2034     		adds	r4, r4, #32
 2240 001c C454     		strb	r4, [r0, r3]
 2241 001e 0133     		adds	r3, r3, #1
 2242 0020 013C     		subs	r4, r4, #1
 2243 0022 C454     		strb	r4, [r0, r3]
 2244 0024 0023     		movs	r3, #0
 2245 0026 4364     		str	r3, [r0, #68]
 2246 0028 0468     		ldr	r4, [r0]
 2247 002a 6368     		ldr	r3, [r4, #4]
 2248 002c 144D     		ldr	r5, .L265
 2249 002e 2B40     		ands	r3, r5
 2250 0030 6360     		str	r3, [r4, #4]
 2251 0032 4162     		str	r1, [r0, #36]
 2252 0034 4285     		strh	r2, [r0, #42]
 2253 0036 438D     		ldrh	r3, [r0, #42]
 2254 0038 0385     		strh	r3, [r0, #40]
 2255 003a 124B     		ldr	r3, .L265+4
 2256 003c C362     		str	r3, [r0, #44]
 2257 003e 124B     		ldr	r3, .L265+8
 2258 0040 4363     		str	r3, [r0, #52]
 2259 0042 026A     		ldr	r2, [r0, #32]
 2260 0044 8023     		movs	r3, #128
 2261 0046 9B02     		lsls	r3, r3, #10
 2262 0048 9A42     		cmp	r2, r3
 2263 004a 07D0     		beq	.L264
 2264              	.L261:
 2265 004c 4023     		movs	r3, #64
 2266 004e 0022     		movs	r2, #0
 2267 0050 C254     		strb	r2, [r0, r3]
 2268 0052 0E49     		ldr	r1, .L265+12
ARM GAS  /tmp/ccDq0qaf.s 			page 40


 2269 0054 FFF7FEFF 		bl	I2C_Enable_IRQ
 2270 0058 0020     		movs	r0, #0
 2271              	.L260:
 2272              		@ sp needed
 2273 005a 70BD     		pop	{r4, r5, r6, pc}
 2274              	.L264:
 2275 005c 0368     		ldr	r3, [r0]
 2276 005e 0A78     		ldrb	r2, [r1]
 2277 0060 9A62     		str	r2, [r3, #40]
 2278 0062 436A     		ldr	r3, [r0, #36]
 2279 0064 0133     		adds	r3, r3, #1
 2280 0066 4362     		str	r3, [r0, #36]
 2281 0068 438D     		ldrh	r3, [r0, #42]
 2282 006a 013B     		subs	r3, r3, #1
 2283 006c 9BB2     		uxth	r3, r3
 2284 006e 4385     		strh	r3, [r0, #42]
 2285 0070 038D     		ldrh	r3, [r0, #40]
 2286 0072 013B     		subs	r3, r3, #1
 2287 0074 0385     		strh	r3, [r0, #40]
 2288 0076 E9E7     		b	.L261
 2289              	.L262:
 2290 0078 0220     		movs	r0, #2
 2291 007a EEE7     		b	.L260
 2292              	.L263:
 2293 007c 0220     		movs	r0, #2
 2294 007e ECE7     		b	.L260
 2295              	.L266:
 2296              		.align	2
 2297              	.L265:
 2298 0080 FF7FFFFF 		.word	-32769
 2299 0084 0000FFFF 		.word	-65536
 2300 0088 00000000 		.word	I2C_Slave_ISR_IT
 2301 008c 01800000 		.word	32769
 2303              		.section	.text.HAL_I2C_Slave_Receive_IT,"ax",%progbits
 2304              		.align	1
 2305              		.global	HAL_I2C_Slave_Receive_IT
 2306              		.syntax unified
 2307              		.code	16
 2308              		.thumb_func
 2310              	HAL_I2C_Slave_Receive_IT:
 2311              		@ args = 0, pretend = 0, frame = 0
 2312              		@ frame_needed = 0, uses_anonymous_args = 0
 2313 0000 F8B5     		push	{r3, r4, r5, r6, r7, lr}
 2314 0002 4123     		movs	r3, #65
 2315 0004 C35C     		ldrb	r3, [r0, r3]
 2316 0006 202B     		cmp	r3, #32
 2317 0008 21D1     		bne	.L269
 2318 000a 2033     		adds	r3, r3, #32
 2319 000c C35C     		ldrb	r3, [r0, r3]
 2320 000e 012B     		cmp	r3, #1
 2321 0010 1FD0     		beq	.L270
 2322 0012 4024     		movs	r4, #64
 2323 0014 0123     		movs	r3, #1
 2324 0016 0355     		strb	r3, [r0, r4]
 2325 0018 4033     		adds	r3, r3, #64
 2326 001a 2225     		movs	r5, #34
 2327 001c C554     		strb	r5, [r0, r3]
ARM GAS  /tmp/ccDq0qaf.s 			page 41


 2328 001e 0133     		adds	r3, r3, #1
 2329 0020 023D     		subs	r5, r5, #2
 2330 0022 C554     		strb	r5, [r0, r3]
 2331 0024 0025     		movs	r5, #0
 2332 0026 4564     		str	r5, [r0, #68]
 2333 0028 0668     		ldr	r6, [r0]
 2334 002a 7368     		ldr	r3, [r6, #4]
 2335 002c 0A4F     		ldr	r7, .L271
 2336 002e 3B40     		ands	r3, r7
 2337 0030 7360     		str	r3, [r6, #4]
 2338 0032 4162     		str	r1, [r0, #36]
 2339 0034 4285     		strh	r2, [r0, #42]
 2340 0036 438D     		ldrh	r3, [r0, #42]
 2341 0038 0385     		strh	r3, [r0, #40]
 2342 003a 084B     		ldr	r3, .L271+4
 2343 003c C362     		str	r3, [r0, #44]
 2344 003e 084B     		ldr	r3, .L271+8
 2345 0040 4363     		str	r3, [r0, #52]
 2346 0042 0555     		strb	r5, [r0, r4]
 2347 0044 0749     		ldr	r1, .L271+12
 2348 0046 FFF7FEFF 		bl	I2C_Enable_IRQ
 2349 004a 0020     		movs	r0, #0
 2350              	.L268:
 2351              		@ sp needed
 2352 004c F8BD     		pop	{r3, r4, r5, r6, r7, pc}
 2353              	.L269:
 2354 004e 0220     		movs	r0, #2
 2355 0050 FCE7     		b	.L268
 2356              	.L270:
 2357 0052 0220     		movs	r0, #2
 2358 0054 FAE7     		b	.L268
 2359              	.L272:
 2360 0056 C046     		.align	2
 2361              	.L271:
 2362 0058 FF7FFFFF 		.word	-32769
 2363 005c 0000FFFF 		.word	-65536
 2364 0060 00000000 		.word	I2C_Slave_ISR_IT
 2365 0064 02800000 		.word	32770
 2367              		.section	.text.HAL_I2C_Master_Transmit_DMA,"ax",%progbits
 2368              		.align	1
 2369              		.global	HAL_I2C_Master_Transmit_DMA
 2370              		.syntax unified
 2371              		.code	16
 2372              		.thumb_func
 2374              	HAL_I2C_Master_Transmit_DMA:
 2375              		@ args = 0, pretend = 0, frame = 0
 2376              		@ frame_needed = 0, uses_anonymous_args = 0
 2377 0000 F0B5     		push	{r4, r5, r6, r7, lr}
 2378 0002 C646     		mov	lr, r8
 2379 0004 00B5     		push	{lr}
 2380 0006 82B0     		sub	sp, sp, #8
 2381 0008 0400     		movs	r4, r0
 2382 000a 0D00     		movs	r5, r1
 2383 000c 4121     		movs	r1, #65
 2384 000e 415C     		ldrb	r1, [r0, r1]
 2385 0010 2029     		cmp	r1, #32
 2386 0012 00D0     		beq	.LCB2771
ARM GAS  /tmp/ccDq0qaf.s 			page 42


 2387 0014 A1E0     		b	.L283	@long jump
 2388              	.LCB2771:
 2389 0016 0668     		ldr	r6, [r0]
 2390 0018 B069     		ldr	r0, [r6, #24]
 2391 001a 8021     		movs	r1, #128
 2392 001c 0902     		lsls	r1, r1, #8
 2393 001e 0700     		movs	r7, r0
 2394 0020 0F40     		ands	r7, r1
 2395 0022 0842     		tst	r0, r1
 2396 0024 00D0     		beq	.LCB2779
 2397 0026 9DE0     		b	.L284	@long jump
 2398              	.LCB2779:
 2399 0028 4021     		movs	r1, #64
 2400 002a 615C     		ldrb	r1, [r4, r1]
 2401 002c 0129     		cmp	r1, #1
 2402 002e 00D1     		bne	.LCB2783
 2403 0030 9AE0     		b	.L285	@long jump
 2404              	.LCB2783:
 2405 0032 4021     		movs	r1, #64
 2406 0034 0120     		movs	r0, #1
 2407 0036 6054     		strb	r0, [r4, r1]
 2408 0038 0131     		adds	r1, r1, #1
 2409 003a 2030     		adds	r0, r0, #32
 2410 003c 6054     		strb	r0, [r4, r1]
 2411 003e 0131     		adds	r1, r1, #1
 2412 0040 1138     		subs	r0, r0, #17
 2413 0042 6054     		strb	r0, [r4, r1]
 2414 0044 0021     		movs	r1, #0
 2415 0046 6164     		str	r1, [r4, #68]
 2416 0048 6262     		str	r2, [r4, #36]
 2417 004a 6385     		strh	r3, [r4, #42]
 2418 004c 474B     		ldr	r3, .L288
 2419 004e E362     		str	r3, [r4, #44]
 2420 0050 474B     		ldr	r3, .L288+4
 2421 0052 6363     		str	r3, [r4, #52]
 2422 0054 638D     		ldrh	r3, [r4, #42]
 2423 0056 FF2B     		cmp	r3, #255
 2424 0058 3AD9     		bls	.L275
 2425 005a FF23     		movs	r3, #255
 2426 005c 2385     		strh	r3, [r4, #40]
 2427 005e 8023     		movs	r3, #128
 2428 0060 5B04     		lsls	r3, r3, #17
 2429 0062 9846     		mov	r8, r3
 2430              	.L276:
 2431 0064 238D     		ldrh	r3, [r4, #40]
 2432 0066 002B     		cmp	r3, #0
 2433 0068 0BD0     		beq	.L277
 2434 006a 1378     		ldrb	r3, [r2]
 2435 006c B362     		str	r3, [r6, #40]
 2436 006e 636A     		ldr	r3, [r4, #36]
 2437 0070 0133     		adds	r3, r3, #1
 2438 0072 6362     		str	r3, [r4, #36]
 2439 0074 278D     		ldrh	r7, [r4, #40]
 2440 0076 638D     		ldrh	r3, [r4, #42]
 2441 0078 013B     		subs	r3, r3, #1
 2442 007a 9BB2     		uxth	r3, r3
 2443 007c 6385     		strh	r3, [r4, #42]
ARM GAS  /tmp/ccDq0qaf.s 			page 43


 2444 007e 7B1E     		subs	r3, r7, #1
 2445 0080 2385     		strh	r3, [r4, #40]
 2446              	.L277:
 2447 0082 238D     		ldrh	r3, [r4, #40]
 2448 0084 002B     		cmp	r3, #0
 2449 0086 54D0     		beq	.L278
 2450 0088 A36B     		ldr	r3, [r4, #56]
 2451 008a 002B     		cmp	r3, #0
 2452 008c 26D0     		beq	.L279
 2453 008e 394A     		ldr	r2, .L288+8
 2454 0090 9A62     		str	r2, [r3, #40]
 2455 0092 A36B     		ldr	r3, [r4, #56]
 2456 0094 384A     		ldr	r2, .L288+12
 2457 0096 1A63     		str	r2, [r3, #48]
 2458 0098 A26B     		ldr	r2, [r4, #56]
 2459 009a 0023     		movs	r3, #0
 2460 009c D362     		str	r3, [r2, #44]
 2461 009e A26B     		ldr	r2, [r4, #56]
 2462 00a0 5363     		str	r3, [r2, #52]
 2463 00a2 616A     		ldr	r1, [r4, #36]
 2464 00a4 2268     		ldr	r2, [r4]
 2465 00a6 2832     		adds	r2, r2, #40
 2466 00a8 238D     		ldrh	r3, [r4, #40]
 2467 00aa A06B     		ldr	r0, [r4, #56]
 2468 00ac FFF7FEFF 		bl	HAL_DMA_Start_IT
 2469 00b0 0028     		cmp	r0, #0
 2470 00b2 21D0     		beq	.L287
 2471 00b4 4123     		movs	r3, #65
 2472 00b6 2022     		movs	r2, #32
 2473 00b8 E254     		strb	r2, [r4, r3]
 2474 00ba 0022     		movs	r2, #0
 2475 00bc 0133     		adds	r3, r3, #1
 2476 00be E254     		strb	r2, [r4, r3]
 2477 00c0 636C     		ldr	r3, [r4, #68]
 2478 00c2 1021     		movs	r1, #16
 2479 00c4 0B43     		orrs	r3, r1
 2480 00c6 6364     		str	r3, [r4, #68]
 2481 00c8 4023     		movs	r3, #64
 2482 00ca E254     		strb	r2, [r4, r3]
 2483 00cc 0120     		movs	r0, #1
 2484 00ce 45E0     		b	.L274
 2485              	.L275:
 2486 00d0 638D     		ldrh	r3, [r4, #42]
 2487 00d2 2385     		strh	r3, [r4, #40]
 2488 00d4 8023     		movs	r3, #128
 2489 00d6 9B04     		lsls	r3, r3, #18
 2490 00d8 9846     		mov	r8, r3
 2491 00da C3E7     		b	.L276
 2492              	.L279:
 2493 00dc 4123     		movs	r3, #65
 2494 00de 2022     		movs	r2, #32
 2495 00e0 E254     		strb	r2, [r4, r3]
 2496 00e2 0022     		movs	r2, #0
 2497 00e4 0133     		adds	r3, r3, #1
 2498 00e6 E254     		strb	r2, [r4, r3]
 2499 00e8 636C     		ldr	r3, [r4, #68]
 2500 00ea 8021     		movs	r1, #128
ARM GAS  /tmp/ccDq0qaf.s 			page 44


 2501 00ec 0B43     		orrs	r3, r1
 2502 00ee 6364     		str	r3, [r4, #68]
 2503 00f0 4023     		movs	r3, #64
 2504 00f2 E254     		strb	r2, [r4, r3]
 2505 00f4 0120     		movs	r0, #1
 2506 00f6 31E0     		b	.L274
 2507              	.L287:
 2508 00f8 228D     		ldrh	r2, [r4, #40]
 2509 00fa 0132     		adds	r2, r2, #1
 2510 00fc D2B2     		uxtb	r2, r2
 2511 00fe 1F4B     		ldr	r3, .L288+16
 2512 0100 0093     		str	r3, [sp]
 2513 0102 4346     		mov	r3, r8
 2514 0104 2900     		movs	r1, r5
 2515 0106 2000     		movs	r0, r4
 2516 0108 FFF7FEFF 		bl	I2C_TransferConfig
 2517 010c 638D     		ldrh	r3, [r4, #42]
 2518 010e 228D     		ldrh	r2, [r4, #40]
 2519 0110 9B1A     		subs	r3, r3, r2
 2520 0112 9BB2     		uxth	r3, r3
 2521 0114 6385     		strh	r3, [r4, #42]
 2522 0116 4023     		movs	r3, #64
 2523 0118 0022     		movs	r2, #0
 2524 011a E254     		strb	r2, [r4, r3]
 2525 011c 1021     		movs	r1, #16
 2526 011e 2000     		movs	r0, r4
 2527 0120 FFF7FEFF 		bl	I2C_Enable_IRQ
 2528 0124 2268     		ldr	r2, [r4]
 2529 0126 1168     		ldr	r1, [r2]
 2530 0128 8023     		movs	r3, #128
 2531 012a DB01     		lsls	r3, r3, #7
 2532 012c 0B43     		orrs	r3, r1
 2533 012e 1360     		str	r3, [r2]
 2534 0130 11E0     		b	.L282
 2535              	.L278:
 2536 0132 134B     		ldr	r3, .L288+20
 2537 0134 6363     		str	r3, [r4, #52]
 2538 0136 8023     		movs	r3, #128
 2539 0138 FAB2     		uxtb	r2, r7
 2540 013a 1049     		ldr	r1, .L288+16
 2541 013c 0091     		str	r1, [sp]
 2542 013e 9B04     		lsls	r3, r3, #18
 2543 0140 2900     		movs	r1, r5
 2544 0142 2000     		movs	r0, r4
 2545 0144 FFF7FEFF 		bl	I2C_TransferConfig
 2546 0148 4023     		movs	r3, #64
 2547 014a 0022     		movs	r2, #0
 2548 014c E254     		strb	r2, [r4, r3]
 2549 014e 0121     		movs	r1, #1
 2550 0150 2000     		movs	r0, r4
 2551 0152 FFF7FEFF 		bl	I2C_Enable_IRQ
 2552              	.L282:
 2553 0156 0020     		movs	r0, #0
 2554 0158 00E0     		b	.L274
 2555              	.L283:
 2556 015a 0220     		movs	r0, #2
 2557              	.L274:
ARM GAS  /tmp/ccDq0qaf.s 			page 45


 2558 015c 02B0     		add	sp, sp, #8
 2559              		@ sp needed
 2560 015e 80BC     		pop	{r7}
 2561 0160 B846     		mov	r8, r7
 2562 0162 F0BD     		pop	{r4, r5, r6, r7, pc}
 2563              	.L284:
 2564 0164 0220     		movs	r0, #2
 2565 0166 F9E7     		b	.L274
 2566              	.L285:
 2567 0168 0220     		movs	r0, #2
 2568 016a F7E7     		b	.L274
 2569              	.L289:
 2570              		.align	2
 2571              	.L288:
 2572 016c 0000FFFF 		.word	-65536
 2573 0170 00000000 		.word	I2C_Master_ISR_DMA
 2574 0174 00000000 		.word	I2C_DMAMasterTransmitCplt
 2575 0178 00000000 		.word	I2C_DMAError
 2576 017c 00200080 		.word	-2147475456
 2577 0180 00000000 		.word	I2C_Master_ISR_IT
 2579              		.section	.text.HAL_I2C_Master_Receive_DMA,"ax",%progbits
 2580              		.align	1
 2581              		.global	HAL_I2C_Master_Receive_DMA
 2582              		.syntax unified
 2583              		.code	16
 2584              		.thumb_func
 2586              	HAL_I2C_Master_Receive_DMA:
 2587              		@ args = 0, pretend = 0, frame = 0
 2588              		@ frame_needed = 0, uses_anonymous_args = 0
 2589 0000 70B5     		push	{r4, r5, r6, lr}
 2590 0002 82B0     		sub	sp, sp, #8
 2591 0004 0400     		movs	r4, r0
 2592 0006 0D00     		movs	r5, r1
 2593 0008 4121     		movs	r1, #65
 2594 000a 415C     		ldrb	r1, [r0, r1]
 2595 000c 2029     		cmp	r1, #32
 2596 000e 00D0     		beq	.LCB3002
 2597 0010 8AE0     		b	.L299	@long jump
 2598              	.LCB3002:
 2599 0012 0168     		ldr	r1, [r0]
 2600 0014 8969     		ldr	r1, [r1, #24]
 2601 0016 0904     		lsls	r1, r1, #16
 2602 0018 00D5     		bpl	.LCB3008
 2603 001a 88E0     		b	.L300	@long jump
 2604              	.LCB3008:
 2605 001c 4021     		movs	r1, #64
 2606 001e 415C     		ldrb	r1, [r0, r1]
 2607 0020 0129     		cmp	r1, #1
 2608 0022 00D1     		bne	.LCB3012
 2609 0024 85E0     		b	.L301	@long jump
 2610              	.LCB3012:
 2611 0026 4021     		movs	r1, #64
 2612 0028 0120     		movs	r0, #1
 2613 002a 6054     		strb	r0, [r4, r1]
 2614 002c 0131     		adds	r1, r1, #1
 2615 002e 2130     		adds	r0, r0, #33
 2616 0030 6054     		strb	r0, [r4, r1]
ARM GAS  /tmp/ccDq0qaf.s 			page 46


 2617 0032 0131     		adds	r1, r1, #1
 2618 0034 1238     		subs	r0, r0, #18
 2619 0036 6054     		strb	r0, [r4, r1]
 2620 0038 0021     		movs	r1, #0
 2621 003a 6164     		str	r1, [r4, #68]
 2622 003c 6262     		str	r2, [r4, #36]
 2623 003e 6385     		strh	r3, [r4, #42]
 2624 0040 3D4B     		ldr	r3, .L304
 2625 0042 E362     		str	r3, [r4, #44]
 2626 0044 3D4B     		ldr	r3, .L304+4
 2627 0046 6363     		str	r3, [r4, #52]
 2628 0048 638D     		ldrh	r3, [r4, #42]
 2629 004a FF2B     		cmp	r3, #255
 2630 004c 29D9     		bls	.L292
 2631 004e 0123     		movs	r3, #1
 2632 0050 2385     		strh	r3, [r4, #40]
 2633 0052 8026     		movs	r6, #128
 2634 0054 7604     		lsls	r6, r6, #17
 2635              	.L293:
 2636 0056 218D     		ldrh	r1, [r4, #40]
 2637 0058 0029     		cmp	r1, #0
 2638 005a 51D0     		beq	.L294
 2639 005c E36B     		ldr	r3, [r4, #60]
 2640 005e 002B     		cmp	r3, #0
 2641 0060 24D0     		beq	.L295
 2642 0062 3749     		ldr	r1, .L304+8
 2643 0064 9962     		str	r1, [r3, #40]
 2644 0066 E36B     		ldr	r3, [r4, #60]
 2645 0068 3649     		ldr	r1, .L304+12
 2646 006a 1963     		str	r1, [r3, #48]
 2647 006c E16B     		ldr	r1, [r4, #60]
 2648 006e 0023     		movs	r3, #0
 2649 0070 CB62     		str	r3, [r1, #44]
 2650 0072 E16B     		ldr	r1, [r4, #60]
 2651 0074 4B63     		str	r3, [r1, #52]
 2652 0076 2168     		ldr	r1, [r4]
 2653 0078 2431     		adds	r1, r1, #36
 2654 007a 238D     		ldrh	r3, [r4, #40]
 2655 007c E06B     		ldr	r0, [r4, #60]
 2656 007e FFF7FEFF 		bl	HAL_DMA_Start_IT
 2657 0082 0028     		cmp	r0, #0
 2658 0084 20D0     		beq	.L303
 2659 0086 4123     		movs	r3, #65
 2660 0088 2022     		movs	r2, #32
 2661 008a E254     		strb	r2, [r4, r3]
 2662 008c 0022     		movs	r2, #0
 2663 008e 0133     		adds	r3, r3, #1
 2664 0090 E254     		strb	r2, [r4, r3]
 2665 0092 636C     		ldr	r3, [r4, #68]
 2666 0094 1021     		movs	r1, #16
 2667 0096 0B43     		orrs	r3, r1
 2668 0098 6364     		str	r3, [r4, #68]
 2669 009a 4023     		movs	r3, #64
 2670 009c E254     		strb	r2, [r4, r3]
 2671 009e 0120     		movs	r0, #1
 2672 00a0 43E0     		b	.L291
 2673              	.L292:
ARM GAS  /tmp/ccDq0qaf.s 			page 47


 2674 00a2 638D     		ldrh	r3, [r4, #42]
 2675 00a4 2385     		strh	r3, [r4, #40]
 2676 00a6 8026     		movs	r6, #128
 2677 00a8 B604     		lsls	r6, r6, #18
 2678 00aa D4E7     		b	.L293
 2679              	.L295:
 2680 00ac 4123     		movs	r3, #65
 2681 00ae 2022     		movs	r2, #32
 2682 00b0 E254     		strb	r2, [r4, r3]
 2683 00b2 0022     		movs	r2, #0
 2684 00b4 0133     		adds	r3, r3, #1
 2685 00b6 E254     		strb	r2, [r4, r3]
 2686 00b8 636C     		ldr	r3, [r4, #68]
 2687 00ba 8021     		movs	r1, #128
 2688 00bc 0B43     		orrs	r3, r1
 2689 00be 6364     		str	r3, [r4, #68]
 2690 00c0 4023     		movs	r3, #64
 2691 00c2 E254     		strb	r2, [r4, r3]
 2692 00c4 0120     		movs	r0, #1
 2693 00c6 30E0     		b	.L291
 2694              	.L303:
 2695 00c8 228D     		ldrh	r2, [r4, #40]
 2696 00ca D2B2     		uxtb	r2, r2
 2697 00cc 1E4B     		ldr	r3, .L304+16
 2698 00ce 0093     		str	r3, [sp]
 2699 00d0 3300     		movs	r3, r6
 2700 00d2 2900     		movs	r1, r5
 2701 00d4 2000     		movs	r0, r4
 2702 00d6 FFF7FEFF 		bl	I2C_TransferConfig
 2703 00da 638D     		ldrh	r3, [r4, #42]
 2704 00dc 228D     		ldrh	r2, [r4, #40]
 2705 00de 9B1A     		subs	r3, r3, r2
 2706 00e0 9BB2     		uxth	r3, r3
 2707 00e2 6385     		strh	r3, [r4, #42]
 2708 00e4 4023     		movs	r3, #64
 2709 00e6 0022     		movs	r2, #0
 2710 00e8 E254     		strb	r2, [r4, r3]
 2711 00ea 1021     		movs	r1, #16
 2712 00ec 2000     		movs	r0, r4
 2713 00ee FFF7FEFF 		bl	I2C_Enable_IRQ
 2714 00f2 2268     		ldr	r2, [r4]
 2715 00f4 1168     		ldr	r1, [r2]
 2716 00f6 8023     		movs	r3, #128
 2717 00f8 1B02     		lsls	r3, r3, #8
 2718 00fa 0B43     		orrs	r3, r1
 2719 00fc 1360     		str	r3, [r2]
 2720 00fe 11E0     		b	.L298
 2721              	.L294:
 2722 0100 124B     		ldr	r3, .L304+20
 2723 0102 6363     		str	r3, [r4, #52]
 2724 0104 8023     		movs	r3, #128
 2725 0106 CAB2     		uxtb	r2, r1
 2726 0108 0F49     		ldr	r1, .L304+16
 2727 010a 0091     		str	r1, [sp]
 2728 010c 9B04     		lsls	r3, r3, #18
 2729 010e 2900     		movs	r1, r5
 2730 0110 2000     		movs	r0, r4
ARM GAS  /tmp/ccDq0qaf.s 			page 48


 2731 0112 FFF7FEFF 		bl	I2C_TransferConfig
 2732 0116 4023     		movs	r3, #64
 2733 0118 0022     		movs	r2, #0
 2734 011a E254     		strb	r2, [r4, r3]
 2735 011c 0221     		movs	r1, #2
 2736 011e 2000     		movs	r0, r4
 2737 0120 FFF7FEFF 		bl	I2C_Enable_IRQ
 2738              	.L298:
 2739 0124 0020     		movs	r0, #0
 2740 0126 00E0     		b	.L291
 2741              	.L299:
 2742 0128 0220     		movs	r0, #2
 2743              	.L291:
 2744 012a 02B0     		add	sp, sp, #8
 2745              		@ sp needed
 2746 012c 70BD     		pop	{r4, r5, r6, pc}
 2747              	.L300:
 2748 012e 0220     		movs	r0, #2
 2749 0130 FBE7     		b	.L291
 2750              	.L301:
 2751 0132 0220     		movs	r0, #2
 2752 0134 F9E7     		b	.L291
 2753              	.L305:
 2754 0136 C046     		.align	2
 2755              	.L304:
 2756 0138 0000FFFF 		.word	-65536
 2757 013c 00000000 		.word	I2C_Master_ISR_DMA
 2758 0140 00000000 		.word	I2C_DMAMasterReceiveCplt
 2759 0144 00000000 		.word	I2C_DMAError
 2760 0148 00240080 		.word	-2147474432
 2761 014c 00000000 		.word	I2C_Master_ISR_IT
 2763              		.section	.text.HAL_I2C_Slave_Transmit_DMA,"ax",%progbits
 2764              		.align	1
 2765              		.global	HAL_I2C_Slave_Transmit_DMA
 2766              		.syntax unified
 2767              		.code	16
 2768              		.thumb_func
 2770              	HAL_I2C_Slave_Transmit_DMA:
 2771              		@ args = 0, pretend = 0, frame = 0
 2772              		@ frame_needed = 0, uses_anonymous_args = 0
 2773 0000 10B5     		push	{r4, lr}
 2774 0002 0400     		movs	r4, r0
 2775 0004 4123     		movs	r3, #65
 2776 0006 C35C     		ldrb	r3, [r0, r3]
 2777 0008 202B     		cmp	r3, #32
 2778 000a 00D0     		beq	.LCB3205
 2779 000c 8BE0     		b	.L316	@long jump
 2780              	.LCB3205:
 2781 000e 0029     		cmp	r1, #0
 2782 0010 45D0     		beq	.L308
 2783 0012 002A     		cmp	r2, #0
 2784 0014 43D0     		beq	.L308
 2785 0016 4023     		movs	r3, #64
 2786 0018 C35C     		ldrb	r3, [r0, r3]
 2787 001a 012B     		cmp	r3, #1
 2788 001c 00D1     		bne	.LCB3213
 2789 001e 84E0     		b	.L317	@long jump
ARM GAS  /tmp/ccDq0qaf.s 			page 49


 2790              	.LCB3213:
 2791 0020 4023     		movs	r3, #64
 2792 0022 0120     		movs	r0, #1
 2793 0024 E054     		strb	r0, [r4, r3]
 2794 0026 0133     		adds	r3, r3, #1
 2795 0028 2030     		adds	r0, r0, #32
 2796 002a E054     		strb	r0, [r4, r3]
 2797 002c 0133     		adds	r3, r3, #1
 2798 002e 0138     		subs	r0, r0, #1
 2799 0030 E054     		strb	r0, [r4, r3]
 2800 0032 0023     		movs	r3, #0
 2801 0034 6364     		str	r3, [r4, #68]
 2802 0036 6162     		str	r1, [r4, #36]
 2803 0038 6285     		strh	r2, [r4, #42]
 2804 003a 638D     		ldrh	r3, [r4, #42]
 2805 003c 2385     		strh	r3, [r4, #40]
 2806 003e 3C4B     		ldr	r3, .L321
 2807 0040 E362     		str	r3, [r4, #44]
 2808 0042 3C4B     		ldr	r3, .L321+4
 2809 0044 6363     		str	r3, [r4, #52]
 2810 0046 226A     		ldr	r2, [r4, #32]
 2811 0048 8023     		movs	r3, #128
 2812 004a 9B02     		lsls	r3, r3, #10
 2813 004c 9A42     		cmp	r2, r3
 2814 004e 2BD0     		beq	.L319
 2815              	.L310:
 2816 0050 638D     		ldrh	r3, [r4, #42]
 2817 0052 002B     		cmp	r3, #0
 2818 0054 58D0     		beq	.L311
 2819 0056 A36B     		ldr	r3, [r4, #56]
 2820 0058 002B     		cmp	r3, #0
 2821 005a 33D0     		beq	.L312
 2822 005c 364A     		ldr	r2, .L321+8
 2823 005e 9A62     		str	r2, [r3, #40]
 2824 0060 A36B     		ldr	r3, [r4, #56]
 2825 0062 364A     		ldr	r2, .L321+12
 2826 0064 1A63     		str	r2, [r3, #48]
 2827 0066 A26B     		ldr	r2, [r4, #56]
 2828 0068 0023     		movs	r3, #0
 2829 006a D362     		str	r3, [r2, #44]
 2830 006c A26B     		ldr	r2, [r4, #56]
 2831 006e 5363     		str	r3, [r2, #52]
 2832 0070 616A     		ldr	r1, [r4, #36]
 2833 0072 2268     		ldr	r2, [r4]
 2834 0074 2832     		adds	r2, r2, #40
 2835 0076 238D     		ldrh	r3, [r4, #40]
 2836 0078 A06B     		ldr	r0, [r4, #56]
 2837 007a FFF7FEFF 		bl	HAL_DMA_Start_IT
 2838 007e 0028     		cmp	r0, #0
 2839 0080 2ED0     		beq	.L320
 2840 0082 4123     		movs	r3, #65
 2841 0084 2822     		movs	r2, #40
 2842 0086 E254     		strb	r2, [r4, r3]
 2843 0088 0022     		movs	r2, #0
 2844 008a 0133     		adds	r3, r3, #1
 2845 008c E254     		strb	r2, [r4, r3]
 2846 008e 636C     		ldr	r3, [r4, #68]
ARM GAS  /tmp/ccDq0qaf.s 			page 50


 2847 0090 1021     		movs	r1, #16
 2848 0092 0B43     		orrs	r3, r1
 2849 0094 6364     		str	r3, [r4, #68]
 2850 0096 4023     		movs	r3, #64
 2851 0098 E254     		strb	r2, [r4, r3]
 2852 009a 0120     		movs	r0, #1
 2853 009c 44E0     		b	.L307
 2854              	.L308:
 2855 009e 8023     		movs	r3, #128
 2856 00a0 9B00     		lsls	r3, r3, #2
 2857 00a2 6364     		str	r3, [r4, #68]
 2858 00a4 0120     		movs	r0, #1
 2859 00a6 3FE0     		b	.L307
 2860              	.L319:
 2861 00a8 2368     		ldr	r3, [r4]
 2862 00aa 0A78     		ldrb	r2, [r1]
 2863 00ac 9A62     		str	r2, [r3, #40]
 2864 00ae 636A     		ldr	r3, [r4, #36]
 2865 00b0 0133     		adds	r3, r3, #1
 2866 00b2 6362     		str	r3, [r4, #36]
 2867 00b4 638D     		ldrh	r3, [r4, #42]
 2868 00b6 013B     		subs	r3, r3, #1
 2869 00b8 9BB2     		uxth	r3, r3
 2870 00ba 6385     		strh	r3, [r4, #42]
 2871 00bc 238D     		ldrh	r3, [r4, #40]
 2872 00be 013B     		subs	r3, r3, #1
 2873 00c0 2385     		strh	r3, [r4, #40]
 2874 00c2 C5E7     		b	.L310
 2875              	.L312:
 2876 00c4 4123     		movs	r3, #65
 2877 00c6 2822     		movs	r2, #40
 2878 00c8 E254     		strb	r2, [r4, r3]
 2879 00ca 0022     		movs	r2, #0
 2880 00cc 0133     		adds	r3, r3, #1
 2881 00ce E254     		strb	r2, [r4, r3]
 2882 00d0 636C     		ldr	r3, [r4, #68]
 2883 00d2 8021     		movs	r1, #128
 2884 00d4 0B43     		orrs	r3, r1
 2885 00d6 6364     		str	r3, [r4, #68]
 2886 00d8 4023     		movs	r3, #64
 2887 00da E254     		strb	r2, [r4, r3]
 2888 00dc 0120     		movs	r0, #1
 2889 00de 23E0     		b	.L307
 2890              	.L320:
 2891 00e0 2268     		ldr	r2, [r4]
 2892 00e2 5368     		ldr	r3, [r2, #4]
 2893 00e4 1649     		ldr	r1, .L321+16
 2894 00e6 0B40     		ands	r3, r1
 2895 00e8 5360     		str	r3, [r2, #4]
 2896 00ea 4023     		movs	r3, #64
 2897 00ec 0022     		movs	r2, #0
 2898 00ee E254     		strb	r2, [r4, r3]
 2899 00f0 8021     		movs	r1, #128
 2900 00f2 0902     		lsls	r1, r1, #8
 2901 00f4 2000     		movs	r0, r4
 2902 00f6 FFF7FEFF 		bl	I2C_Enable_IRQ
 2903 00fa 2268     		ldr	r2, [r4]
ARM GAS  /tmp/ccDq0qaf.s 			page 51


 2904 00fc 1168     		ldr	r1, [r2]
 2905 00fe 8023     		movs	r3, #128
 2906 0100 DB01     		lsls	r3, r3, #7
 2907 0102 0B43     		orrs	r3, r1
 2908 0104 1360     		str	r3, [r2]
 2909 0106 0CE0     		b	.L315
 2910              	.L311:
 2911 0108 2268     		ldr	r2, [r4]
 2912 010a 5368     		ldr	r3, [r2, #4]
 2913 010c 0C49     		ldr	r1, .L321+16
 2914 010e 0B40     		ands	r3, r1
 2915 0110 5360     		str	r3, [r2, #4]
 2916 0112 4023     		movs	r3, #64
 2917 0114 0022     		movs	r2, #0
 2918 0116 E254     		strb	r2, [r4, r3]
 2919 0118 8021     		movs	r1, #128
 2920 011a 0902     		lsls	r1, r1, #8
 2921 011c 2000     		movs	r0, r4
 2922 011e FFF7FEFF 		bl	I2C_Enable_IRQ
 2923              	.L315:
 2924 0122 0020     		movs	r0, #0
 2925 0124 00E0     		b	.L307
 2926              	.L316:
 2927 0126 0220     		movs	r0, #2
 2928              	.L307:
 2929              		@ sp needed
 2930 0128 10BD     		pop	{r4, pc}
 2931              	.L317:
 2932 012a 0220     		movs	r0, #2
 2933 012c FCE7     		b	.L307
 2934              	.L322:
 2935 012e C046     		.align	2
 2936              	.L321:
 2937 0130 0000FFFF 		.word	-65536
 2938 0134 00000000 		.word	I2C_Slave_ISR_DMA
 2939 0138 00000000 		.word	I2C_DMASlaveTransmitCplt
 2940 013c 00000000 		.word	I2C_DMAError
 2941 0140 FF7FFFFF 		.word	-32769
 2943              		.section	.text.HAL_I2C_Slave_Receive_DMA,"ax",%progbits
 2944              		.align	1
 2945              		.global	HAL_I2C_Slave_Receive_DMA
 2946              		.syntax unified
 2947              		.code	16
 2948              		.thumb_func
 2950              	HAL_I2C_Slave_Receive_DMA:
 2951              		@ args = 0, pretend = 0, frame = 0
 2952              		@ frame_needed = 0, uses_anonymous_args = 0
 2953 0000 70B5     		push	{r4, r5, r6, lr}
 2954 0002 0400     		movs	r4, r0
 2955 0004 0D00     		movs	r5, r1
 2956 0006 4123     		movs	r3, #65
 2957 0008 C35C     		ldrb	r3, [r0, r3]
 2958 000a 202B     		cmp	r3, #32
 2959 000c 64D1     		bne	.L330
 2960 000e 0029     		cmp	r1, #0
 2961 0010 3CD0     		beq	.L325
 2962 0012 002A     		cmp	r2, #0
ARM GAS  /tmp/ccDq0qaf.s 			page 52


 2963 0014 3AD0     		beq	.L325
 2964 0016 4023     		movs	r3, #64
 2965 0018 C35C     		ldrb	r3, [r0, r3]
 2966 001a 012B     		cmp	r3, #1
 2967 001c 5FD0     		beq	.L331
 2968 001e 4023     		movs	r3, #64
 2969 0020 0121     		movs	r1, #1
 2970 0022 C154     		strb	r1, [r0, r3]
 2971 0024 0133     		adds	r3, r3, #1
 2972 0026 2131     		adds	r1, r1, #33
 2973 0028 C154     		strb	r1, [r0, r3]
 2974 002a 0133     		adds	r3, r3, #1
 2975 002c 0239     		subs	r1, r1, #2
 2976 002e C154     		strb	r1, [r0, r3]
 2977 0030 0023     		movs	r3, #0
 2978 0032 4364     		str	r3, [r0, #68]
 2979 0034 4562     		str	r5, [r0, #36]
 2980 0036 4285     		strh	r2, [r0, #42]
 2981 0038 438D     		ldrh	r3, [r0, #42]
 2982 003a 0385     		strh	r3, [r0, #40]
 2983 003c 294B     		ldr	r3, .L334
 2984 003e C362     		str	r3, [r0, #44]
 2985 0040 294B     		ldr	r3, .L334+4
 2986 0042 4363     		str	r3, [r0, #52]
 2987 0044 C36B     		ldr	r3, [r0, #60]
 2988 0046 002B     		cmp	r3, #0
 2989 0048 25D0     		beq	.L327
 2990 004a 284A     		ldr	r2, .L334+8
 2991 004c 9A62     		str	r2, [r3, #40]
 2992 004e C36B     		ldr	r3, [r0, #60]
 2993 0050 274A     		ldr	r2, .L334+12
 2994 0052 1A63     		str	r2, [r3, #48]
 2995 0054 C26B     		ldr	r2, [r0, #60]
 2996 0056 0023     		movs	r3, #0
 2997 0058 D362     		str	r3, [r2, #44]
 2998 005a C26B     		ldr	r2, [r0, #60]
 2999 005c 5363     		str	r3, [r2, #52]
 3000 005e 0168     		ldr	r1, [r0]
 3001 0060 2431     		adds	r1, r1, #36
 3002 0062 038D     		ldrh	r3, [r0, #40]
 3003 0064 C06B     		ldr	r0, [r0, #60]
 3004 0066 2A00     		movs	r2, r5
 3005 0068 FFF7FEFF 		bl	HAL_DMA_Start_IT
 3006 006c 051E     		subs	r5, r0, #0
 3007 006e 20D0     		beq	.L333
 3008 0070 4123     		movs	r3, #65
 3009 0072 2822     		movs	r2, #40
 3010 0074 E254     		strb	r2, [r4, r3]
 3011 0076 0022     		movs	r2, #0
 3012 0078 0133     		adds	r3, r3, #1
 3013 007a E254     		strb	r2, [r4, r3]
 3014 007c 636C     		ldr	r3, [r4, #68]
 3015 007e 1021     		movs	r1, #16
 3016 0080 0B43     		orrs	r3, r1
 3017 0082 6364     		str	r3, [r4, #68]
 3018 0084 4023     		movs	r3, #64
 3019 0086 E254     		strb	r2, [r4, r3]
ARM GAS  /tmp/ccDq0qaf.s 			page 53


 3020 0088 0125     		movs	r5, #1
 3021 008a 26E0     		b	.L324
 3022              	.L325:
 3023 008c 8023     		movs	r3, #128
 3024 008e 9B00     		lsls	r3, r3, #2
 3025 0090 6364     		str	r3, [r4, #68]
 3026 0092 0125     		movs	r5, #1
 3027 0094 21E0     		b	.L324
 3028              	.L327:
 3029 0096 4123     		movs	r3, #65
 3030 0098 2822     		movs	r2, #40
 3031 009a C254     		strb	r2, [r0, r3]
 3032 009c 0022     		movs	r2, #0
 3033 009e 0133     		adds	r3, r3, #1
 3034 00a0 C254     		strb	r2, [r0, r3]
 3035 00a2 436C     		ldr	r3, [r0, #68]
 3036 00a4 8021     		movs	r1, #128
 3037 00a6 0B43     		orrs	r3, r1
 3038 00a8 4364     		str	r3, [r0, #68]
 3039 00aa 4023     		movs	r3, #64
 3040 00ac C254     		strb	r2, [r0, r3]
 3041 00ae 0125     		movs	r5, #1
 3042 00b0 13E0     		b	.L324
 3043              	.L333:
 3044 00b2 2268     		ldr	r2, [r4]
 3045 00b4 5368     		ldr	r3, [r2, #4]
 3046 00b6 0F49     		ldr	r1, .L334+16
 3047 00b8 0B40     		ands	r3, r1
 3048 00ba 5360     		str	r3, [r2, #4]
 3049 00bc 4023     		movs	r3, #64
 3050 00be 0022     		movs	r2, #0
 3051 00c0 E254     		strb	r2, [r4, r3]
 3052 00c2 8026     		movs	r6, #128
 3053 00c4 3602     		lsls	r6, r6, #8
 3054 00c6 3100     		movs	r1, r6
 3055 00c8 2000     		movs	r0, r4
 3056 00ca FFF7FEFF 		bl	I2C_Enable_IRQ
 3057 00ce 2368     		ldr	r3, [r4]
 3058 00d0 1A68     		ldr	r2, [r3]
 3059 00d2 1643     		orrs	r6, r2
 3060 00d4 1E60     		str	r6, [r3]
 3061 00d6 00E0     		b	.L324
 3062              	.L330:
 3063 00d8 0225     		movs	r5, #2
 3064              	.L324:
 3065 00da 2800     		movs	r0, r5
 3066              		@ sp needed
 3067 00dc 70BD     		pop	{r4, r5, r6, pc}
 3068              	.L331:
 3069 00de 0225     		movs	r5, #2
 3070 00e0 FBE7     		b	.L324
 3071              	.L335:
 3072 00e2 C046     		.align	2
 3073              	.L334:
 3074 00e4 0000FFFF 		.word	-65536
 3075 00e8 00000000 		.word	I2C_Slave_ISR_DMA
 3076 00ec 00000000 		.word	I2C_DMASlaveReceiveCplt
ARM GAS  /tmp/ccDq0qaf.s 			page 54


 3077 00f0 00000000 		.word	I2C_DMAError
 3078 00f4 FF7FFFFF 		.word	-32769
 3080              		.section	.text.HAL_I2C_Mem_Write,"ax",%progbits
 3081              		.align	1
 3082              		.global	HAL_I2C_Mem_Write
 3083              		.syntax unified
 3084              		.code	16
 3085              		.thumb_func
 3087              	HAL_I2C_Mem_Write:
 3088              		@ args = 12, pretend = 0, frame = 16
 3089              		@ frame_needed = 0, uses_anonymous_args = 0
 3090 0000 F0B5     		push	{r4, r5, r6, r7, lr}
 3091 0002 87B0     		sub	sp, sp, #28
 3092 0004 0400     		movs	r4, r0
 3093 0006 0391     		str	r1, [sp, #12]
 3094 0008 0492     		str	r2, [sp, #16]
 3095 000a 0593     		str	r3, [sp, #20]
 3096 000c 0CAB     		add	r3, sp, #48
 3097 000e 20CB     		ldmia	r3!, {r5}
 3098 0010 1F88     		ldrh	r7, [r3]
 3099 0012 4123     		movs	r3, #65
 3100 0014 C35C     		ldrb	r3, [r0, r3]
 3101 0016 202B     		cmp	r3, #32
 3102 0018 00D0     		beq	.LCB3564
 3103 001a AFE0     		b	.L346	@long jump
 3104              	.LCB3564:
 3105 001c 002D     		cmp	r5, #0
 3106 001e 18D0     		beq	.L338
 3107 0020 002F     		cmp	r7, #0
 3108 0022 16D0     		beq	.L338
 3109 0024 4023     		movs	r3, #64
 3110 0026 C35C     		ldrb	r3, [r0, r3]
 3111 0028 012B     		cmp	r3, #1
 3112 002a 00D1     		bne	.LCB3572
 3113 002c A9E0     		b	.L347	@long jump
 3114              	.LCB3572:
 3115 002e 4023     		movs	r3, #64
 3116 0030 0122     		movs	r2, #1
 3117 0032 C254     		strb	r2, [r0, r3]
 3118 0034 FFF7FEFF 		bl	HAL_GetTick
 3119 0038 0600     		movs	r6, r0
 3120 003a 8021     		movs	r1, #128
 3121 003c 0090     		str	r0, [sp]
 3122 003e 1923     		movs	r3, #25
 3123 0040 0122     		movs	r2, #1
 3124 0042 0902     		lsls	r1, r1, #8
 3125 0044 2000     		movs	r0, r4
 3126 0046 FFF7FEFF 		bl	I2C_WaitOnFlagUntilTimeout
 3127 004a 0028     		cmp	r0, #0
 3128 004c 06D0     		beq	.L352
 3129 004e 0120     		movs	r0, #1
 3130 0050 95E0     		b	.L337
 3131              	.L338:
 3132 0052 8023     		movs	r3, #128
 3133 0054 9B00     		lsls	r3, r3, #2
 3134 0056 6364     		str	r3, [r4, #68]
 3135 0058 0120     		movs	r0, #1
ARM GAS  /tmp/ccDq0qaf.s 			page 55


 3136 005a 90E0     		b	.L337
 3137              	.L352:
 3138 005c 4123     		movs	r3, #65
 3139 005e 2122     		movs	r2, #33
 3140 0060 E254     		strb	r2, [r4, r3]
 3141 0062 0133     		adds	r3, r3, #1
 3142 0064 1F32     		adds	r2, r2, #31
 3143 0066 E254     		strb	r2, [r4, r3]
 3144 0068 0023     		movs	r3, #0
 3145 006a 6364     		str	r3, [r4, #68]
 3146 006c 6562     		str	r5, [r4, #36]
 3147 006e 6785     		strh	r7, [r4, #42]
 3148 0070 6363     		str	r3, [r4, #52]
 3149 0072 0196     		str	r6, [sp, #4]
 3150 0074 0E9B     		ldr	r3, [sp, #56]
 3151 0076 0093     		str	r3, [sp]
 3152 0078 059B     		ldr	r3, [sp, #20]
 3153 007a 049A     		ldr	r2, [sp, #16]
 3154 007c 0399     		ldr	r1, [sp, #12]
 3155 007e 2000     		movs	r0, r4
 3156 0080 FFF7FEFF 		bl	I2C_RequestMemoryWrite
 3157 0084 0028     		cmp	r0, #0
 3158 0086 0ED1     		bne	.L353
 3159 0088 638D     		ldrh	r3, [r4, #42]
 3160 008a FF2B     		cmp	r3, #255
 3161 008c 10D9     		bls	.L341
 3162 008e FF23     		movs	r3, #255
 3163 0090 2385     		strh	r3, [r4, #40]
 3164 0092 7F3B     		subs	r3, r3, #127
 3165 0094 0022     		movs	r2, #0
 3166 0096 0092     		str	r2, [sp]
 3167 0098 5B04     		lsls	r3, r3, #17
 3168 009a FF32     		adds	r2, r2, #255
 3169 009c 0399     		ldr	r1, [sp, #12]
 3170 009e 2000     		movs	r0, r4
 3171 00a0 FFF7FEFF 		bl	I2C_TransferConfig
 3172 00a4 20E0     		b	.L345
 3173              	.L353:
 3174 00a6 4023     		movs	r3, #64
 3175 00a8 0022     		movs	r2, #0
 3176 00aa E254     		strb	r2, [r4, r3]
 3177 00ac 0120     		movs	r0, #1
 3178 00ae 66E0     		b	.L337
 3179              	.L341:
 3180 00b0 628D     		ldrh	r2, [r4, #42]
 3181 00b2 92B2     		uxth	r2, r2
 3182 00b4 2285     		strh	r2, [r4, #40]
 3183 00b6 8023     		movs	r3, #128
 3184 00b8 D2B2     		uxtb	r2, r2
 3185 00ba 0021     		movs	r1, #0
 3186 00bc 0091     		str	r1, [sp]
 3187 00be 9B04     		lsls	r3, r3, #18
 3188 00c0 0399     		ldr	r1, [sp, #12]
 3189 00c2 2000     		movs	r0, r4
 3190 00c4 FFF7FEFF 		bl	I2C_TransferConfig
 3191 00c8 0EE0     		b	.L345
 3192              	.L344:
ARM GAS  /tmp/ccDq0qaf.s 			page 56


 3193 00ca 628D     		ldrh	r2, [r4, #42]
 3194 00cc 92B2     		uxth	r2, r2
 3195 00ce 2285     		strh	r2, [r4, #40]
 3196 00d0 8023     		movs	r3, #128
 3197 00d2 D2B2     		uxtb	r2, r2
 3198 00d4 0021     		movs	r1, #0
 3199 00d6 0091     		str	r1, [sp]
 3200 00d8 9B04     		lsls	r3, r3, #18
 3201 00da 0399     		ldr	r1, [sp, #12]
 3202 00dc 2000     		movs	r0, r4
 3203 00de FFF7FEFF 		bl	I2C_TransferConfig
 3204              	.L343:
 3205 00e2 638D     		ldrh	r3, [r4, #42]
 3206 00e4 002B     		cmp	r3, #0
 3207 00e6 32D0     		beq	.L354
 3208              	.L345:
 3209 00e8 3200     		movs	r2, r6
 3210 00ea 0E99     		ldr	r1, [sp, #56]
 3211 00ec 2000     		movs	r0, r4
 3212 00ee FFF7FEFF 		bl	I2C_WaitOnTXISFlagUntilTimeout
 3213 00f2 0028     		cmp	r0, #0
 3214 00f4 47D1     		bne	.L349
 3215 00f6 626A     		ldr	r2, [r4, #36]
 3216 00f8 2368     		ldr	r3, [r4]
 3217 00fa 1278     		ldrb	r2, [r2]
 3218 00fc 9A62     		str	r2, [r3, #40]
 3219 00fe 636A     		ldr	r3, [r4, #36]
 3220 0100 0133     		adds	r3, r3, #1
 3221 0102 6362     		str	r3, [r4, #36]
 3222 0104 638D     		ldrh	r3, [r4, #42]
 3223 0106 013B     		subs	r3, r3, #1
 3224 0108 9BB2     		uxth	r3, r3
 3225 010a 6385     		strh	r3, [r4, #42]
 3226 010c 238D     		ldrh	r3, [r4, #40]
 3227 010e 013B     		subs	r3, r3, #1
 3228 0110 9BB2     		uxth	r3, r3
 3229 0112 2385     		strh	r3, [r4, #40]
 3230 0114 628D     		ldrh	r2, [r4, #42]
 3231 0116 002A     		cmp	r2, #0
 3232 0118 E3D0     		beq	.L343
 3233 011a 002B     		cmp	r3, #0
 3234 011c E1D1     		bne	.L343
 3235 011e 0096     		str	r6, [sp]
 3236 0120 0E9B     		ldr	r3, [sp, #56]
 3237 0122 0022     		movs	r2, #0
 3238 0124 8021     		movs	r1, #128
 3239 0126 2000     		movs	r0, r4
 3240 0128 FFF7FEFF 		bl	I2C_WaitOnFlagUntilTimeout
 3241 012c 0028     		cmp	r0, #0
 3242 012e 2CD1     		bne	.L350
 3243 0130 638D     		ldrh	r3, [r4, #42]
 3244 0132 FF2B     		cmp	r3, #255
 3245 0134 C9D9     		bls	.L344
 3246 0136 FF23     		movs	r3, #255
 3247 0138 2385     		strh	r3, [r4, #40]
 3248 013a 7F3B     		subs	r3, r3, #127
 3249 013c 0022     		movs	r2, #0
ARM GAS  /tmp/ccDq0qaf.s 			page 57


 3250 013e 0092     		str	r2, [sp]
 3251 0140 5B04     		lsls	r3, r3, #17
 3252 0142 FF32     		adds	r2, r2, #255
 3253 0144 0399     		ldr	r1, [sp, #12]
 3254 0146 2000     		movs	r0, r4
 3255 0148 FFF7FEFF 		bl	I2C_TransferConfig
 3256 014c C9E7     		b	.L343
 3257              	.L354:
 3258 014e 3200     		movs	r2, r6
 3259 0150 0E99     		ldr	r1, [sp, #56]
 3260 0152 2000     		movs	r0, r4
 3261 0154 FFF7FEFF 		bl	I2C_WaitOnSTOPFlagUntilTimeout
 3262 0158 0028     		cmp	r0, #0
 3263 015a 18D1     		bne	.L351
 3264 015c 2368     		ldr	r3, [r4]
 3265 015e 2022     		movs	r2, #32
 3266 0160 DA61     		str	r2, [r3, #28]
 3267 0162 2168     		ldr	r1, [r4]
 3268 0164 4B68     		ldr	r3, [r1, #4]
 3269 0166 0B4D     		ldr	r5, .L355
 3270 0168 2B40     		ands	r3, r5
 3271 016a 4B60     		str	r3, [r1, #4]
 3272 016c 4123     		movs	r3, #65
 3273 016e E254     		strb	r2, [r4, r3]
 3274 0170 0023     		movs	r3, #0
 3275 0172 2232     		adds	r2, r2, #34
 3276 0174 A354     		strb	r3, [r4, r2]
 3277 0176 023A     		subs	r2, r2, #2
 3278 0178 A354     		strb	r3, [r4, r2]
 3279 017a 00E0     		b	.L337
 3280              	.L346:
 3281 017c 0220     		movs	r0, #2
 3282              	.L337:
 3283 017e 07B0     		add	sp, sp, #28
 3284              		@ sp needed
 3285 0180 F0BD     		pop	{r4, r5, r6, r7, pc}
 3286              	.L347:
 3287 0182 0220     		movs	r0, #2
 3288 0184 FBE7     		b	.L337
 3289              	.L349:
 3290 0186 0120     		movs	r0, #1
 3291 0188 F9E7     		b	.L337
 3292              	.L350:
 3293 018a 0120     		movs	r0, #1
 3294 018c F7E7     		b	.L337
 3295              	.L351:
 3296 018e 0120     		movs	r0, #1
 3297 0190 F5E7     		b	.L337
 3298              	.L356:
 3299 0192 C046     		.align	2
 3300              	.L355:
 3301 0194 00E800FE 		.word	-33495040
 3303              		.section	.text.HAL_I2C_Mem_Read,"ax",%progbits
 3304              		.align	1
 3305              		.global	HAL_I2C_Mem_Read
 3306              		.syntax unified
 3307              		.code	16
ARM GAS  /tmp/ccDq0qaf.s 			page 58


 3308              		.thumb_func
 3310              	HAL_I2C_Mem_Read:
 3311              		@ args = 12, pretend = 0, frame = 16
 3312              		@ frame_needed = 0, uses_anonymous_args = 0
 3313 0000 F0B5     		push	{r4, r5, r6, r7, lr}
 3314 0002 87B0     		sub	sp, sp, #28
 3315 0004 0400     		movs	r4, r0
 3316 0006 0391     		str	r1, [sp, #12]
 3317 0008 0492     		str	r2, [sp, #16]
 3318 000a 0593     		str	r3, [sp, #20]
 3319 000c 0CAB     		add	r3, sp, #48
 3320 000e 20CB     		ldmia	r3!, {r5}
 3321 0010 1F88     		ldrh	r7, [r3]
 3322 0012 4123     		movs	r3, #65
 3323 0014 C35C     		ldrb	r3, [r0, r3]
 3324 0016 202B     		cmp	r3, #32
 3325 0018 00D0     		beq	.LCB3823
 3326 001a B1E0     		b	.L367	@long jump
 3327              	.LCB3823:
 3328 001c 002D     		cmp	r5, #0
 3329 001e 18D0     		beq	.L359
 3330 0020 002F     		cmp	r7, #0
 3331 0022 16D0     		beq	.L359
 3332 0024 4023     		movs	r3, #64
 3333 0026 C35C     		ldrb	r3, [r0, r3]
 3334 0028 012B     		cmp	r3, #1
 3335 002a 00D1     		bne	.LCB3831
 3336 002c ABE0     		b	.L368	@long jump
 3337              	.LCB3831:
 3338 002e 4023     		movs	r3, #64
 3339 0030 0122     		movs	r2, #1
 3340 0032 C254     		strb	r2, [r0, r3]
 3341 0034 FFF7FEFF 		bl	HAL_GetTick
 3342 0038 0600     		movs	r6, r0
 3343 003a 8021     		movs	r1, #128
 3344 003c 0090     		str	r0, [sp]
 3345 003e 1923     		movs	r3, #25
 3346 0040 0122     		movs	r2, #1
 3347 0042 0902     		lsls	r1, r1, #8
 3348 0044 2000     		movs	r0, r4
 3349 0046 FFF7FEFF 		bl	I2C_WaitOnFlagUntilTimeout
 3350 004a 0028     		cmp	r0, #0
 3351 004c 06D0     		beq	.L373
 3352 004e 0120     		movs	r0, #1
 3353 0050 97E0     		b	.L358
 3354              	.L359:
 3355 0052 8023     		movs	r3, #128
 3356 0054 9B00     		lsls	r3, r3, #2
 3357 0056 6364     		str	r3, [r4, #68]
 3358 0058 0120     		movs	r0, #1
 3359 005a 92E0     		b	.L358
 3360              	.L373:
 3361 005c 4123     		movs	r3, #65
 3362 005e 2222     		movs	r2, #34
 3363 0060 E254     		strb	r2, [r4, r3]
 3364 0062 0133     		adds	r3, r3, #1
 3365 0064 1E32     		adds	r2, r2, #30
ARM GAS  /tmp/ccDq0qaf.s 			page 59


 3366 0066 E254     		strb	r2, [r4, r3]
 3367 0068 0023     		movs	r3, #0
 3368 006a 6364     		str	r3, [r4, #68]
 3369 006c 6562     		str	r5, [r4, #36]
 3370 006e 6785     		strh	r7, [r4, #42]
 3371 0070 6363     		str	r3, [r4, #52]
 3372 0072 0196     		str	r6, [sp, #4]
 3373 0074 0E9B     		ldr	r3, [sp, #56]
 3374 0076 0093     		str	r3, [sp]
 3375 0078 059B     		ldr	r3, [sp, #20]
 3376 007a 049A     		ldr	r2, [sp, #16]
 3377 007c 0399     		ldr	r1, [sp, #12]
 3378 007e 2000     		movs	r0, r4
 3379 0080 FFF7FEFF 		bl	I2C_RequestMemoryRead
 3380 0084 0028     		cmp	r0, #0
 3381 0086 0ED1     		bne	.L374
 3382 0088 638D     		ldrh	r3, [r4, #42]
 3383 008a FF2B     		cmp	r3, #255
 3384 008c 10D9     		bls	.L362
 3385 008e 0123     		movs	r3, #1
 3386 0090 2385     		strh	r3, [r4, #40]
 3387 0092 7F33     		adds	r3, r3, #127
 3388 0094 404A     		ldr	r2, .L376
 3389 0096 0092     		str	r2, [sp]
 3390 0098 5B04     		lsls	r3, r3, #17
 3391 009a 0122     		movs	r2, #1
 3392 009c 0399     		ldr	r1, [sp, #12]
 3393 009e 2000     		movs	r0, r4
 3394 00a0 FFF7FEFF 		bl	I2C_TransferConfig
 3395 00a4 20E0     		b	.L366
 3396              	.L374:
 3397 00a6 4023     		movs	r3, #64
 3398 00a8 0022     		movs	r2, #0
 3399 00aa E254     		strb	r2, [r4, r3]
 3400 00ac 0120     		movs	r0, #1
 3401 00ae 68E0     		b	.L358
 3402              	.L362:
 3403 00b0 628D     		ldrh	r2, [r4, #42]
 3404 00b2 92B2     		uxth	r2, r2
 3405 00b4 2285     		strh	r2, [r4, #40]
 3406 00b6 8023     		movs	r3, #128
 3407 00b8 D2B2     		uxtb	r2, r2
 3408 00ba 3749     		ldr	r1, .L376
 3409 00bc 0091     		str	r1, [sp]
 3410 00be 9B04     		lsls	r3, r3, #18
 3411 00c0 0399     		ldr	r1, [sp, #12]
 3412 00c2 2000     		movs	r0, r4
 3413 00c4 FFF7FEFF 		bl	I2C_TransferConfig
 3414 00c8 0EE0     		b	.L366
 3415              	.L365:
 3416 00ca 628D     		ldrh	r2, [r4, #42]
 3417 00cc 92B2     		uxth	r2, r2
 3418 00ce 2285     		strh	r2, [r4, #40]
 3419 00d0 8023     		movs	r3, #128
 3420 00d2 D2B2     		uxtb	r2, r2
 3421 00d4 0021     		movs	r1, #0
 3422 00d6 0091     		str	r1, [sp]
ARM GAS  /tmp/ccDq0qaf.s 			page 60


 3423 00d8 9B04     		lsls	r3, r3, #18
 3424 00da 0399     		ldr	r1, [sp, #12]
 3425 00dc 2000     		movs	r0, r4
 3426 00de FFF7FEFF 		bl	I2C_TransferConfig
 3427              	.L364:
 3428 00e2 638D     		ldrh	r3, [r4, #42]
 3429 00e4 002B     		cmp	r3, #0
 3430 00e6 34D0     		beq	.L375
 3431              	.L366:
 3432 00e8 0096     		str	r6, [sp]
 3433 00ea 0E9B     		ldr	r3, [sp, #56]
 3434 00ec 0022     		movs	r2, #0
 3435 00ee 0421     		movs	r1, #4
 3436 00f0 2000     		movs	r0, r4
 3437 00f2 FFF7FEFF 		bl	I2C_WaitOnFlagUntilTimeout
 3438 00f6 0028     		cmp	r0, #0
 3439 00f8 47D1     		bne	.L370
 3440 00fa 2368     		ldr	r3, [r4]
 3441 00fc 5A6A     		ldr	r2, [r3, #36]
 3442 00fe 636A     		ldr	r3, [r4, #36]
 3443 0100 1A70     		strb	r2, [r3]
 3444 0102 636A     		ldr	r3, [r4, #36]
 3445 0104 0133     		adds	r3, r3, #1
 3446 0106 6362     		str	r3, [r4, #36]
 3447 0108 238D     		ldrh	r3, [r4, #40]
 3448 010a 013B     		subs	r3, r3, #1
 3449 010c 9BB2     		uxth	r3, r3
 3450 010e 2385     		strh	r3, [r4, #40]
 3451 0110 628D     		ldrh	r2, [r4, #42]
 3452 0112 013A     		subs	r2, r2, #1
 3453 0114 92B2     		uxth	r2, r2
 3454 0116 6285     		strh	r2, [r4, #42]
 3455 0118 628D     		ldrh	r2, [r4, #42]
 3456 011a 002A     		cmp	r2, #0
 3457 011c E1D0     		beq	.L364
 3458 011e 002B     		cmp	r3, #0
 3459 0120 DFD1     		bne	.L364
 3460 0122 0096     		str	r6, [sp]
 3461 0124 0E9B     		ldr	r3, [sp, #56]
 3462 0126 0022     		movs	r2, #0
 3463 0128 8021     		movs	r1, #128
 3464 012a 2000     		movs	r0, r4
 3465 012c FFF7FEFF 		bl	I2C_WaitOnFlagUntilTimeout
 3466 0130 0028     		cmp	r0, #0
 3467 0132 2CD1     		bne	.L371
 3468 0134 638D     		ldrh	r3, [r4, #42]
 3469 0136 FF2B     		cmp	r3, #255
 3470 0138 C7D9     		bls	.L365
 3471 013a 0123     		movs	r3, #1
 3472 013c 2385     		strh	r3, [r4, #40]
 3473 013e 7F33     		adds	r3, r3, #127
 3474 0140 0022     		movs	r2, #0
 3475 0142 0092     		str	r2, [sp]
 3476 0144 5B04     		lsls	r3, r3, #17
 3477 0146 0132     		adds	r2, r2, #1
 3478 0148 0399     		ldr	r1, [sp, #12]
 3479 014a 2000     		movs	r0, r4
ARM GAS  /tmp/ccDq0qaf.s 			page 61


 3480 014c FFF7FEFF 		bl	I2C_TransferConfig
 3481 0150 C7E7     		b	.L364
 3482              	.L375:
 3483 0152 3200     		movs	r2, r6
 3484 0154 0E99     		ldr	r1, [sp, #56]
 3485 0156 2000     		movs	r0, r4
 3486 0158 FFF7FEFF 		bl	I2C_WaitOnSTOPFlagUntilTimeout
 3487 015c 0028     		cmp	r0, #0
 3488 015e 18D1     		bne	.L372
 3489 0160 2368     		ldr	r3, [r4]
 3490 0162 2022     		movs	r2, #32
 3491 0164 DA61     		str	r2, [r3, #28]
 3492 0166 2168     		ldr	r1, [r4]
 3493 0168 4B68     		ldr	r3, [r1, #4]
 3494 016a 0C4D     		ldr	r5, .L376+4
 3495 016c 2B40     		ands	r3, r5
 3496 016e 4B60     		str	r3, [r1, #4]
 3497 0170 4123     		movs	r3, #65
 3498 0172 E254     		strb	r2, [r4, r3]
 3499 0174 0023     		movs	r3, #0
 3500 0176 2232     		adds	r2, r2, #34
 3501 0178 A354     		strb	r3, [r4, r2]
 3502 017a 023A     		subs	r2, r2, #2
 3503 017c A354     		strb	r3, [r4, r2]
 3504 017e 00E0     		b	.L358
 3505              	.L367:
 3506 0180 0220     		movs	r0, #2
 3507              	.L358:
 3508 0182 07B0     		add	sp, sp, #28
 3509              		@ sp needed
 3510 0184 F0BD     		pop	{r4, r5, r6, r7, pc}
 3511              	.L368:
 3512 0186 0220     		movs	r0, #2
 3513 0188 FBE7     		b	.L358
 3514              	.L370:
 3515 018a 0120     		movs	r0, #1
 3516 018c F9E7     		b	.L358
 3517              	.L371:
 3518 018e 0120     		movs	r0, #1
 3519 0190 F7E7     		b	.L358
 3520              	.L372:
 3521 0192 0120     		movs	r0, #1
 3522 0194 F5E7     		b	.L358
 3523              	.L377:
 3524 0196 C046     		.align	2
 3525              	.L376:
 3526 0198 00240080 		.word	-2147474432
 3527 019c 00E800FE 		.word	-33495040
 3529              		.section	.text.HAL_I2C_Mem_Write_IT,"ax",%progbits
 3530              		.align	1
 3531              		.global	HAL_I2C_Mem_Write_IT
 3532              		.syntax unified
 3533              		.code	16
 3534              		.thumb_func
 3536              	HAL_I2C_Mem_Write_IT:
 3537              		@ args = 8, pretend = 0, frame = 0
 3538              		@ frame_needed = 0, uses_anonymous_args = 0
ARM GAS  /tmp/ccDq0qaf.s 			page 62


 3539 0000 F0B5     		push	{r4, r5, r6, r7, lr}
 3540 0002 D646     		mov	lr, r10
 3541 0004 4F46     		mov	r7, r9
 3542 0006 4646     		mov	r6, r8
 3543 0008 C0B5     		push	{r6, r7, lr}
 3544 000a 82B0     		sub	sp, sp, #8
 3545 000c 0400     		movs	r4, r0
 3546 000e 0AA8     		add	r0, sp, #40
 3547 0010 20C8     		ldmia	r0!, {r5}
 3548 0012 0688     		ldrh	r6, [r0]
 3549 0014 4120     		movs	r0, #65
 3550 0016 205C     		ldrb	r0, [r4, r0]
 3551 0018 2028     		cmp	r0, #32
 3552 001a 49D1     		bne	.L384
 3553 001c 002D     		cmp	r5, #0
 3554 001e 3BD0     		beq	.L380
 3555 0020 002E     		cmp	r6, #0
 3556 0022 39D0     		beq	.L380
 3557 0024 2068     		ldr	r0, [r4]
 3558 0026 8146     		mov	r9, r0
 3559 0028 8069     		ldr	r0, [r0, #24]
 3560 002a 0004     		lsls	r0, r0, #16
 3561 002c 47D4     		bmi	.L385
 3562 002e 4020     		movs	r0, #64
 3563 0030 205C     		ldrb	r0, [r4, r0]
 3564 0032 0128     		cmp	r0, #1
 3565 0034 45D0     		beq	.L386
 3566 0036 4020     		movs	r0, #64
 3567 0038 8246     		mov	r10, r0
 3568 003a 3F38     		subs	r0, r0, #63
 3569 003c 5746     		mov	r7, r10
 3570 003e E055     		strb	r0, [r4, r7]
 3571 0040 4030     		adds	r0, r0, #64
 3572 0042 8446     		mov	ip, r0
 3573 0044 2038     		subs	r0, r0, #32
 3574 0046 8046     		mov	r8, r0
 3575 0048 6046     		mov	r0, ip
 3576 004a 4746     		mov	r7, r8
 3577 004c 2754     		strb	r7, [r4, r0]
 3578 004e 0130     		adds	r0, r0, #1
 3579 0050 5746     		mov	r7, r10
 3580 0052 2754     		strb	r7, [r4, r0]
 3581 0054 0020     		movs	r0, #0
 3582 0056 6064     		str	r0, [r4, #68]
 3583 0058 2085     		strh	r0, [r4, #40]
 3584 005a 6562     		str	r5, [r4, #36]
 3585 005c 6685     		strh	r6, [r4, #42]
 3586 005e 1A48     		ldr	r0, .L388
 3587 0060 E062     		str	r0, [r4, #44]
 3588 0062 1A48     		ldr	r0, .L388+4
 3589 0064 6063     		str	r0, [r4, #52]
 3590 0066 E164     		str	r1, [r4, #76]
 3591 0068 012B     		cmp	r3, #1
 3592 006a 1AD0     		beq	.L387
 3593 006c 100A     		lsrs	r0, r2, #8
 3594 006e 4D46     		mov	r5, r9
 3595 0070 A862     		str	r0, [r5, #40]
ARM GAS  /tmp/ccDq0qaf.s 			page 63


 3596 0072 D2B2     		uxtb	r2, r2
 3597 0074 2265     		str	r2, [r4, #80]
 3598              	.L383:
 3599 0076 8020     		movs	r0, #128
 3600 0078 DAB2     		uxtb	r2, r3
 3601 007a 154B     		ldr	r3, .L388+8
 3602 007c 0093     		str	r3, [sp]
 3603 007e 4304     		lsls	r3, r0, #17
 3604 0080 2000     		movs	r0, r4
 3605 0082 FFF7FEFF 		bl	I2C_TransferConfig
 3606 0086 4023     		movs	r3, #64
 3607 0088 0022     		movs	r2, #0
 3608 008a E254     		strb	r2, [r4, r3]
 3609 008c 0121     		movs	r1, #1
 3610 008e 2000     		movs	r0, r4
 3611 0090 FFF7FEFF 		bl	I2C_Enable_IRQ
 3612 0094 0020     		movs	r0, #0
 3613 0096 0CE0     		b	.L379
 3614              	.L380:
 3615 0098 8023     		movs	r3, #128
 3616 009a 9B00     		lsls	r3, r3, #2
 3617 009c 6364     		str	r3, [r4, #68]
 3618 009e 0120     		movs	r0, #1
 3619 00a0 07E0     		b	.L379
 3620              	.L387:
 3621 00a2 D2B2     		uxtb	r2, r2
 3622 00a4 4846     		mov	r0, r9
 3623 00a6 8262     		str	r2, [r0, #40]
 3624 00a8 0122     		movs	r2, #1
 3625 00aa 5242     		rsbs	r2, r2, #0
 3626 00ac 2265     		str	r2, [r4, #80]
 3627 00ae E2E7     		b	.L383
 3628              	.L384:
 3629 00b0 0220     		movs	r0, #2
 3630              	.L379:
 3631 00b2 02B0     		add	sp, sp, #8
 3632              		@ sp needed
 3633 00b4 E0BC     		pop	{r5, r6, r7}
 3634 00b6 BA46     		mov	r10, r7
 3635 00b8 B146     		mov	r9, r6
 3636 00ba A846     		mov	r8, r5
 3637 00bc F0BD     		pop	{r4, r5, r6, r7, pc}
 3638              	.L385:
 3639 00be 0220     		movs	r0, #2
 3640 00c0 F7E7     		b	.L379
 3641              	.L386:
 3642 00c2 0220     		movs	r0, #2
 3643 00c4 F5E7     		b	.L379
 3644              	.L389:
 3645 00c6 C046     		.align	2
 3646              	.L388:
 3647 00c8 0000FFFF 		.word	-65536
 3648 00cc 00000000 		.word	I2C_Mem_ISR_IT
 3649 00d0 00200080 		.word	-2147475456
 3651              		.section	.text.HAL_I2C_Mem_Read_IT,"ax",%progbits
 3652              		.align	1
 3653              		.global	HAL_I2C_Mem_Read_IT
ARM GAS  /tmp/ccDq0qaf.s 			page 64


 3654              		.syntax unified
 3655              		.code	16
 3656              		.thumb_func
 3658              	HAL_I2C_Mem_Read_IT:
 3659              		@ args = 8, pretend = 0, frame = 0
 3660              		@ frame_needed = 0, uses_anonymous_args = 0
 3661 0000 F0B5     		push	{r4, r5, r6, r7, lr}
 3662 0002 D646     		mov	lr, r10
 3663 0004 4F46     		mov	r7, r9
 3664 0006 4646     		mov	r6, r8
 3665 0008 C0B5     		push	{r6, r7, lr}
 3666 000a 82B0     		sub	sp, sp, #8
 3667 000c 0400     		movs	r4, r0
 3668 000e 0AA8     		add	r0, sp, #40
 3669 0010 20C8     		ldmia	r0!, {r5}
 3670 0012 0688     		ldrh	r6, [r0]
 3671 0014 4120     		movs	r0, #65
 3672 0016 205C     		ldrb	r0, [r4, r0]
 3673 0018 2028     		cmp	r0, #32
 3674 001a 47D1     		bne	.L396
 3675 001c 002D     		cmp	r5, #0
 3676 001e 39D0     		beq	.L392
 3677 0020 002E     		cmp	r6, #0
 3678 0022 37D0     		beq	.L392
 3679 0024 2068     		ldr	r0, [r4]
 3680 0026 8146     		mov	r9, r0
 3681 0028 8069     		ldr	r0, [r0, #24]
 3682 002a 0004     		lsls	r0, r0, #16
 3683 002c 45D4     		bmi	.L397
 3684 002e 4020     		movs	r0, #64
 3685 0030 205C     		ldrb	r0, [r4, r0]
 3686 0032 0128     		cmp	r0, #1
 3687 0034 43D0     		beq	.L398
 3688 0036 4020     		movs	r0, #64
 3689 0038 8246     		mov	r10, r0
 3690 003a 3F38     		subs	r0, r0, #63
 3691 003c 5746     		mov	r7, r10
 3692 003e E055     		strb	r0, [r4, r7]
 3693 0040 4030     		adds	r0, r0, #64
 3694 0042 8446     		mov	ip, r0
 3695 0044 1F38     		subs	r0, r0, #31
 3696 0046 8046     		mov	r8, r0
 3697 0048 6046     		mov	r0, ip
 3698 004a 4746     		mov	r7, r8
 3699 004c 2754     		strb	r7, [r4, r0]
 3700 004e 0130     		adds	r0, r0, #1
 3701 0050 5746     		mov	r7, r10
 3702 0052 2754     		strb	r7, [r4, r0]
 3703 0054 0020     		movs	r0, #0
 3704 0056 6064     		str	r0, [r4, #68]
 3705 0058 6562     		str	r5, [r4, #36]
 3706 005a 6685     		strh	r6, [r4, #42]
 3707 005c 1948     		ldr	r0, .L400
 3708 005e E062     		str	r0, [r4, #44]
 3709 0060 1948     		ldr	r0, .L400+4
 3710 0062 6063     		str	r0, [r4, #52]
 3711 0064 E164     		str	r1, [r4, #76]
ARM GAS  /tmp/ccDq0qaf.s 			page 65


 3712 0066 012B     		cmp	r3, #1
 3713 0068 19D0     		beq	.L399
 3714 006a 100A     		lsrs	r0, r2, #8
 3715 006c 4D46     		mov	r5, r9
 3716 006e A862     		str	r0, [r5, #40]
 3717 0070 D2B2     		uxtb	r2, r2
 3718 0072 2265     		str	r2, [r4, #80]
 3719              	.L395:
 3720 0074 DAB2     		uxtb	r2, r3
 3721 0076 154B     		ldr	r3, .L400+8
 3722 0078 0093     		str	r3, [sp]
 3723 007a 0023     		movs	r3, #0
 3724 007c 2000     		movs	r0, r4
 3725 007e FFF7FEFF 		bl	I2C_TransferConfig
 3726 0082 4023     		movs	r3, #64
 3727 0084 0022     		movs	r2, #0
 3728 0086 E254     		strb	r2, [r4, r3]
 3729 0088 0121     		movs	r1, #1
 3730 008a 2000     		movs	r0, r4
 3731 008c FFF7FEFF 		bl	I2C_Enable_IRQ
 3732 0090 0020     		movs	r0, #0
 3733 0092 0CE0     		b	.L391
 3734              	.L392:
 3735 0094 8023     		movs	r3, #128
 3736 0096 9B00     		lsls	r3, r3, #2
 3737 0098 6364     		str	r3, [r4, #68]
 3738 009a 0120     		movs	r0, #1
 3739 009c 07E0     		b	.L391
 3740              	.L399:
 3741 009e D2B2     		uxtb	r2, r2
 3742 00a0 4846     		mov	r0, r9
 3743 00a2 8262     		str	r2, [r0, #40]
 3744 00a4 0122     		movs	r2, #1
 3745 00a6 5242     		rsbs	r2, r2, #0
 3746 00a8 2265     		str	r2, [r4, #80]
 3747 00aa E3E7     		b	.L395
 3748              	.L396:
 3749 00ac 0220     		movs	r0, #2
 3750              	.L391:
 3751 00ae 02B0     		add	sp, sp, #8
 3752              		@ sp needed
 3753 00b0 E0BC     		pop	{r5, r6, r7}
 3754 00b2 BA46     		mov	r10, r7
 3755 00b4 B146     		mov	r9, r6
 3756 00b6 A846     		mov	r8, r5
 3757 00b8 F0BD     		pop	{r4, r5, r6, r7, pc}
 3758              	.L397:
 3759 00ba 0220     		movs	r0, #2
 3760 00bc F7E7     		b	.L391
 3761              	.L398:
 3762 00be 0220     		movs	r0, #2
 3763 00c0 F5E7     		b	.L391
 3764              	.L401:
 3765 00c2 C046     		.align	2
 3766              	.L400:
 3767 00c4 0000FFFF 		.word	-65536
 3768 00c8 00000000 		.word	I2C_Mem_ISR_IT
ARM GAS  /tmp/ccDq0qaf.s 			page 66


 3769 00cc 00200080 		.word	-2147475456
 3771              		.section	.text.HAL_I2C_Mem_Write_DMA,"ax",%progbits
 3772              		.align	1
 3773              		.global	HAL_I2C_Mem_Write_DMA
 3774              		.syntax unified
 3775              		.code	16
 3776              		.thumb_func
 3778              	HAL_I2C_Mem_Write_DMA:
 3779              		@ args = 8, pretend = 0, frame = 0
 3780              		@ frame_needed = 0, uses_anonymous_args = 0
 3781 0000 F0B5     		push	{r4, r5, r6, r7, lr}
 3782 0002 D646     		mov	lr, r10
 3783 0004 4F46     		mov	r7, r9
 3784 0006 4646     		mov	r6, r8
 3785 0008 C0B5     		push	{r6, r7, lr}
 3786 000a 82B0     		sub	sp, sp, #8
 3787 000c 0400     		movs	r4, r0
 3788 000e 0E00     		movs	r6, r1
 3789 0010 1D00     		movs	r5, r3
 3790 0012 0AA8     		add	r0, sp, #40
 3791 0014 02C8     		ldmia	r0!, {r1}
 3792 0016 0088     		ldrh	r0, [r0]
 3793 0018 4123     		movs	r3, #65
 3794 001a E35C     		ldrb	r3, [r4, r3]
 3795 001c 202B     		cmp	r3, #32
 3796 001e 00D0     		beq	.LCB4370
 3797 0020 83E0     		b	.L413	@long jump
 3798              	.LCB4370:
 3799 0022 0029     		cmp	r1, #0
 3800 0024 53D0     		beq	.L404
 3801 0026 0028     		cmp	r0, #0
 3802 0028 51D0     		beq	.L404
 3803 002a 2368     		ldr	r3, [r4]
 3804 002c 9946     		mov	r9, r3
 3805 002e 9B69     		ldr	r3, [r3, #24]
 3806 0030 1B04     		lsls	r3, r3, #16
 3807 0032 00D5     		bpl	.LCB4381
 3808 0034 81E0     		b	.L414	@long jump
 3809              	.LCB4381:
 3810 0036 4023     		movs	r3, #64
 3811 0038 E35C     		ldrb	r3, [r4, r3]
 3812 003a 012B     		cmp	r3, #1
 3813 003c 00D1     		bne	.LCB4385
 3814 003e 7EE0     		b	.L415	@long jump
 3815              	.LCB4385:
 3816 0040 4023     		movs	r3, #64
 3817 0042 9A46     		mov	r10, r3
 3818 0044 3F3B     		subs	r3, r3, #63
 3819 0046 5746     		mov	r7, r10
 3820 0048 E355     		strb	r3, [r4, r7]
 3821 004a 4033     		adds	r3, r3, #64
 3822 004c 9C46     		mov	ip, r3
 3823 004e 203B     		subs	r3, r3, #32
 3824 0050 9846     		mov	r8, r3
 3825 0052 6346     		mov	r3, ip
 3826 0054 4746     		mov	r7, r8
 3827 0056 E754     		strb	r7, [r4, r3]
ARM GAS  /tmp/ccDq0qaf.s 			page 67


 3828 0058 0133     		adds	r3, r3, #1
 3829 005a 5746     		mov	r7, r10
 3830 005c E754     		strb	r7, [r4, r3]
 3831 005e 0023     		movs	r3, #0
 3832 0060 6364     		str	r3, [r4, #68]
 3833 0062 6162     		str	r1, [r4, #36]
 3834 0064 6085     		strh	r0, [r4, #42]
 3835 0066 374B     		ldr	r3, .L419
 3836 0068 E362     		str	r3, [r4, #44]
 3837 006a 374B     		ldr	r3, .L419+4
 3838 006c 6363     		str	r3, [r4, #52]
 3839 006e E664     		str	r6, [r4, #76]
 3840 0070 638D     		ldrh	r3, [r4, #42]
 3841 0072 FF2B     		cmp	r3, #255
 3842 0074 30D9     		bls	.L406
 3843 0076 FF23     		movs	r3, #255
 3844 0078 2385     		strh	r3, [r4, #40]
 3845              	.L407:
 3846 007a 012D     		cmp	r5, #1
 3847 007c 2FD0     		beq	.L417
 3848 007e 130A     		lsrs	r3, r2, #8
 3849 0080 4846     		mov	r0, r9
 3850 0082 8362     		str	r3, [r0, #40]
 3851 0084 D2B2     		uxtb	r2, r2
 3852 0086 2265     		str	r2, [r4, #80]
 3853              	.L409:
 3854 0088 A36B     		ldr	r3, [r4, #56]
 3855 008a 002B     		cmp	r3, #0
 3856 008c 2ED0     		beq	.L410
 3857 008e 2F4A     		ldr	r2, .L419+8
 3858 0090 9A62     		str	r2, [r3, #40]
 3859 0092 A36B     		ldr	r3, [r4, #56]
 3860 0094 2E4A     		ldr	r2, .L419+12
 3861 0096 1A63     		str	r2, [r3, #48]
 3862 0098 A26B     		ldr	r2, [r4, #56]
 3863 009a 0023     		movs	r3, #0
 3864 009c D362     		str	r3, [r2, #44]
 3865 009e A26B     		ldr	r2, [r4, #56]
 3866 00a0 5363     		str	r3, [r2, #52]
 3867 00a2 2268     		ldr	r2, [r4]
 3868 00a4 2832     		adds	r2, r2, #40
 3869 00a6 238D     		ldrh	r3, [r4, #40]
 3870 00a8 A06B     		ldr	r0, [r4, #56]
 3871 00aa FFF7FEFF 		bl	HAL_DMA_Start_IT
 3872 00ae 071E     		subs	r7, r0, #0
 3873 00b0 2AD0     		beq	.L418
 3874 00b2 4123     		movs	r3, #65
 3875 00b4 2022     		movs	r2, #32
 3876 00b6 E254     		strb	r2, [r4, r3]
 3877 00b8 0022     		movs	r2, #0
 3878 00ba 0133     		adds	r3, r3, #1
 3879 00bc E254     		strb	r2, [r4, r3]
 3880 00be 636C     		ldr	r3, [r4, #68]
 3881 00c0 1021     		movs	r1, #16
 3882 00c2 0B43     		orrs	r3, r1
 3883 00c4 6364     		str	r3, [r4, #68]
 3884 00c6 4023     		movs	r3, #64
ARM GAS  /tmp/ccDq0qaf.s 			page 68


 3885 00c8 E254     		strb	r2, [r4, r3]
 3886 00ca 0127     		movs	r7, #1
 3887 00cc 2EE0     		b	.L403
 3888              	.L404:
 3889 00ce 8023     		movs	r3, #128
 3890 00d0 9B00     		lsls	r3, r3, #2
 3891 00d2 6364     		str	r3, [r4, #68]
 3892 00d4 0127     		movs	r7, #1
 3893 00d6 29E0     		b	.L403
 3894              	.L406:
 3895 00d8 638D     		ldrh	r3, [r4, #42]
 3896 00da 2385     		strh	r3, [r4, #40]
 3897 00dc CDE7     		b	.L407
 3898              	.L417:
 3899 00de D2B2     		uxtb	r2, r2
 3900 00e0 4B46     		mov	r3, r9
 3901 00e2 9A62     		str	r2, [r3, #40]
 3902 00e4 0123     		movs	r3, #1
 3903 00e6 5B42     		rsbs	r3, r3, #0
 3904 00e8 2365     		str	r3, [r4, #80]
 3905 00ea CDE7     		b	.L409
 3906              	.L410:
 3907 00ec 4123     		movs	r3, #65
 3908 00ee 2022     		movs	r2, #32
 3909 00f0 E254     		strb	r2, [r4, r3]
 3910 00f2 0022     		movs	r2, #0
 3911 00f4 0133     		adds	r3, r3, #1
 3912 00f6 E254     		strb	r2, [r4, r3]
 3913 00f8 636C     		ldr	r3, [r4, #68]
 3914 00fa 8021     		movs	r1, #128
 3915 00fc 0B43     		orrs	r3, r1
 3916 00fe 6364     		str	r3, [r4, #68]
 3917 0100 4023     		movs	r3, #64
 3918 0102 E254     		strb	r2, [r4, r3]
 3919 0104 0127     		movs	r7, #1
 3920 0106 11E0     		b	.L403
 3921              	.L418:
 3922 0108 8023     		movs	r3, #128
 3923 010a EAB2     		uxtb	r2, r5
 3924 010c 1149     		ldr	r1, .L419+16
 3925 010e 0091     		str	r1, [sp]
 3926 0110 5B04     		lsls	r3, r3, #17
 3927 0112 3100     		movs	r1, r6
 3928 0114 2000     		movs	r0, r4
 3929 0116 FFF7FEFF 		bl	I2C_TransferConfig
 3930 011a 4023     		movs	r3, #64
 3931 011c 0022     		movs	r2, #0
 3932 011e E254     		strb	r2, [r4, r3]
 3933 0120 0121     		movs	r1, #1
 3934 0122 2000     		movs	r0, r4
 3935 0124 FFF7FEFF 		bl	I2C_Enable_IRQ
 3936 0128 00E0     		b	.L403
 3937              	.L413:
 3938 012a 0227     		movs	r7, #2
 3939              	.L403:
 3940 012c 3800     		movs	r0, r7
 3941 012e 02B0     		add	sp, sp, #8
ARM GAS  /tmp/ccDq0qaf.s 			page 69


 3942              		@ sp needed
 3943 0130 E0BC     		pop	{r5, r6, r7}
 3944 0132 BA46     		mov	r10, r7
 3945 0134 B146     		mov	r9, r6
 3946 0136 A846     		mov	r8, r5
 3947 0138 F0BD     		pop	{r4, r5, r6, r7, pc}
 3948              	.L414:
 3949 013a 0227     		movs	r7, #2
 3950 013c F6E7     		b	.L403
 3951              	.L415:
 3952 013e 0227     		movs	r7, #2
 3953 0140 F4E7     		b	.L403
 3954              	.L420:
 3955 0142 C046     		.align	2
 3956              	.L419:
 3957 0144 0000FFFF 		.word	-65536
 3958 0148 00000000 		.word	I2C_Mem_ISR_DMA
 3959 014c 00000000 		.word	I2C_DMAMasterTransmitCplt
 3960 0150 00000000 		.word	I2C_DMAError
 3961 0154 00200080 		.word	-2147475456
 3963              		.section	.text.HAL_I2C_Mem_Read_DMA,"ax",%progbits
 3964              		.align	1
 3965              		.global	HAL_I2C_Mem_Read_DMA
 3966              		.syntax unified
 3967              		.code	16
 3968              		.thumb_func
 3970              	HAL_I2C_Mem_Read_DMA:
 3971              		@ args = 8, pretend = 0, frame = 0
 3972              		@ frame_needed = 0, uses_anonymous_args = 0
 3973 0000 F0B5     		push	{r4, r5, r6, r7, lr}
 3974 0002 D646     		mov	lr, r10
 3975 0004 4F46     		mov	r7, r9
 3976 0006 4646     		mov	r6, r8
 3977 0008 C0B5     		push	{r6, r7, lr}
 3978 000a 82B0     		sub	sp, sp, #8
 3979 000c 0400     		movs	r4, r0
 3980 000e 0E00     		movs	r6, r1
 3981 0010 1100     		movs	r1, r2
 3982 0012 1D00     		movs	r5, r3
 3983 0014 0AA8     		add	r0, sp, #40
 3984 0016 04C8     		ldmia	r0!, {r2}
 3985 0018 0088     		ldrh	r0, [r0]
 3986 001a 4123     		movs	r3, #65
 3987 001c E35C     		ldrb	r3, [r4, r3]
 3988 001e 202B     		cmp	r3, #32
 3989 0020 00D0     		beq	.LCB4588
 3990 0022 82E0     		b	.L432	@long jump
 3991              	.LCB4588:
 3992 0024 002A     		cmp	r2, #0
 3993 0026 53D0     		beq	.L423
 3994 0028 0028     		cmp	r0, #0
 3995 002a 51D0     		beq	.L423
 3996 002c 2368     		ldr	r3, [r4]
 3997 002e 9946     		mov	r9, r3
 3998 0030 9B69     		ldr	r3, [r3, #24]
 3999 0032 1B04     		lsls	r3, r3, #16
 4000 0034 00D5     		bpl	.LCB4599
ARM GAS  /tmp/ccDq0qaf.s 			page 70


 4001 0036 80E0     		b	.L433	@long jump
 4002              	.LCB4599:
 4003 0038 4023     		movs	r3, #64
 4004 003a E35C     		ldrb	r3, [r4, r3]
 4005 003c 012B     		cmp	r3, #1
 4006 003e 00D1     		bne	.LCB4603
 4007 0040 7DE0     		b	.L434	@long jump
 4008              	.LCB4603:
 4009 0042 4023     		movs	r3, #64
 4010 0044 9A46     		mov	r10, r3
 4011 0046 3F3B     		subs	r3, r3, #63
 4012 0048 5746     		mov	r7, r10
 4013 004a E355     		strb	r3, [r4, r7]
 4014 004c 4033     		adds	r3, r3, #64
 4015 004e 9C46     		mov	ip, r3
 4016 0050 1F3B     		subs	r3, r3, #31
 4017 0052 9846     		mov	r8, r3
 4018 0054 6346     		mov	r3, ip
 4019 0056 4746     		mov	r7, r8
 4020 0058 E754     		strb	r7, [r4, r3]
 4021 005a 0133     		adds	r3, r3, #1
 4022 005c 5746     		mov	r7, r10
 4023 005e E754     		strb	r7, [r4, r3]
 4024 0060 0023     		movs	r3, #0
 4025 0062 6364     		str	r3, [r4, #68]
 4026 0064 6262     		str	r2, [r4, #36]
 4027 0066 6085     		strh	r0, [r4, #42]
 4028 0068 364B     		ldr	r3, .L438
 4029 006a E362     		str	r3, [r4, #44]
 4030 006c 364B     		ldr	r3, .L438+4
 4031 006e 6363     		str	r3, [r4, #52]
 4032 0070 E664     		str	r6, [r4, #76]
 4033 0072 638D     		ldrh	r3, [r4, #42]
 4034 0074 FF2B     		cmp	r3, #255
 4035 0076 30D9     		bls	.L425
 4036 0078 FF23     		movs	r3, #255
 4037 007a 2385     		strh	r3, [r4, #40]
 4038              	.L426:
 4039 007c 012D     		cmp	r5, #1
 4040 007e 2FD0     		beq	.L436
 4041 0080 0B0A     		lsrs	r3, r1, #8
 4042 0082 4846     		mov	r0, r9
 4043 0084 8362     		str	r3, [r0, #40]
 4044 0086 C9B2     		uxtb	r1, r1
 4045 0088 2165     		str	r1, [r4, #80]
 4046              	.L428:
 4047 008a E36B     		ldr	r3, [r4, #60]
 4048 008c 002B     		cmp	r3, #0
 4049 008e 2ED0     		beq	.L429
 4050 0090 2E49     		ldr	r1, .L438+8
 4051 0092 9962     		str	r1, [r3, #40]
 4052 0094 E36B     		ldr	r3, [r4, #60]
 4053 0096 2E49     		ldr	r1, .L438+12
 4054 0098 1963     		str	r1, [r3, #48]
 4055 009a E16B     		ldr	r1, [r4, #60]
 4056 009c 0023     		movs	r3, #0
 4057 009e CB62     		str	r3, [r1, #44]
ARM GAS  /tmp/ccDq0qaf.s 			page 71


 4058 00a0 E16B     		ldr	r1, [r4, #60]
 4059 00a2 4B63     		str	r3, [r1, #52]
 4060 00a4 2168     		ldr	r1, [r4]
 4061 00a6 2431     		adds	r1, r1, #36
 4062 00a8 238D     		ldrh	r3, [r4, #40]
 4063 00aa E06B     		ldr	r0, [r4, #60]
 4064 00ac FFF7FEFF 		bl	HAL_DMA_Start_IT
 4065 00b0 071E     		subs	r7, r0, #0
 4066 00b2 2AD0     		beq	.L437
 4067 00b4 4123     		movs	r3, #65
 4068 00b6 2022     		movs	r2, #32
 4069 00b8 E254     		strb	r2, [r4, r3]
 4070 00ba 0022     		movs	r2, #0
 4071 00bc 0133     		adds	r3, r3, #1
 4072 00be E254     		strb	r2, [r4, r3]
 4073 00c0 636C     		ldr	r3, [r4, #68]
 4074 00c2 1021     		movs	r1, #16
 4075 00c4 0B43     		orrs	r3, r1
 4076 00c6 6364     		str	r3, [r4, #68]
 4077 00c8 4023     		movs	r3, #64
 4078 00ca E254     		strb	r2, [r4, r3]
 4079 00cc 0127     		movs	r7, #1
 4080 00ce 2DE0     		b	.L422
 4081              	.L423:
 4082 00d0 8023     		movs	r3, #128
 4083 00d2 9B00     		lsls	r3, r3, #2
 4084 00d4 6364     		str	r3, [r4, #68]
 4085 00d6 0127     		movs	r7, #1
 4086 00d8 28E0     		b	.L422
 4087              	.L425:
 4088 00da 638D     		ldrh	r3, [r4, #42]
 4089 00dc 2385     		strh	r3, [r4, #40]
 4090 00de CDE7     		b	.L426
 4091              	.L436:
 4092 00e0 C9B2     		uxtb	r1, r1
 4093 00e2 4B46     		mov	r3, r9
 4094 00e4 9962     		str	r1, [r3, #40]
 4095 00e6 0123     		movs	r3, #1
 4096 00e8 5B42     		rsbs	r3, r3, #0
 4097 00ea 2365     		str	r3, [r4, #80]
 4098 00ec CDE7     		b	.L428
 4099              	.L429:
 4100 00ee 4123     		movs	r3, #65
 4101 00f0 2022     		movs	r2, #32
 4102 00f2 E254     		strb	r2, [r4, r3]
 4103 00f4 0022     		movs	r2, #0
 4104 00f6 0133     		adds	r3, r3, #1
 4105 00f8 E254     		strb	r2, [r4, r3]
 4106 00fa 636C     		ldr	r3, [r4, #68]
 4107 00fc 8021     		movs	r1, #128
 4108 00fe 0B43     		orrs	r3, r1
 4109 0100 6364     		str	r3, [r4, #68]
 4110 0102 4023     		movs	r3, #64
 4111 0104 E254     		strb	r2, [r4, r3]
 4112 0106 0127     		movs	r7, #1
 4113 0108 10E0     		b	.L422
 4114              	.L437:
ARM GAS  /tmp/ccDq0qaf.s 			page 72


 4115 010a EAB2     		uxtb	r2, r5
 4116 010c 114B     		ldr	r3, .L438+16
 4117 010e 0093     		str	r3, [sp]
 4118 0110 0023     		movs	r3, #0
 4119 0112 3100     		movs	r1, r6
 4120 0114 2000     		movs	r0, r4
 4121 0116 FFF7FEFF 		bl	I2C_TransferConfig
 4122 011a 4023     		movs	r3, #64
 4123 011c 0022     		movs	r2, #0
 4124 011e E254     		strb	r2, [r4, r3]
 4125 0120 0121     		movs	r1, #1
 4126 0122 2000     		movs	r0, r4
 4127 0124 FFF7FEFF 		bl	I2C_Enable_IRQ
 4128 0128 00E0     		b	.L422
 4129              	.L432:
 4130 012a 0227     		movs	r7, #2
 4131              	.L422:
 4132 012c 3800     		movs	r0, r7
 4133 012e 02B0     		add	sp, sp, #8
 4134              		@ sp needed
 4135 0130 E0BC     		pop	{r5, r6, r7}
 4136 0132 BA46     		mov	r10, r7
 4137 0134 B146     		mov	r9, r6
 4138 0136 A846     		mov	r8, r5
 4139 0138 F0BD     		pop	{r4, r5, r6, r7, pc}
 4140              	.L433:
 4141 013a 0227     		movs	r7, #2
 4142 013c F6E7     		b	.L422
 4143              	.L434:
 4144 013e 0227     		movs	r7, #2
 4145 0140 F4E7     		b	.L422
 4146              	.L439:
 4147 0142 C046     		.align	2
 4148              	.L438:
 4149 0144 0000FFFF 		.word	-65536
 4150 0148 00000000 		.word	I2C_Mem_ISR_DMA
 4151 014c 00000000 		.word	I2C_DMAMasterReceiveCplt
 4152 0150 00000000 		.word	I2C_DMAError
 4153 0154 00200080 		.word	-2147475456
 4155              		.section	.text.HAL_I2C_IsDeviceReady,"ax",%progbits
 4156              		.align	1
 4157              		.global	HAL_I2C_IsDeviceReady
 4158              		.syntax unified
 4159              		.code	16
 4160              		.thumb_func
 4162              	HAL_I2C_IsDeviceReady:
 4163              		@ args = 0, pretend = 0, frame = 16
 4164              		@ frame_needed = 0, uses_anonymous_args = 0
 4165 0000 F0B5     		push	{r4, r5, r6, r7, lr}
 4166 0002 CE46     		mov	lr, r9
 4167 0004 00B5     		push	{lr}
 4168 0006 86B0     		sub	sp, sp, #24
 4169 0008 0700     		movs	r7, r0
 4170 000a 8946     		mov	r9, r1
 4171 000c 0392     		str	r2, [sp, #12]
 4172 000e 1E00     		movs	r6, r3
 4173 0010 0023     		movs	r3, #0
ARM GAS  /tmp/ccDq0qaf.s 			page 73


 4174 0012 0593     		str	r3, [sp, #20]
 4175 0014 4133     		adds	r3, r3, #65
 4176 0016 C35C     		ldrb	r3, [r0, r3]
 4177 0018 202B     		cmp	r3, #32
 4178 001a 00D0     		beq	.LCB4802
 4179 001c 8FE0     		b	.L450	@long jump
 4180              	.LCB4802:
 4181 001e 0368     		ldr	r3, [r0]
 4182 0020 9B69     		ldr	r3, [r3, #24]
 4183 0022 1B04     		lsls	r3, r3, #16
 4184 0024 00D5     		bpl	.LCB4808
 4185 0026 8CE0     		b	.L451	@long jump
 4186              	.LCB4808:
 4187 0028 4023     		movs	r3, #64
 4188 002a C35C     		ldrb	r3, [r0, r3]
 4189 002c 012B     		cmp	r3, #1
 4190 002e 00D1     		bne	.LCB4812
 4191 0030 89E0     		b	.L452	@long jump
 4192              	.LCB4812:
 4193 0032 4023     		movs	r3, #64
 4194 0034 0122     		movs	r2, #1
 4195 0036 C254     		strb	r2, [r0, r3]
 4196 0038 0133     		adds	r3, r3, #1
 4197 003a 2332     		adds	r2, r2, #35
 4198 003c C254     		strb	r2, [r0, r3]
 4199 003e 0023     		movs	r3, #0
 4200 0040 4364     		str	r3, [r0, #68]
 4201              	.L449:
 4202 0042 FB68     		ldr	r3, [r7, #12]
 4203 0044 012B     		cmp	r3, #1
 4204 0046 17D0     		beq	.L456
 4205 0048 4B46     		mov	r3, r9
 4206 004a 9A05     		lsls	r2, r3, #22
 4207 004c 920D     		lsrs	r2, r2, #22
 4208 004e 414B     		ldr	r3, .L459
 4209 0050 1343     		orrs	r3, r2
 4210              	.L443:
 4211 0052 3A68     		ldr	r2, [r7]
 4212 0054 5360     		str	r3, [r2, #4]
 4213 0056 FFF7FEFF 		bl	HAL_GetTick
 4214 005a 0500     		movs	r5, r0
 4215 005c 3A68     		ldr	r2, [r7]
 4216 005e 9169     		ldr	r1, [r2, #24]
 4217 0060 2023     		movs	r3, #32
 4218 0062 0B40     		ands	r3, r1
 4219 0064 591E     		subs	r1, r3, #1
 4220 0066 8B41     		sbcs	r3, r3, r1
 4221 0068 DBB2     		uxtb	r3, r3
 4222 006a 9269     		ldr	r2, [r2, #24]
 4223 006c 1024     		movs	r4, #16
 4224 006e 1440     		ands	r4, r2
 4225 0070 621E     		subs	r2, r4, #1
 4226 0072 9441     		sbcs	r4, r4, r2
 4227 0074 E4B2     		uxtb	r4, r4
 4228 0076 12E0     		b	.L444
 4229              	.L456:
 4230 0078 4B46     		mov	r3, r9
ARM GAS  /tmp/ccDq0qaf.s 			page 74


 4231 007a 9A05     		lsls	r2, r3, #22
 4232 007c 920D     		lsrs	r2, r2, #22
 4233 007e 364B     		ldr	r3, .L459+4
 4234 0080 1343     		orrs	r3, r2
 4235 0082 E6E7     		b	.L443
 4236              	.L445:
 4237 0084 3A68     		ldr	r2, [r7]
 4238 0086 9169     		ldr	r1, [r2, #24]
 4239 0088 2023     		movs	r3, #32
 4240 008a 0B40     		ands	r3, r1
 4241 008c 591E     		subs	r1, r3, #1
 4242 008e 8B41     		sbcs	r3, r3, r1
 4243 0090 DBB2     		uxtb	r3, r3
 4244 0092 9269     		ldr	r2, [r2, #24]
 4245 0094 1024     		movs	r4, #16
 4246 0096 1440     		ands	r4, r2
 4247 0098 621E     		subs	r2, r4, #1
 4248 009a 9441     		sbcs	r4, r4, r2
 4249 009c E4B2     		uxtb	r4, r4
 4250              	.L444:
 4251 009e 1C43     		orrs	r4, r3
 4252 00a0 16D1     		bne	.L457
 4253 00a2 731C     		adds	r3, r6, #1
 4254 00a4 EED0     		beq	.L445
 4255 00a6 FFF7FEFF 		bl	HAL_GetTick
 4256 00aa 401B     		subs	r0, r0, r5
 4257 00ac B042     		cmp	r0, r6
 4258 00ae 01D8     		bhi	.L446
 4259 00b0 002E     		cmp	r6, #0
 4260 00b2 E7D1     		bne	.L445
 4261              	.L446:
 4262 00b4 2022     		movs	r2, #32
 4263 00b6 4123     		movs	r3, #65
 4264 00b8 FA54     		strb	r2, [r7, r3]
 4265 00ba 7B6C     		ldr	r3, [r7, #68]
 4266 00bc 1343     		orrs	r3, r2
 4267 00be 7B64     		str	r3, [r7, #68]
 4268 00c0 4023     		movs	r3, #64
 4269 00c2 0022     		movs	r2, #0
 4270 00c4 FA54     		strb	r2, [r7, r3]
 4271 00c6 0120     		movs	r0, #1
 4272              	.L441:
 4273 00c8 06B0     		add	sp, sp, #24
 4274              		@ sp needed
 4275 00ca 80BC     		pop	{r7}
 4276 00cc B946     		mov	r9, r7
 4277 00ce F0BD     		pop	{r4, r5, r6, r7, pc}
 4278              	.L457:
 4279 00d0 3B68     		ldr	r3, [r7]
 4280 00d2 9B69     		ldr	r3, [r3, #24]
 4281 00d4 DB06     		lsls	r3, r3, #27
 4282 00d6 20D5     		bpl	.L458
 4283 00d8 0095     		str	r5, [sp]
 4284 00da 3300     		movs	r3, r6
 4285 00dc 0022     		movs	r2, #0
 4286 00de 2021     		movs	r1, #32
 4287 00e0 3800     		movs	r0, r7
ARM GAS  /tmp/ccDq0qaf.s 			page 75


 4288 00e2 FFF7FEFF 		bl	I2C_WaitOnFlagUntilTimeout
 4289 00e6 0028     		cmp	r0, #0
 4290 00e8 31D1     		bne	.L454
 4291 00ea 3B68     		ldr	r3, [r7]
 4292 00ec 1022     		movs	r2, #16
 4293 00ee DA61     		str	r2, [r3, #28]
 4294 00f0 3B68     		ldr	r3, [r7]
 4295 00f2 1032     		adds	r2, r2, #16
 4296 00f4 DA61     		str	r2, [r3, #28]
 4297 00f6 059B     		ldr	r3, [sp, #20]
 4298 00f8 0133     		adds	r3, r3, #1
 4299 00fa 0593     		str	r3, [sp, #20]
 4300 00fc 059B     		ldr	r3, [sp, #20]
 4301 00fe 039A     		ldr	r2, [sp, #12]
 4302 0100 9342     		cmp	r3, r2
 4303 0102 9ED3     		bcc	.L449
 4304 0104 2022     		movs	r2, #32
 4305 0106 4123     		movs	r3, #65
 4306 0108 FA54     		strb	r2, [r7, r3]
 4307 010a 7B6C     		ldr	r3, [r7, #68]
 4308 010c 1343     		orrs	r3, r2
 4309 010e 7B64     		str	r3, [r7, #68]
 4310 0110 4023     		movs	r3, #64
 4311 0112 0022     		movs	r2, #0
 4312 0114 FA54     		strb	r2, [r7, r3]
 4313 0116 0130     		adds	r0, r0, #1
 4314 0118 D6E7     		b	.L441
 4315              	.L458:
 4316 011a 0095     		str	r5, [sp]
 4317 011c 3300     		movs	r3, r6
 4318 011e 0022     		movs	r2, #0
 4319 0120 2021     		movs	r1, #32
 4320 0122 3800     		movs	r0, r7
 4321 0124 FFF7FEFF 		bl	I2C_WaitOnFlagUntilTimeout
 4322 0128 0028     		cmp	r0, #0
 4323 012a 0ED1     		bne	.L453
 4324 012c 3A68     		ldr	r2, [r7]
 4325 012e 2023     		movs	r3, #32
 4326 0130 D361     		str	r3, [r2, #28]
 4327 0132 4122     		movs	r2, #65
 4328 0134 BB54     		strb	r3, [r7, r2]
 4329 0136 2033     		adds	r3, r3, #32
 4330 0138 0022     		movs	r2, #0
 4331 013a FA54     		strb	r2, [r7, r3]
 4332 013c C4E7     		b	.L441
 4333              	.L450:
 4334 013e 0220     		movs	r0, #2
 4335 0140 C2E7     		b	.L441
 4336              	.L451:
 4337 0142 0220     		movs	r0, #2
 4338 0144 C0E7     		b	.L441
 4339              	.L452:
 4340 0146 0220     		movs	r0, #2
 4341 0148 BEE7     		b	.L441
 4342              	.L453:
 4343 014a 0120     		movs	r0, #1
 4344 014c BCE7     		b	.L441
ARM GAS  /tmp/ccDq0qaf.s 			page 76


 4345              	.L454:
 4346 014e 0120     		movs	r0, #1
 4347 0150 BAE7     		b	.L441
 4348              	.L460:
 4349 0152 C046     		.align	2
 4350              	.L459:
 4351 0154 00280002 		.word	33564672
 4352 0158 00200002 		.word	33562624
 4354              		.section	.text.HAL_I2C_Master_Seq_Transmit_IT,"ax",%progbits
 4355              		.align	1
 4356              		.global	HAL_I2C_Master_Seq_Transmit_IT
 4357              		.syntax unified
 4358              		.code	16
 4359              		.thumb_func
 4361              	HAL_I2C_Master_Seq_Transmit_IT:
 4362              		@ args = 4, pretend = 0, frame = 0
 4363              		@ frame_needed = 0, uses_anonymous_args = 0
 4364 0000 F0B5     		push	{r4, r5, r6, r7, lr}
 4365 0002 83B0     		sub	sp, sp, #12
 4366 0004 0400     		movs	r4, r0
 4367 0006 0D00     		movs	r5, r1
 4368 0008 4121     		movs	r1, #65
 4369 000a 415C     		ldrb	r1, [r0, r1]
 4370 000c 2029     		cmp	r1, #32
 4371 000e 00D0     		beq	.LCB5021
 4372 0010 75E0     		b	.L472	@long jump
 4373              	.LCB5021:
 4374 0012 2031     		adds	r1, r1, #32
 4375 0014 415C     		ldrb	r1, [r0, r1]
 4376 0016 0129     		cmp	r1, #1
 4377 0018 00D1     		bne	.LCB5025
 4378 001a 72E0     		b	.L473	@long jump
 4379              	.LCB5025:
 4380 001c 4021     		movs	r1, #64
 4381 001e 0120     		movs	r0, #1
 4382 0020 6054     		strb	r0, [r4, r1]
 4383 0022 0131     		adds	r1, r1, #1
 4384 0024 2030     		adds	r0, r0, #32
 4385 0026 6054     		strb	r0, [r4, r1]
 4386 0028 0131     		adds	r1, r1, #1
 4387 002a 1138     		subs	r0, r0, #17
 4388 002c 6054     		strb	r0, [r4, r1]
 4389 002e 0021     		movs	r1, #0
 4390 0030 6164     		str	r1, [r4, #68]
 4391 0032 6262     		str	r2, [r4, #36]
 4392 0034 6385     		strh	r3, [r4, #42]
 4393 0036 089B     		ldr	r3, [sp, #32]
 4394 0038 E362     		str	r3, [r4, #44]
 4395 003a 334B     		ldr	r3, .L478
 4396 003c 6363     		str	r3, [r4, #52]
 4397 003e 638D     		ldrh	r3, [r4, #42]
 4398 0040 FF2B     		cmp	r3, #255
 4399 0042 10D9     		bls	.L463
 4400 0044 FF23     		movs	r3, #255
 4401 0046 2385     		strh	r3, [r4, #40]
 4402 0048 8026     		movs	r6, #128
 4403 004a 7604     		lsls	r6, r6, #17
ARM GAS  /tmp/ccDq0qaf.s 			page 77


 4404              	.L464:
 4405 004c 238D     		ldrh	r3, [r4, #40]
 4406 004e 002B     		cmp	r3, #0
 4407 0050 1BD0     		beq	.L474
 4408 0052 089B     		ldr	r3, [sp, #32]
 4409 0054 002B     		cmp	r3, #0
 4410 0056 0AD0     		beq	.L466
 4411 0058 8023     		movs	r3, #128
 4412 005a 9B04     		lsls	r3, r3, #18
 4413 005c 0899     		ldr	r1, [sp, #32]
 4414 005e 9942     		cmp	r1, r3
 4415 0060 05D0     		beq	.L466
 4416 0062 0027     		movs	r7, #0
 4417 0064 12E0     		b	.L465
 4418              	.L463:
 4419 0066 638D     		ldrh	r3, [r4, #42]
 4420 0068 2385     		strh	r3, [r4, #40]
 4421 006a E66A     		ldr	r6, [r4, #44]
 4422 006c EEE7     		b	.L464
 4423              	.L466:
 4424 006e 2368     		ldr	r3, [r4]
 4425 0070 1278     		ldrb	r2, [r2]
 4426 0072 9A62     		str	r2, [r3, #40]
 4427 0074 636A     		ldr	r3, [r4, #36]
 4428 0076 0133     		adds	r3, r3, #1
 4429 0078 6362     		str	r3, [r4, #36]
 4430 007a 278D     		ldrh	r7, [r4, #40]
 4431 007c 638D     		ldrh	r3, [r4, #42]
 4432 007e 013B     		subs	r3, r3, #1
 4433 0080 9BB2     		uxth	r3, r3
 4434 0082 6385     		strh	r3, [r4, #42]
 4435 0084 7B1E     		subs	r3, r7, #1
 4436 0086 2385     		strh	r3, [r4, #40]
 4437 0088 00E0     		b	.L465
 4438              	.L474:
 4439 008a 0027     		movs	r7, #0
 4440              	.L465:
 4441 008c 236B     		ldr	r3, [r4, #48]
 4442 008e 112B     		cmp	r3, #17
 4443 0090 09D1     		bne	.L467
 4444 0092 089B     		ldr	r3, [sp, #32]
 4445 0094 AA2B     		cmp	r3, #170
 4446 0096 06D0     		beq	.L467
 4447 0098 AA23     		movs	r3, #170
 4448 009a 1B02     		lsls	r3, r3, #8
 4449 009c 089A     		ldr	r2, [sp, #32]
 4450 009e 9A42     		cmp	r2, r3
 4451 00a0 01D0     		beq	.L467
 4452 00a2 0023     		movs	r3, #0
 4453 00a4 07E0     		b	.L468
 4454              	.L467:
 4455 00a6 2000     		movs	r0, r4
 4456 00a8 FFF7FEFF 		bl	I2C_ConvertOtherXferOptions
 4457 00ac 638D     		ldrh	r3, [r4, #42]
 4458 00ae FF2B     		cmp	r3, #255
 4459 00b0 1AD8     		bhi	.L477
 4460 00b2 E66A     		ldr	r6, [r4, #44]
ARM GAS  /tmp/ccDq0qaf.s 			page 78


 4461 00b4 154B     		ldr	r3, .L478+4
 4462              	.L468:
 4463 00b6 089A     		ldr	r2, [sp, #32]
 4464 00b8 002A     		cmp	r2, #0
 4465 00ba 04D0     		beq	.L469
 4466 00bc 8022     		movs	r2, #128
 4467 00be 9204     		lsls	r2, r2, #18
 4468 00c0 0899     		ldr	r1, [sp, #32]
 4469 00c2 9142     		cmp	r1, r2
 4470 00c4 12D1     		bne	.L470
 4471              	.L469:
 4472 00c6 FAB2     		uxtb	r2, r7
 4473 00c8 0093     		str	r3, [sp]
 4474 00ca 3300     		movs	r3, r6
 4475 00cc 2900     		movs	r1, r5
 4476 00ce 2000     		movs	r0, r4
 4477 00d0 FFF7FEFF 		bl	I2C_TransferConfig
 4478              	.L471:
 4479 00d4 4023     		movs	r3, #64
 4480 00d6 0022     		movs	r2, #0
 4481 00d8 E254     		strb	r2, [r4, r3]
 4482 00da 0121     		movs	r1, #1
 4483 00dc 2000     		movs	r0, r4
 4484 00de FFF7FEFF 		bl	I2C_Enable_IRQ
 4485 00e2 0020     		movs	r0, #0
 4486              	.L462:
 4487 00e4 03B0     		add	sp, sp, #12
 4488              		@ sp needed
 4489 00e6 F0BD     		pop	{r4, r5, r6, r7, pc}
 4490              	.L477:
 4491 00e8 084B     		ldr	r3, .L478+4
 4492 00ea E4E7     		b	.L468
 4493              	.L470:
 4494 00ec 228D     		ldrh	r2, [r4, #40]
 4495 00ee D2B2     		uxtb	r2, r2
 4496 00f0 0093     		str	r3, [sp]
 4497 00f2 3300     		movs	r3, r6
 4498 00f4 2900     		movs	r1, r5
 4499 00f6 2000     		movs	r0, r4
 4500 00f8 FFF7FEFF 		bl	I2C_TransferConfig
 4501 00fc EAE7     		b	.L471
 4502              	.L472:
 4503 00fe 0220     		movs	r0, #2
 4504 0100 F0E7     		b	.L462
 4505              	.L473:
 4506 0102 0220     		movs	r0, #2
 4507 0104 EEE7     		b	.L462
 4508              	.L479:
 4509 0106 C046     		.align	2
 4510              	.L478:
 4511 0108 00000000 		.word	I2C_Master_ISR_IT
 4512 010c 00200080 		.word	-2147475456
 4514              		.section	.text.HAL_I2C_Master_Seq_Transmit_DMA,"ax",%progbits
 4515              		.align	1
 4516              		.global	HAL_I2C_Master_Seq_Transmit_DMA
 4517              		.syntax unified
 4518              		.code	16
ARM GAS  /tmp/ccDq0qaf.s 			page 79


 4519              		.thumb_func
 4521              	HAL_I2C_Master_Seq_Transmit_DMA:
 4522              		@ args = 4, pretend = 0, frame = 8
 4523              		@ frame_needed = 0, uses_anonymous_args = 0
 4524 0000 F0B5     		push	{r4, r5, r6, r7, lr}
 4525 0002 85B0     		sub	sp, sp, #20
 4526 0004 0400     		movs	r4, r0
 4527 0006 0391     		str	r1, [sp, #12]
 4528 0008 4121     		movs	r1, #65
 4529 000a 415C     		ldrb	r1, [r0, r1]
 4530 000c 2029     		cmp	r1, #32
 4531 000e 00D0     		beq	.LCB5208
 4532 0010 D5E0     		b	.L499	@long jump
 4533              	.LCB5208:
 4534 0012 2031     		adds	r1, r1, #32
 4535 0014 415C     		ldrb	r1, [r0, r1]
 4536 0016 0129     		cmp	r1, #1
 4537 0018 00D1     		bne	.LCB5212
 4538 001a D3E0     		b	.L500	@long jump
 4539              	.LCB5212:
 4540 001c 4021     		movs	r1, #64
 4541 001e 0120     		movs	r0, #1
 4542 0020 6054     		strb	r0, [r4, r1]
 4543 0022 0131     		adds	r1, r1, #1
 4544 0024 2030     		adds	r0, r0, #32
 4545 0026 6054     		strb	r0, [r4, r1]
 4546 0028 0131     		adds	r1, r1, #1
 4547 002a 1138     		subs	r0, r0, #17
 4548 002c 6054     		strb	r0, [r4, r1]
 4549 002e 0021     		movs	r1, #0
 4550 0030 6164     		str	r1, [r4, #68]
 4551 0032 6262     		str	r2, [r4, #36]
 4552 0034 6385     		strh	r3, [r4, #42]
 4553 0036 0A9B     		ldr	r3, [sp, #40]
 4554 0038 E362     		str	r3, [r4, #44]
 4555 003a 634B     		ldr	r3, .L506
 4556 003c 6363     		str	r3, [r4, #52]
 4557 003e 638D     		ldrh	r3, [r4, #42]
 4558 0040 FF2B     		cmp	r3, #255
 4559 0042 10D9     		bls	.L482
 4560 0044 FF23     		movs	r3, #255
 4561 0046 2385     		strh	r3, [r4, #40]
 4562 0048 8026     		movs	r6, #128
 4563 004a 7604     		lsls	r6, r6, #17
 4564              	.L483:
 4565 004c 238D     		ldrh	r3, [r4, #40]
 4566 004e 002B     		cmp	r3, #0
 4567 0050 1BD0     		beq	.L501
 4568 0052 0A9B     		ldr	r3, [sp, #40]
 4569 0054 002B     		cmp	r3, #0
 4570 0056 0AD0     		beq	.L485
 4571 0058 8023     		movs	r3, #128
 4572 005a 9B04     		lsls	r3, r3, #18
 4573 005c 0A99     		ldr	r1, [sp, #40]
 4574 005e 9942     		cmp	r1, r3
 4575 0060 05D0     		beq	.L485
 4576 0062 0027     		movs	r7, #0
ARM GAS  /tmp/ccDq0qaf.s 			page 80


 4577 0064 12E0     		b	.L484
 4578              	.L482:
 4579 0066 638D     		ldrh	r3, [r4, #42]
 4580 0068 2385     		strh	r3, [r4, #40]
 4581 006a E66A     		ldr	r6, [r4, #44]
 4582 006c EEE7     		b	.L483
 4583              	.L485:
 4584 006e 2368     		ldr	r3, [r4]
 4585 0070 1278     		ldrb	r2, [r2]
 4586 0072 9A62     		str	r2, [r3, #40]
 4587 0074 636A     		ldr	r3, [r4, #36]
 4588 0076 0133     		adds	r3, r3, #1
 4589 0078 6362     		str	r3, [r4, #36]
 4590 007a 278D     		ldrh	r7, [r4, #40]
 4591 007c 638D     		ldrh	r3, [r4, #42]
 4592 007e 013B     		subs	r3, r3, #1
 4593 0080 9BB2     		uxth	r3, r3
 4594 0082 6385     		strh	r3, [r4, #42]
 4595 0084 7B1E     		subs	r3, r7, #1
 4596 0086 2385     		strh	r3, [r4, #40]
 4597 0088 00E0     		b	.L484
 4598              	.L501:
 4599 008a 0027     		movs	r7, #0
 4600              	.L484:
 4601 008c 236B     		ldr	r3, [r4, #48]
 4602 008e 112B     		cmp	r3, #17
 4603 0090 09D1     		bne	.L486
 4604 0092 0A9B     		ldr	r3, [sp, #40]
 4605 0094 AA2B     		cmp	r3, #170
 4606 0096 06D0     		beq	.L486
 4607 0098 AA23     		movs	r3, #170
 4608 009a 1B02     		lsls	r3, r3, #8
 4609 009c 0A9A     		ldr	r2, [sp, #40]
 4610 009e 9A42     		cmp	r2, r3
 4611 00a0 01D0     		beq	.L486
 4612 00a2 0025     		movs	r5, #0
 4613 00a4 07E0     		b	.L487
 4614              	.L486:
 4615 00a6 2000     		movs	r0, r4
 4616 00a8 FFF7FEFF 		bl	I2C_ConvertOtherXferOptions
 4617 00ac 638D     		ldrh	r3, [r4, #42]
 4618 00ae FF2B     		cmp	r3, #255
 4619 00b0 28D8     		bhi	.L504
 4620 00b2 E66A     		ldr	r6, [r4, #44]
 4621 00b4 454D     		ldr	r5, .L506+4
 4622              	.L487:
 4623 00b6 228D     		ldrh	r2, [r4, #40]
 4624 00b8 002A     		cmp	r2, #0
 4625 00ba 5ED0     		beq	.L488
 4626 00bc A36B     		ldr	r3, [r4, #56]
 4627 00be 002B     		cmp	r3, #0
 4628 00c0 22D0     		beq	.L489
 4629 00c2 434A     		ldr	r2, .L506+8
 4630 00c4 9A62     		str	r2, [r3, #40]
 4631 00c6 A36B     		ldr	r3, [r4, #56]
 4632 00c8 424A     		ldr	r2, .L506+12
 4633 00ca 1A63     		str	r2, [r3, #48]
ARM GAS  /tmp/ccDq0qaf.s 			page 81


 4634 00cc A26B     		ldr	r2, [r4, #56]
 4635 00ce 0023     		movs	r3, #0
 4636 00d0 D362     		str	r3, [r2, #44]
 4637 00d2 A26B     		ldr	r2, [r4, #56]
 4638 00d4 5363     		str	r3, [r2, #52]
 4639 00d6 616A     		ldr	r1, [r4, #36]
 4640 00d8 2268     		ldr	r2, [r4]
 4641 00da 2832     		adds	r2, r2, #40
 4642 00dc 238D     		ldrh	r3, [r4, #40]
 4643 00de A06B     		ldr	r0, [r4, #56]
 4644 00e0 FFF7FEFF 		bl	HAL_DMA_Start_IT
 4645 00e4 0028     		cmp	r0, #0
 4646 00e6 1DD0     		beq	.L490
 4647 00e8 4123     		movs	r3, #65
 4648 00ea 2022     		movs	r2, #32
 4649 00ec E254     		strb	r2, [r4, r3]
 4650 00ee 0022     		movs	r2, #0
 4651 00f0 0133     		adds	r3, r3, #1
 4652 00f2 E254     		strb	r2, [r4, r3]
 4653 00f4 636C     		ldr	r3, [r4, #68]
 4654 00f6 1021     		movs	r1, #16
 4655 00f8 0B43     		orrs	r3, r1
 4656 00fa 6364     		str	r3, [r4, #68]
 4657 00fc 4023     		movs	r3, #64
 4658 00fe E254     		strb	r2, [r4, r3]
 4659 0100 0120     		movs	r0, #1
 4660 0102 5DE0     		b	.L481
 4661              	.L504:
 4662 0104 314D     		ldr	r5, .L506+4
 4663 0106 D6E7     		b	.L487
 4664              	.L489:
 4665 0108 4123     		movs	r3, #65
 4666 010a 2022     		movs	r2, #32
 4667 010c E254     		strb	r2, [r4, r3]
 4668 010e 0022     		movs	r2, #0
 4669 0110 0133     		adds	r3, r3, #1
 4670 0112 E254     		strb	r2, [r4, r3]
 4671 0114 636C     		ldr	r3, [r4, #68]
 4672 0116 8021     		movs	r1, #128
 4673 0118 0B43     		orrs	r3, r1
 4674 011a 6364     		str	r3, [r4, #68]
 4675 011c 4023     		movs	r3, #64
 4676 011e E254     		strb	r2, [r4, r3]
 4677 0120 0120     		movs	r0, #1
 4678 0122 4DE0     		b	.L481
 4679              	.L490:
 4680 0124 0A9B     		ldr	r3, [sp, #40]
 4681 0126 002B     		cmp	r3, #0
 4682 0128 04D0     		beq	.L492
 4683 012a 8023     		movs	r3, #128
 4684 012c 9B04     		lsls	r3, r3, #18
 4685 012e 0A9A     		ldr	r2, [sp, #40]
 4686 0130 9A42     		cmp	r2, r3
 4687 0132 19D1     		bne	.L493
 4688              	.L492:
 4689 0134 FAB2     		uxtb	r2, r7
 4690 0136 0095     		str	r5, [sp]
ARM GAS  /tmp/ccDq0qaf.s 			page 82


 4691 0138 3300     		movs	r3, r6
 4692 013a 0399     		ldr	r1, [sp, #12]
 4693 013c 2000     		movs	r0, r4
 4694 013e FFF7FEFF 		bl	I2C_TransferConfig
 4695              	.L494:
 4696 0142 638D     		ldrh	r3, [r4, #42]
 4697 0144 228D     		ldrh	r2, [r4, #40]
 4698 0146 9B1A     		subs	r3, r3, r2
 4699 0148 9BB2     		uxth	r3, r3
 4700 014a 6385     		strh	r3, [r4, #42]
 4701 014c 4023     		movs	r3, #64
 4702 014e 0022     		movs	r2, #0
 4703 0150 E254     		strb	r2, [r4, r3]
 4704 0152 1021     		movs	r1, #16
 4705 0154 2000     		movs	r0, r4
 4706 0156 FFF7FEFF 		bl	I2C_Enable_IRQ
 4707 015a 2268     		ldr	r2, [r4]
 4708 015c 1168     		ldr	r1, [r2]
 4709 015e 8023     		movs	r3, #128
 4710 0160 DB01     		lsls	r3, r3, #7
 4711 0162 0B43     		orrs	r3, r1
 4712 0164 1360     		str	r3, [r2]
 4713 0166 20E0     		b	.L495
 4714              	.L493:
 4715 0168 228D     		ldrh	r2, [r4, #40]
 4716 016a D2B2     		uxtb	r2, r2
 4717 016c 0095     		str	r5, [sp]
 4718 016e 3300     		movs	r3, r6
 4719 0170 0399     		ldr	r1, [sp, #12]
 4720 0172 2000     		movs	r0, r4
 4721 0174 FFF7FEFF 		bl	I2C_TransferConfig
 4722 0178 E3E7     		b	.L494
 4723              	.L488:
 4724 017a 174B     		ldr	r3, .L506+16
 4725 017c 6363     		str	r3, [r4, #52]
 4726 017e 0A9B     		ldr	r3, [sp, #40]
 4727 0180 002B     		cmp	r3, #0
 4728 0182 04D0     		beq	.L496
 4729 0184 8023     		movs	r3, #128
 4730 0186 9B04     		lsls	r3, r3, #18
 4731 0188 0A99     		ldr	r1, [sp, #40]
 4732 018a 9942     		cmp	r1, r3
 4733 018c 0FD1     		bne	.L497
 4734              	.L496:
 4735 018e FAB2     		uxtb	r2, r7
 4736 0190 0095     		str	r5, [sp]
 4737 0192 3300     		movs	r3, r6
 4738 0194 0399     		ldr	r1, [sp, #12]
 4739 0196 2000     		movs	r0, r4
 4740 0198 FFF7FEFF 		bl	I2C_TransferConfig
 4741              	.L498:
 4742 019c 4023     		movs	r3, #64
 4743 019e 0022     		movs	r2, #0
 4744 01a0 E254     		strb	r2, [r4, r3]
 4745 01a2 0121     		movs	r1, #1
 4746 01a4 2000     		movs	r0, r4
 4747 01a6 FFF7FEFF 		bl	I2C_Enable_IRQ
ARM GAS  /tmp/ccDq0qaf.s 			page 83


 4748              	.L495:
 4749 01aa 0020     		movs	r0, #0
 4750 01ac 08E0     		b	.L481
 4751              	.L497:
 4752 01ae D2B2     		uxtb	r2, r2
 4753 01b0 0095     		str	r5, [sp]
 4754 01b2 3300     		movs	r3, r6
 4755 01b4 0399     		ldr	r1, [sp, #12]
 4756 01b6 2000     		movs	r0, r4
 4757 01b8 FFF7FEFF 		bl	I2C_TransferConfig
 4758 01bc EEE7     		b	.L498
 4759              	.L499:
 4760 01be 0220     		movs	r0, #2
 4761              	.L481:
 4762 01c0 05B0     		add	sp, sp, #20
 4763              		@ sp needed
 4764 01c2 F0BD     		pop	{r4, r5, r6, r7, pc}
 4765              	.L500:
 4766 01c4 0220     		movs	r0, #2
 4767 01c6 FBE7     		b	.L481
 4768              	.L507:
 4769              		.align	2
 4770              	.L506:
 4771 01c8 00000000 		.word	I2C_Master_ISR_DMA
 4772 01cc 00200080 		.word	-2147475456
 4773 01d0 00000000 		.word	I2C_DMAMasterTransmitCplt
 4774 01d4 00000000 		.word	I2C_DMAError
 4775 01d8 00000000 		.word	I2C_Master_ISR_IT
 4777              		.section	.text.HAL_I2C_Master_Seq_Receive_IT,"ax",%progbits
 4778              		.align	1
 4779              		.global	HAL_I2C_Master_Seq_Receive_IT
 4780              		.syntax unified
 4781              		.code	16
 4782              		.thumb_func
 4784              	HAL_I2C_Master_Seq_Receive_IT:
 4785              		@ args = 4, pretend = 0, frame = 0
 4786              		@ frame_needed = 0, uses_anonymous_args = 0
 4787 0000 70B5     		push	{r4, r5, r6, lr}
 4788 0002 82B0     		sub	sp, sp, #8
 4789 0004 0400     		movs	r4, r0
 4790 0006 0D00     		movs	r5, r1
 4791 0008 4121     		movs	r1, #65
 4792 000a 415C     		ldrb	r1, [r0, r1]
 4793 000c 2029     		cmp	r1, #32
 4794 000e 48D1     		bne	.L514
 4795 0010 2031     		adds	r1, r1, #32
 4796 0012 415C     		ldrb	r1, [r0, r1]
 4797 0014 0129     		cmp	r1, #1
 4798 0016 46D0     		beq	.L515
 4799 0018 4021     		movs	r1, #64
 4800 001a 0120     		movs	r0, #1
 4801 001c 6054     		strb	r0, [r4, r1]
 4802 001e 0131     		adds	r1, r1, #1
 4803 0020 2130     		adds	r0, r0, #33
 4804 0022 6054     		strb	r0, [r4, r1]
 4805 0024 0131     		adds	r1, r1, #1
 4806 0026 1238     		subs	r0, r0, #18
ARM GAS  /tmp/ccDq0qaf.s 			page 84


 4807 0028 6054     		strb	r0, [r4, r1]
 4808 002a 0021     		movs	r1, #0
 4809 002c 6164     		str	r1, [r4, #68]
 4810 002e 6262     		str	r2, [r4, #36]
 4811 0030 6385     		strh	r3, [r4, #42]
 4812 0032 069B     		ldr	r3, [sp, #24]
 4813 0034 E362     		str	r3, [r4, #44]
 4814 0036 1D4B     		ldr	r3, .L518
 4815 0038 6363     		str	r3, [r4, #52]
 4816 003a 638D     		ldrh	r3, [r4, #42]
 4817 003c FF2B     		cmp	r3, #255
 4818 003e 10D9     		bls	.L510
 4819 0040 FF23     		movs	r3, #255
 4820 0042 2385     		strh	r3, [r4, #40]
 4821 0044 8026     		movs	r6, #128
 4822 0046 7604     		lsls	r6, r6, #17
 4823              	.L511:
 4824 0048 236B     		ldr	r3, [r4, #48]
 4825 004a 122B     		cmp	r3, #18
 4826 004c 0DD1     		bne	.L512
 4827 004e 069B     		ldr	r3, [sp, #24]
 4828 0050 AA2B     		cmp	r3, #170
 4829 0052 0AD0     		beq	.L512
 4830 0054 AA23     		movs	r3, #170
 4831 0056 1B02     		lsls	r3, r3, #8
 4832 0058 069A     		ldr	r2, [sp, #24]
 4833 005a 9A42     		cmp	r2, r3
 4834 005c 05D0     		beq	.L512
 4835 005e 0023     		movs	r3, #0
 4836 0060 0BE0     		b	.L513
 4837              	.L510:
 4838 0062 638D     		ldrh	r3, [r4, #42]
 4839 0064 2385     		strh	r3, [r4, #40]
 4840 0066 E66A     		ldr	r6, [r4, #44]
 4841 0068 EEE7     		b	.L511
 4842              	.L512:
 4843 006a 2000     		movs	r0, r4
 4844 006c FFF7FEFF 		bl	I2C_ConvertOtherXferOptions
 4845 0070 638D     		ldrh	r3, [r4, #42]
 4846 0072 FF2B     		cmp	r3, #255
 4847 0074 13D8     		bhi	.L517
 4848 0076 E66A     		ldr	r6, [r4, #44]
 4849 0078 0D4B     		ldr	r3, .L518+4
 4850              	.L513:
 4851 007a 228D     		ldrh	r2, [r4, #40]
 4852 007c D2B2     		uxtb	r2, r2
 4853 007e 0093     		str	r3, [sp]
 4854 0080 3300     		movs	r3, r6
 4855 0082 2900     		movs	r1, r5
 4856 0084 2000     		movs	r0, r4
 4857 0086 FFF7FEFF 		bl	I2C_TransferConfig
 4858 008a 4023     		movs	r3, #64
 4859 008c 0022     		movs	r2, #0
 4860 008e E254     		strb	r2, [r4, r3]
 4861 0090 0221     		movs	r1, #2
 4862 0092 2000     		movs	r0, r4
 4863 0094 FFF7FEFF 		bl	I2C_Enable_IRQ
ARM GAS  /tmp/ccDq0qaf.s 			page 85


 4864 0098 0020     		movs	r0, #0
 4865              	.L509:
 4866 009a 02B0     		add	sp, sp, #8
 4867              		@ sp needed
 4868 009c 70BD     		pop	{r4, r5, r6, pc}
 4869              	.L517:
 4870 009e 044B     		ldr	r3, .L518+4
 4871 00a0 EBE7     		b	.L513
 4872              	.L514:
 4873 00a2 0220     		movs	r0, #2
 4874 00a4 F9E7     		b	.L509
 4875              	.L515:
 4876 00a6 0220     		movs	r0, #2
 4877 00a8 F7E7     		b	.L509
 4878              	.L519:
 4879 00aa C046     		.align	2
 4880              	.L518:
 4881 00ac 00000000 		.word	I2C_Master_ISR_IT
 4882 00b0 00240080 		.word	-2147474432
 4884              		.section	.text.HAL_I2C_Master_Seq_Receive_DMA,"ax",%progbits
 4885              		.align	1
 4886              		.global	HAL_I2C_Master_Seq_Receive_DMA
 4887              		.syntax unified
 4888              		.code	16
 4889              		.thumb_func
 4891              	HAL_I2C_Master_Seq_Receive_DMA:
 4892              		@ args = 4, pretend = 0, frame = 8
 4893              		@ frame_needed = 0, uses_anonymous_args = 0
 4894 0000 F0B5     		push	{r4, r5, r6, r7, lr}
 4895 0002 85B0     		sub	sp, sp, #20
 4896 0004 0400     		movs	r4, r0
 4897 0006 0391     		str	r1, [sp, #12]
 4898 0008 1600     		movs	r6, r2
 4899 000a 4121     		movs	r1, #65
 4900 000c 415C     		ldrb	r1, [r0, r1]
 4901 000e 2029     		cmp	r1, #32
 4902 0010 00D0     		beq	.LCB5639
 4903 0012 9BE0     		b	.L531	@long jump
 4904              	.LCB5639:
 4905 0014 4022     		movs	r2, #64
 4906 0016 825C     		ldrb	r2, [r0, r2]
 4907 0018 012A     		cmp	r2, #1
 4908 001a 00D1     		bne	.LCB5643
 4909 001c 99E0     		b	.L532	@long jump
 4910              	.LCB5643:
 4911 001e 4022     		movs	r2, #64
 4912 0020 1F39     		subs	r1, r1, #31
 4913 0022 8154     		strb	r1, [r0, r2]
 4914 0024 0132     		adds	r2, r2, #1
 4915 0026 2131     		adds	r1, r1, #33
 4916 0028 8154     		strb	r1, [r0, r2]
 4917 002a 0132     		adds	r2, r2, #1
 4918 002c 1239     		subs	r1, r1, #18
 4919 002e 8154     		strb	r1, [r0, r2]
 4920 0030 0022     		movs	r2, #0
 4921 0032 4264     		str	r2, [r0, #68]
 4922 0034 4662     		str	r6, [r0, #36]
ARM GAS  /tmp/ccDq0qaf.s 			page 86


 4923 0036 4385     		strh	r3, [r0, #42]
 4924 0038 0A9B     		ldr	r3, [sp, #40]
 4925 003a C362     		str	r3, [r0, #44]
 4926 003c 464B     		ldr	r3, .L537
 4927 003e 4363     		str	r3, [r0, #52]
 4928 0040 438D     		ldrh	r3, [r0, #42]
 4929 0042 FF2B     		cmp	r3, #255
 4930 0044 10D9     		bls	.L522
 4931 0046 FF23     		movs	r3, #255
 4932 0048 0385     		strh	r3, [r0, #40]
 4933 004a 8027     		movs	r7, #128
 4934 004c 7F04     		lsls	r7, r7, #17
 4935              	.L523:
 4936 004e 236B     		ldr	r3, [r4, #48]
 4937 0050 122B     		cmp	r3, #18
 4938 0052 0DD1     		bne	.L524
 4939 0054 0A9B     		ldr	r3, [sp, #40]
 4940 0056 AA2B     		cmp	r3, #170
 4941 0058 0AD0     		beq	.L524
 4942 005a AA23     		movs	r3, #170
 4943 005c 1B02     		lsls	r3, r3, #8
 4944 005e 0A9A     		ldr	r2, [sp, #40]
 4945 0060 9A42     		cmp	r2, r3
 4946 0062 05D0     		beq	.L524
 4947 0064 0025     		movs	r5, #0
 4948 0066 0BE0     		b	.L525
 4949              	.L522:
 4950 0068 438D     		ldrh	r3, [r0, #42]
 4951 006a 0385     		strh	r3, [r0, #40]
 4952 006c C76A     		ldr	r7, [r0, #44]
 4953 006e EEE7     		b	.L523
 4954              	.L524:
 4955 0070 2000     		movs	r0, r4
 4956 0072 FFF7FEFF 		bl	I2C_ConvertOtherXferOptions
 4957 0076 638D     		ldrh	r3, [r4, #42]
 4958 0078 FF2B     		cmp	r3, #255
 4959 007a 28D8     		bhi	.L534
 4960 007c E76A     		ldr	r7, [r4, #44]
 4961 007e 374D     		ldr	r5, .L537+4
 4962              	.L525:
 4963 0080 228D     		ldrh	r2, [r4, #40]
 4964 0082 002A     		cmp	r2, #0
 4965 0084 4ED0     		beq	.L526
 4966 0086 E36B     		ldr	r3, [r4, #60]
 4967 0088 002B     		cmp	r3, #0
 4968 008a 22D0     		beq	.L527
 4969 008c 344A     		ldr	r2, .L537+8
 4970 008e 9A62     		str	r2, [r3, #40]
 4971 0090 E36B     		ldr	r3, [r4, #60]
 4972 0092 344A     		ldr	r2, .L537+12
 4973 0094 1A63     		str	r2, [r3, #48]
 4974 0096 E26B     		ldr	r2, [r4, #60]
 4975 0098 0023     		movs	r3, #0
 4976 009a D362     		str	r3, [r2, #44]
 4977 009c E26B     		ldr	r2, [r4, #60]
 4978 009e 5363     		str	r3, [r2, #52]
 4979 00a0 2168     		ldr	r1, [r4]
ARM GAS  /tmp/ccDq0qaf.s 			page 87


 4980 00a2 2431     		adds	r1, r1, #36
 4981 00a4 238D     		ldrh	r3, [r4, #40]
 4982 00a6 E06B     		ldr	r0, [r4, #60]
 4983 00a8 3200     		movs	r2, r6
 4984 00aa FFF7FEFF 		bl	HAL_DMA_Start_IT
 4985 00ae 0028     		cmp	r0, #0
 4986 00b0 1DD0     		beq	.L536
 4987 00b2 4123     		movs	r3, #65
 4988 00b4 2022     		movs	r2, #32
 4989 00b6 E254     		strb	r2, [r4, r3]
 4990 00b8 0022     		movs	r2, #0
 4991 00ba 0133     		adds	r3, r3, #1
 4992 00bc E254     		strb	r2, [r4, r3]
 4993 00be 636C     		ldr	r3, [r4, #68]
 4994 00c0 1021     		movs	r1, #16
 4995 00c2 0B43     		orrs	r3, r1
 4996 00c4 6364     		str	r3, [r4, #68]
 4997 00c6 4023     		movs	r3, #64
 4998 00c8 E254     		strb	r2, [r4, r3]
 4999 00ca 0120     		movs	r0, #1
 5000 00cc 3FE0     		b	.L521
 5001              	.L534:
 5002 00ce 234D     		ldr	r5, .L537+4
 5003 00d0 D6E7     		b	.L525
 5004              	.L527:
 5005 00d2 4123     		movs	r3, #65
 5006 00d4 2022     		movs	r2, #32
 5007 00d6 E254     		strb	r2, [r4, r3]
 5008 00d8 0022     		movs	r2, #0
 5009 00da 0133     		adds	r3, r3, #1
 5010 00dc E254     		strb	r2, [r4, r3]
 5011 00de 636C     		ldr	r3, [r4, #68]
 5012 00e0 8021     		movs	r1, #128
 5013 00e2 0B43     		orrs	r3, r1
 5014 00e4 6364     		str	r3, [r4, #68]
 5015 00e6 4023     		movs	r3, #64
 5016 00e8 E254     		strb	r2, [r4, r3]
 5017 00ea 0120     		movs	r0, #1
 5018 00ec 2FE0     		b	.L521
 5019              	.L536:
 5020 00ee 228D     		ldrh	r2, [r4, #40]
 5021 00f0 D2B2     		uxtb	r2, r2
 5022 00f2 0095     		str	r5, [sp]
 5023 00f4 3B00     		movs	r3, r7
 5024 00f6 0399     		ldr	r1, [sp, #12]
 5025 00f8 2000     		movs	r0, r4
 5026 00fa FFF7FEFF 		bl	I2C_TransferConfig
 5027 00fe 638D     		ldrh	r3, [r4, #42]
 5028 0100 228D     		ldrh	r2, [r4, #40]
 5029 0102 9B1A     		subs	r3, r3, r2
 5030 0104 9BB2     		uxth	r3, r3
 5031 0106 6385     		strh	r3, [r4, #42]
 5032 0108 4023     		movs	r3, #64
 5033 010a 0022     		movs	r2, #0
 5034 010c E254     		strb	r2, [r4, r3]
 5035 010e 1021     		movs	r1, #16
 5036 0110 2000     		movs	r0, r4
ARM GAS  /tmp/ccDq0qaf.s 			page 88


 5037 0112 FFF7FEFF 		bl	I2C_Enable_IRQ
 5038 0116 2268     		ldr	r2, [r4]
 5039 0118 1168     		ldr	r1, [r2]
 5040 011a 8023     		movs	r3, #128
 5041 011c 1B02     		lsls	r3, r3, #8
 5042 011e 0B43     		orrs	r3, r1
 5043 0120 1360     		str	r3, [r2]
 5044 0122 11E0     		b	.L530
 5045              	.L526:
 5046 0124 104B     		ldr	r3, .L537+16
 5047 0126 6363     		str	r3, [r4, #52]
 5048 0128 8023     		movs	r3, #128
 5049 012a D2B2     		uxtb	r2, r2
 5050 012c 0B49     		ldr	r1, .L537+4
 5051 012e 0091     		str	r1, [sp]
 5052 0130 9B04     		lsls	r3, r3, #18
 5053 0132 0399     		ldr	r1, [sp, #12]
 5054 0134 2000     		movs	r0, r4
 5055 0136 FFF7FEFF 		bl	I2C_TransferConfig
 5056 013a 4023     		movs	r3, #64
 5057 013c 0022     		movs	r2, #0
 5058 013e E254     		strb	r2, [r4, r3]
 5059 0140 0221     		movs	r1, #2
 5060 0142 2000     		movs	r0, r4
 5061 0144 FFF7FEFF 		bl	I2C_Enable_IRQ
 5062              	.L530:
 5063 0148 0020     		movs	r0, #0
 5064 014a 00E0     		b	.L521
 5065              	.L531:
 5066 014c 0220     		movs	r0, #2
 5067              	.L521:
 5068 014e 05B0     		add	sp, sp, #20
 5069              		@ sp needed
 5070 0150 F0BD     		pop	{r4, r5, r6, r7, pc}
 5071              	.L532:
 5072 0152 0220     		movs	r0, #2
 5073 0154 FBE7     		b	.L521
 5074              	.L538:
 5075 0156 C046     		.align	2
 5076              	.L537:
 5077 0158 00000000 		.word	I2C_Master_ISR_DMA
 5078 015c 00240080 		.word	-2147474432
 5079 0160 00000000 		.word	I2C_DMAMasterReceiveCplt
 5080 0164 00000000 		.word	I2C_DMAError
 5081 0168 00000000 		.word	I2C_Master_ISR_IT
 5083              		.section	.text.HAL_I2C_Slave_Seq_Transmit_IT,"ax",%progbits
 5084              		.align	1
 5085              		.global	HAL_I2C_Slave_Seq_Transmit_IT
 5086              		.syntax unified
 5087              		.code	16
 5088              		.thumb_func
 5090              	HAL_I2C_Slave_Seq_Transmit_IT:
 5091              		@ args = 0, pretend = 0, frame = 0
 5092              		@ frame_needed = 0, uses_anonymous_args = 0
 5093 0000 F8B5     		push	{r3, r4, r5, r6, r7, lr}
 5094 0002 0400     		movs	r4, r0
 5095 0004 0D00     		movs	r5, r1
ARM GAS  /tmp/ccDq0qaf.s 			page 89


 5096 0006 1600     		movs	r6, r2
 5097 0008 1F00     		movs	r7, r3
 5098 000a 4123     		movs	r3, #65
 5099 000c C35C     		ldrb	r3, [r0, r3]
 5100 000e 2822     		movs	r2, #40
 5101 0010 1340     		ands	r3, r2
 5102 0012 282B     		cmp	r3, #40
 5103 0014 58D1     		bne	.L545
 5104 0016 0029     		cmp	r1, #0
 5105 0018 01D0     		beq	.L541
 5106 001a 002E     		cmp	r6, #0
 5107 001c 04D1     		bne	.L542
 5108              	.L541:
 5109 001e 8023     		movs	r3, #128
 5110 0020 9B00     		lsls	r3, r3, #2
 5111 0022 6364     		str	r3, [r4, #68]
 5112 0024 0120     		movs	r0, #1
 5113 0026 50E0     		b	.L540
 5114              	.L542:
 5115 0028 2949     		ldr	r1, .L550
 5116 002a FFF7FEFF 		bl	I2C_Disable_IRQ
 5117 002e 4023     		movs	r3, #64
 5118 0030 E35C     		ldrb	r3, [r4, r3]
 5119 0032 012B     		cmp	r3, #1
 5120 0034 4AD0     		beq	.L546
 5121 0036 4023     		movs	r3, #64
 5122 0038 0122     		movs	r2, #1
 5123 003a E254     		strb	r2, [r4, r3]
 5124 003c 0133     		adds	r3, r3, #1
 5125 003e E35C     		ldrb	r3, [r4, r3]
 5126 0040 2A2B     		cmp	r3, #42
 5127 0042 27D0     		beq	.L549
 5128              	.L543:
 5129 0044 4123     		movs	r3, #65
 5130 0046 2922     		movs	r2, #41
 5131 0048 E254     		strb	r2, [r4, r3]
 5132 004a 0133     		adds	r3, r3, #1
 5133 004c 093A     		subs	r2, r2, #9
 5134 004e E254     		strb	r2, [r4, r3]
 5135 0050 0023     		movs	r3, #0
 5136 0052 6364     		str	r3, [r4, #68]
 5137 0054 2268     		ldr	r2, [r4]
 5138 0056 5368     		ldr	r3, [r2, #4]
 5139 0058 1E49     		ldr	r1, .L550+4
 5140 005a 0B40     		ands	r3, r1
 5141 005c 5360     		str	r3, [r2, #4]
 5142 005e 6562     		str	r5, [r4, #36]
 5143 0060 6685     		strh	r6, [r4, #42]
 5144 0062 638D     		ldrh	r3, [r4, #42]
 5145 0064 2385     		strh	r3, [r4, #40]
 5146 0066 E762     		str	r7, [r4, #44]
 5147 0068 1B4B     		ldr	r3, .L550+8
 5148 006a 6363     		str	r3, [r4, #52]
 5149 006c 2268     		ldr	r2, [r4]
 5150 006e 9169     		ldr	r1, [r2, #24]
 5151 0070 0823     		movs	r3, #8
 5152 0072 0B40     		ands	r3, r1
ARM GAS  /tmp/ccDq0qaf.s 			page 90


 5153 0074 9169     		ldr	r1, [r2, #24]
 5154 0076 C903     		lsls	r1, r1, #15
 5155 0078 03D5     		bpl	.L544
 5156 007a 002B     		cmp	r3, #0
 5157 007c 01D0     		beq	.L544
 5158 007e 0823     		movs	r3, #8
 5159 0080 D361     		str	r3, [r2, #28]
 5160              	.L544:
 5161 0082 4023     		movs	r3, #64
 5162 0084 0022     		movs	r2, #0
 5163 0086 E254     		strb	r2, [r4, r3]
 5164 0088 1149     		ldr	r1, .L550
 5165 008a 2000     		movs	r0, r4
 5166 008c FFF7FEFF 		bl	I2C_Enable_IRQ
 5167 0090 0020     		movs	r0, #0
 5168 0092 1AE0     		b	.L540
 5169              	.L549:
 5170 0094 0221     		movs	r1, #2
 5171 0096 2000     		movs	r0, r4
 5172 0098 FFF7FEFF 		bl	I2C_Disable_IRQ
 5173 009c 2268     		ldr	r2, [r4]
 5174 009e 1368     		ldr	r3, [r2]
 5175 00a0 1B04     		lsls	r3, r3, #16
 5176 00a2 CFD5     		bpl	.L543
 5177 00a4 1368     		ldr	r3, [r2]
 5178 00a6 0B49     		ldr	r1, .L550+4
 5179 00a8 0B40     		ands	r3, r1
 5180 00aa 1360     		str	r3, [r2]
 5181 00ac E36B     		ldr	r3, [r4, #60]
 5182 00ae 002B     		cmp	r3, #0
 5183 00b0 C8D0     		beq	.L543
 5184 00b2 0A4A     		ldr	r2, .L550+12
 5185 00b4 5A63     		str	r2, [r3, #52]
 5186 00b6 E06B     		ldr	r0, [r4, #60]
 5187 00b8 FFF7FEFF 		bl	HAL_DMA_Abort_IT
 5188 00bc 0028     		cmp	r0, #0
 5189 00be C1D0     		beq	.L543
 5190 00c0 E06B     		ldr	r0, [r4, #60]
 5191 00c2 436B     		ldr	r3, [r0, #52]
 5192 00c4 9847     		blx	r3
 5193 00c6 BDE7     		b	.L543
 5194              	.L545:
 5195 00c8 0120     		movs	r0, #1
 5196              	.L540:
 5197              		@ sp needed
 5198 00ca F8BD     		pop	{r3, r4, r5, r6, r7, pc}
 5199              	.L546:
 5200 00cc 0220     		movs	r0, #2
 5201 00ce FCE7     		b	.L540
 5202              	.L551:
 5203              		.align	2
 5204              	.L550:
 5205 00d0 01800000 		.word	32769
 5206 00d4 FF7FFFFF 		.word	-32769
 5207 00d8 00000000 		.word	I2C_Slave_ISR_IT
 5208 00dc 00000000 		.word	I2C_DMAAbort
 5210              		.section	.text.HAL_I2C_Slave_Seq_Transmit_DMA,"ax",%progbits
ARM GAS  /tmp/ccDq0qaf.s 			page 91


 5211              		.align	1
 5212              		.global	HAL_I2C_Slave_Seq_Transmit_DMA
 5213              		.syntax unified
 5214              		.code	16
 5215              		.thumb_func
 5217              	HAL_I2C_Slave_Seq_Transmit_DMA:
 5218              		@ args = 0, pretend = 0, frame = 0
 5219              		@ frame_needed = 0, uses_anonymous_args = 0
 5220 0000 F8B5     		push	{r3, r4, r5, r6, r7, lr}
 5221 0002 0400     		movs	r4, r0
 5222 0004 0F00     		movs	r7, r1
 5223 0006 1500     		movs	r5, r2
 5224 0008 1E00     		movs	r6, r3
 5225 000a 4123     		movs	r3, #65
 5226 000c C05C     		ldrb	r0, [r0, r3]
 5227 000e 193B     		subs	r3, r3, #25
 5228 0010 1840     		ands	r0, r3
 5229 0012 2828     		cmp	r0, #40
 5230 0014 00D0     		beq	.LCB6018
 5231 0016 B5E0     		b	.L563	@long jump
 5232              	.LCB6018:
 5233 0018 0029     		cmp	r1, #0
 5234 001a 4DD0     		beq	.L554
 5235 001c 002A     		cmp	r2, #0
 5236 001e 4BD0     		beq	.L554
 5237 0020 4023     		movs	r3, #64
 5238 0022 E35C     		ldrb	r3, [r4, r3]
 5239 0024 012B     		cmp	r3, #1
 5240 0026 00D1     		bne	.LCB6026
 5241 0028 AFE0     		b	.L564	@long jump
 5242              	.LCB6026:
 5243 002a 4023     		movs	r3, #64
 5244 002c 0122     		movs	r2, #1
 5245 002e E254     		strb	r2, [r4, r3]
 5246 0030 5749     		ldr	r1, .L570
 5247 0032 2000     		movs	r0, r4
 5248 0034 FFF7FEFF 		bl	I2C_Disable_IRQ
 5249 0038 4123     		movs	r3, #65
 5250 003a E35C     		ldrb	r3, [r4, r3]
 5251 003c 2A2B     		cmp	r3, #42
 5252 003e 40D0     		beq	.L568
 5253 0040 4123     		movs	r3, #65
 5254 0042 E35C     		ldrb	r3, [r4, r3]
 5255 0044 292B     		cmp	r3, #41
 5256 0046 57D0     		beq	.L569
 5257              	.L557:
 5258 0048 4123     		movs	r3, #65
 5259 004a 2922     		movs	r2, #41
 5260 004c E254     		strb	r2, [r4, r3]
 5261 004e 0133     		adds	r3, r3, #1
 5262 0050 093A     		subs	r2, r2, #9
 5263 0052 E254     		strb	r2, [r4, r3]
 5264 0054 0023     		movs	r3, #0
 5265 0056 6364     		str	r3, [r4, #68]
 5266 0058 2268     		ldr	r2, [r4]
 5267 005a 5368     		ldr	r3, [r2, #4]
 5268 005c 4D49     		ldr	r1, .L570+4
ARM GAS  /tmp/ccDq0qaf.s 			page 92


 5269 005e 0B40     		ands	r3, r1
 5270 0060 5360     		str	r3, [r2, #4]
 5271 0062 6762     		str	r7, [r4, #36]
 5272 0064 6585     		strh	r5, [r4, #42]
 5273 0066 638D     		ldrh	r3, [r4, #42]
 5274 0068 2385     		strh	r3, [r4, #40]
 5275 006a E662     		str	r6, [r4, #44]
 5276 006c 4A4B     		ldr	r3, .L570+8
 5277 006e 6363     		str	r3, [r4, #52]
 5278 0070 A36B     		ldr	r3, [r4, #56]
 5279 0072 002B     		cmp	r3, #0
 5280 0074 56D0     		beq	.L558
 5281 0076 494A     		ldr	r2, .L570+12
 5282 0078 9A62     		str	r2, [r3, #40]
 5283 007a A36B     		ldr	r3, [r4, #56]
 5284 007c 484A     		ldr	r2, .L570+16
 5285 007e 1A63     		str	r2, [r3, #48]
 5286 0080 A26B     		ldr	r2, [r4, #56]
 5287 0082 0023     		movs	r3, #0
 5288 0084 D362     		str	r3, [r2, #44]
 5289 0086 A26B     		ldr	r2, [r4, #56]
 5290 0088 5363     		str	r3, [r2, #52]
 5291 008a 2268     		ldr	r2, [r4]
 5292 008c 2832     		adds	r2, r2, #40
 5293 008e 238D     		ldrh	r3, [r4, #40]
 5294 0090 A06B     		ldr	r0, [r4, #56]
 5295 0092 3900     		movs	r1, r7
 5296 0094 FFF7FEFF 		bl	HAL_DMA_Start_IT
 5297 0098 051E     		subs	r5, r0, #0
 5298 009a 51D0     		beq	.L559
 5299 009c 4123     		movs	r3, #65
 5300 009e 2822     		movs	r2, #40
 5301 00a0 E254     		strb	r2, [r4, r3]
 5302 00a2 0022     		movs	r2, #0
 5303 00a4 0133     		adds	r3, r3, #1
 5304 00a6 E254     		strb	r2, [r4, r3]
 5305 00a8 636C     		ldr	r3, [r4, #68]
 5306 00aa 1021     		movs	r1, #16
 5307 00ac 0B43     		orrs	r3, r1
 5308 00ae 6364     		str	r3, [r4, #68]
 5309 00b0 4023     		movs	r3, #64
 5310 00b2 E254     		strb	r2, [r4, r3]
 5311 00b4 0125     		movs	r5, #1
 5312 00b6 66E0     		b	.L553
 5313              	.L554:
 5314 00b8 8023     		movs	r3, #128
 5315 00ba 9B00     		lsls	r3, r3, #2
 5316 00bc 6364     		str	r3, [r4, #68]
 5317 00be 0125     		movs	r5, #1
 5318 00c0 61E0     		b	.L553
 5319              	.L568:
 5320 00c2 0221     		movs	r1, #2
 5321 00c4 2000     		movs	r0, r4
 5322 00c6 FFF7FEFF 		bl	I2C_Disable_IRQ
 5323 00ca 2268     		ldr	r2, [r4]
 5324 00cc 1368     		ldr	r3, [r2]
 5325 00ce 1B04     		lsls	r3, r3, #16
ARM GAS  /tmp/ccDq0qaf.s 			page 93


 5326 00d0 BAD5     		bpl	.L557
 5327 00d2 E36B     		ldr	r3, [r4, #60]
 5328 00d4 002B     		cmp	r3, #0
 5329 00d6 B7D0     		beq	.L557
 5330 00d8 1368     		ldr	r3, [r2]
 5331 00da 2E49     		ldr	r1, .L570+4
 5332 00dc 0B40     		ands	r3, r1
 5333 00de 1360     		str	r3, [r2]
 5334 00e0 E36B     		ldr	r3, [r4, #60]
 5335 00e2 304A     		ldr	r2, .L570+20
 5336 00e4 5A63     		str	r2, [r3, #52]
 5337 00e6 E06B     		ldr	r0, [r4, #60]
 5338 00e8 FFF7FEFF 		bl	HAL_DMA_Abort_IT
 5339 00ec 0028     		cmp	r0, #0
 5340 00ee ABD0     		beq	.L557
 5341 00f0 E06B     		ldr	r0, [r4, #60]
 5342 00f2 436B     		ldr	r3, [r0, #52]
 5343 00f4 9847     		blx	r3
 5344 00f6 A7E7     		b	.L557
 5345              	.L569:
 5346 00f8 2368     		ldr	r3, [r4]
 5347 00fa 1A68     		ldr	r2, [r3]
 5348 00fc 5204     		lsls	r2, r2, #17
 5349 00fe A3D5     		bpl	.L557
 5350 0100 1A68     		ldr	r2, [r3]
 5351 0102 2949     		ldr	r1, .L570+24
 5352 0104 0A40     		ands	r2, r1
 5353 0106 1A60     		str	r2, [r3]
 5354 0108 A36B     		ldr	r3, [r4, #56]
 5355 010a 002B     		cmp	r3, #0
 5356 010c 9CD0     		beq	.L557
 5357 010e 254A     		ldr	r2, .L570+20
 5358 0110 5A63     		str	r2, [r3, #52]
 5359 0112 A06B     		ldr	r0, [r4, #56]
 5360 0114 FFF7FEFF 		bl	HAL_DMA_Abort_IT
 5361 0118 0028     		cmp	r0, #0
 5362 011a 95D0     		beq	.L557
 5363 011c A06B     		ldr	r0, [r4, #56]
 5364 011e 436B     		ldr	r3, [r0, #52]
 5365 0120 9847     		blx	r3
 5366 0122 91E7     		b	.L557
 5367              	.L558:
 5368 0124 4123     		movs	r3, #65
 5369 0126 2822     		movs	r2, #40
 5370 0128 E254     		strb	r2, [r4, r3]
 5371 012a 0022     		movs	r2, #0
 5372 012c 0133     		adds	r3, r3, #1
 5373 012e E254     		strb	r2, [r4, r3]
 5374 0130 636C     		ldr	r3, [r4, #68]
 5375 0132 8021     		movs	r1, #128
 5376 0134 0B43     		orrs	r3, r1
 5377 0136 6364     		str	r3, [r4, #68]
 5378 0138 4023     		movs	r3, #64
 5379 013a E254     		strb	r2, [r4, r3]
 5380 013c 0125     		movs	r5, #1
 5381 013e 22E0     		b	.L553
 5382              	.L559:
ARM GAS  /tmp/ccDq0qaf.s 			page 94


 5383 0140 638D     		ldrh	r3, [r4, #42]
 5384 0142 228D     		ldrh	r2, [r4, #40]
 5385 0144 9B1A     		subs	r3, r3, r2
 5386 0146 9BB2     		uxth	r3, r3
 5387 0148 6385     		strh	r3, [r4, #42]
 5388 014a 0023     		movs	r3, #0
 5389 014c 2385     		strh	r3, [r4, #40]
 5390 014e 2268     		ldr	r2, [r4]
 5391 0150 9169     		ldr	r1, [r2, #24]
 5392 0152 0833     		adds	r3, r3, #8
 5393 0154 0B40     		ands	r3, r1
 5394 0156 9169     		ldr	r1, [r2, #24]
 5395 0158 C903     		lsls	r1, r1, #15
 5396 015a 0ED4     		bmi	.L561
 5397              	.L562:
 5398 015c 4023     		movs	r3, #64
 5399 015e 0022     		movs	r2, #0
 5400 0160 E254     		strb	r2, [r4, r3]
 5401 0162 2268     		ldr	r2, [r4]
 5402 0164 1168     		ldr	r1, [r2]
 5403 0166 8023     		movs	r3, #128
 5404 0168 DB01     		lsls	r3, r3, #7
 5405 016a 0B43     		orrs	r3, r1
 5406 016c 1360     		str	r3, [r2]
 5407 016e 8021     		movs	r1, #128
 5408 0170 0902     		lsls	r1, r1, #8
 5409 0172 2000     		movs	r0, r4
 5410 0174 FFF7FEFF 		bl	I2C_Enable_IRQ
 5411 0178 05E0     		b	.L553
 5412              	.L561:
 5413 017a 002B     		cmp	r3, #0
 5414 017c EED0     		beq	.L562
 5415 017e 0823     		movs	r3, #8
 5416 0180 D361     		str	r3, [r2, #28]
 5417 0182 EBE7     		b	.L562
 5418              	.L563:
 5419 0184 0125     		movs	r5, #1
 5420              	.L553:
 5421 0186 2800     		movs	r0, r5
 5422              		@ sp needed
 5423 0188 F8BD     		pop	{r3, r4, r5, r6, r7, pc}
 5424              	.L564:
 5425 018a 0225     		movs	r5, #2
 5426 018c FBE7     		b	.L553
 5427              	.L571:
 5428 018e C046     		.align	2
 5429              	.L570:
 5430 0190 01800000 		.word	32769
 5431 0194 FF7FFFFF 		.word	-32769
 5432 0198 00000000 		.word	I2C_Slave_ISR_DMA
 5433 019c 00000000 		.word	I2C_DMASlaveTransmitCplt
 5434 01a0 00000000 		.word	I2C_DMAError
 5435 01a4 00000000 		.word	I2C_DMAAbort
 5436 01a8 FFBFFFFF 		.word	-16385
 5438              		.section	.text.HAL_I2C_Slave_Seq_Receive_IT,"ax",%progbits
 5439              		.align	1
 5440              		.global	HAL_I2C_Slave_Seq_Receive_IT
ARM GAS  /tmp/ccDq0qaf.s 			page 95


 5441              		.syntax unified
 5442              		.code	16
 5443              		.thumb_func
 5445              	HAL_I2C_Slave_Seq_Receive_IT:
 5446              		@ args = 0, pretend = 0, frame = 0
 5447              		@ frame_needed = 0, uses_anonymous_args = 0
 5448 0000 F8B5     		push	{r3, r4, r5, r6, r7, lr}
 5449 0002 0400     		movs	r4, r0
 5450 0004 0D00     		movs	r5, r1
 5451 0006 1600     		movs	r6, r2
 5452 0008 1F00     		movs	r7, r3
 5453 000a 4123     		movs	r3, #65
 5454 000c C35C     		ldrb	r3, [r0, r3]
 5455 000e 2822     		movs	r2, #40
 5456 0010 1340     		ands	r3, r2
 5457 0012 282B     		cmp	r3, #40
 5458 0014 58D1     		bne	.L578
 5459 0016 0029     		cmp	r1, #0
 5460 0018 01D0     		beq	.L574
 5461 001a 002E     		cmp	r6, #0
 5462 001c 04D1     		bne	.L575
 5463              	.L574:
 5464 001e 8023     		movs	r3, #128
 5465 0020 9B00     		lsls	r3, r3, #2
 5466 0022 6364     		str	r3, [r4, #68]
 5467 0024 0120     		movs	r0, #1
 5468 0026 50E0     		b	.L573
 5469              	.L575:
 5470 0028 2949     		ldr	r1, .L583
 5471 002a FFF7FEFF 		bl	I2C_Disable_IRQ
 5472 002e 4023     		movs	r3, #64
 5473 0030 E35C     		ldrb	r3, [r4, r3]
 5474 0032 012B     		cmp	r3, #1
 5475 0034 4AD0     		beq	.L579
 5476 0036 4023     		movs	r3, #64
 5477 0038 0122     		movs	r2, #1
 5478 003a E254     		strb	r2, [r4, r3]
 5479 003c 0133     		adds	r3, r3, #1
 5480 003e E35C     		ldrb	r3, [r4, r3]
 5481 0040 292B     		cmp	r3, #41
 5482 0042 27D0     		beq	.L582
 5483              	.L576:
 5484 0044 4123     		movs	r3, #65
 5485 0046 2A22     		movs	r2, #42
 5486 0048 E254     		strb	r2, [r4, r3]
 5487 004a 0133     		adds	r3, r3, #1
 5488 004c 0A3A     		subs	r2, r2, #10
 5489 004e E254     		strb	r2, [r4, r3]
 5490 0050 0023     		movs	r3, #0
 5491 0052 6364     		str	r3, [r4, #68]
 5492 0054 2268     		ldr	r2, [r4]
 5493 0056 5368     		ldr	r3, [r2, #4]
 5494 0058 1E49     		ldr	r1, .L583+4
 5495 005a 0B40     		ands	r3, r1
 5496 005c 5360     		str	r3, [r2, #4]
 5497 005e 6562     		str	r5, [r4, #36]
 5498 0060 6685     		strh	r6, [r4, #42]
ARM GAS  /tmp/ccDq0qaf.s 			page 96


 5499 0062 638D     		ldrh	r3, [r4, #42]
 5500 0064 2385     		strh	r3, [r4, #40]
 5501 0066 E762     		str	r7, [r4, #44]
 5502 0068 1B4B     		ldr	r3, .L583+8
 5503 006a 6363     		str	r3, [r4, #52]
 5504 006c 2268     		ldr	r2, [r4]
 5505 006e 9169     		ldr	r1, [r2, #24]
 5506 0070 0823     		movs	r3, #8
 5507 0072 0B40     		ands	r3, r1
 5508 0074 9169     		ldr	r1, [r2, #24]
 5509 0076 C903     		lsls	r1, r1, #15
 5510 0078 03D4     		bmi	.L577
 5511 007a 002B     		cmp	r3, #0
 5512 007c 01D0     		beq	.L577
 5513 007e 0823     		movs	r3, #8
 5514 0080 D361     		str	r3, [r2, #28]
 5515              	.L577:
 5516 0082 4023     		movs	r3, #64
 5517 0084 0022     		movs	r2, #0
 5518 0086 E254     		strb	r2, [r4, r3]
 5519 0088 1149     		ldr	r1, .L583
 5520 008a 2000     		movs	r0, r4
 5521 008c FFF7FEFF 		bl	I2C_Enable_IRQ
 5522 0090 0020     		movs	r0, #0
 5523 0092 1AE0     		b	.L573
 5524              	.L582:
 5525 0094 0121     		movs	r1, #1
 5526 0096 2000     		movs	r0, r4
 5527 0098 FFF7FEFF 		bl	I2C_Disable_IRQ
 5528 009c 2268     		ldr	r2, [r4]
 5529 009e 1368     		ldr	r3, [r2]
 5530 00a0 5B04     		lsls	r3, r3, #17
 5531 00a2 CFD5     		bpl	.L576
 5532 00a4 1368     		ldr	r3, [r2]
 5533 00a6 0D49     		ldr	r1, .L583+12
 5534 00a8 0B40     		ands	r3, r1
 5535 00aa 1360     		str	r3, [r2]
 5536 00ac A36B     		ldr	r3, [r4, #56]
 5537 00ae 002B     		cmp	r3, #0
 5538 00b0 C8D0     		beq	.L576
 5539 00b2 0B4A     		ldr	r2, .L583+16
 5540 00b4 5A63     		str	r2, [r3, #52]
 5541 00b6 A06B     		ldr	r0, [r4, #56]
 5542 00b8 FFF7FEFF 		bl	HAL_DMA_Abort_IT
 5543 00bc 0028     		cmp	r0, #0
 5544 00be C1D0     		beq	.L576
 5545 00c0 A06B     		ldr	r0, [r4, #56]
 5546 00c2 436B     		ldr	r3, [r0, #52]
 5547 00c4 9847     		blx	r3
 5548 00c6 BDE7     		b	.L576
 5549              	.L578:
 5550 00c8 0120     		movs	r0, #1
 5551              	.L573:
 5552              		@ sp needed
 5553 00ca F8BD     		pop	{r3, r4, r5, r6, r7, pc}
 5554              	.L579:
 5555 00cc 0220     		movs	r0, #2
ARM GAS  /tmp/ccDq0qaf.s 			page 97


 5556 00ce FCE7     		b	.L573
 5557              	.L584:
 5558              		.align	2
 5559              	.L583:
 5560 00d0 02800000 		.word	32770
 5561 00d4 FF7FFFFF 		.word	-32769
 5562 00d8 00000000 		.word	I2C_Slave_ISR_IT
 5563 00dc FFBFFFFF 		.word	-16385
 5564 00e0 00000000 		.word	I2C_DMAAbort
 5566              		.section	.text.HAL_I2C_Slave_Seq_Receive_DMA,"ax",%progbits
 5567              		.align	1
 5568              		.global	HAL_I2C_Slave_Seq_Receive_DMA
 5569              		.syntax unified
 5570              		.code	16
 5571              		.thumb_func
 5573              	HAL_I2C_Slave_Seq_Receive_DMA:
 5574              		@ args = 0, pretend = 0, frame = 0
 5575              		@ frame_needed = 0, uses_anonymous_args = 0
 5576 0000 F8B5     		push	{r3, r4, r5, r6, r7, lr}
 5577 0002 0400     		movs	r4, r0
 5578 0004 0F00     		movs	r7, r1
 5579 0006 1500     		movs	r5, r2
 5580 0008 1E00     		movs	r6, r3
 5581 000a 4123     		movs	r3, #65
 5582 000c C05C     		ldrb	r0, [r0, r3]
 5583 000e 193B     		subs	r3, r3, #25
 5584 0010 1840     		ands	r0, r3
 5585 0012 2828     		cmp	r0, #40
 5586 0014 00D0     		beq	.LCB6432
 5587 0016 B4E0     		b	.L596	@long jump
 5588              	.LCB6432:
 5589 0018 0029     		cmp	r1, #0
 5590 001a 01D0     		beq	.L587
 5591 001c 002A     		cmp	r2, #0
 5592 001e 04D1     		bne	.L588
 5593              	.L587:
 5594 0020 8023     		movs	r3, #128
 5595 0022 9B00     		lsls	r3, r3, #2
 5596 0024 6364     		str	r3, [r4, #68]
 5597 0026 0125     		movs	r5, #1
 5598 0028 ACE0     		b	.L586
 5599              	.L588:
 5600 002a 5849     		ldr	r1, .L603
 5601 002c 2000     		movs	r0, r4
 5602 002e FFF7FEFF 		bl	I2C_Disable_IRQ
 5603 0032 4023     		movs	r3, #64
 5604 0034 E35C     		ldrb	r3, [r4, r3]
 5605 0036 012B     		cmp	r3, #1
 5606 0038 00D1     		bne	.LCB6452
 5607 003a A5E0     		b	.L597	@long jump
 5608              	.LCB6452:
 5609 003c 4023     		movs	r3, #64
 5610 003e 0122     		movs	r2, #1
 5611 0040 E254     		strb	r2, [r4, r3]
 5612 0042 0133     		adds	r3, r3, #1
 5613 0044 E35C     		ldrb	r3, [r4, r3]
 5614 0046 292B     		cmp	r3, #41
ARM GAS  /tmp/ccDq0qaf.s 			page 98


 5615 0048 3BD0     		beq	.L601
 5616 004a 4123     		movs	r3, #65
 5617 004c E35C     		ldrb	r3, [r4, r3]
 5618 004e 2A2B     		cmp	r3, #42
 5619 0050 52D0     		beq	.L602
 5620              	.L590:
 5621 0052 4123     		movs	r3, #65
 5622 0054 2A22     		movs	r2, #42
 5623 0056 E254     		strb	r2, [r4, r3]
 5624 0058 0133     		adds	r3, r3, #1
 5625 005a 0A3A     		subs	r2, r2, #10
 5626 005c E254     		strb	r2, [r4, r3]
 5627 005e 0023     		movs	r3, #0
 5628 0060 6364     		str	r3, [r4, #68]
 5629 0062 2268     		ldr	r2, [r4]
 5630 0064 5368     		ldr	r3, [r2, #4]
 5631 0066 4A49     		ldr	r1, .L603+4
 5632 0068 0B40     		ands	r3, r1
 5633 006a 5360     		str	r3, [r2, #4]
 5634 006c 6762     		str	r7, [r4, #36]
 5635 006e 6585     		strh	r5, [r4, #42]
 5636 0070 638D     		ldrh	r3, [r4, #42]
 5637 0072 2385     		strh	r3, [r4, #40]
 5638 0074 E662     		str	r6, [r4, #44]
 5639 0076 474B     		ldr	r3, .L603+8
 5640 0078 6363     		str	r3, [r4, #52]
 5641 007a E36B     		ldr	r3, [r4, #60]
 5642 007c 002B     		cmp	r3, #0
 5643 007e 51D0     		beq	.L591
 5644 0080 454A     		ldr	r2, .L603+12
 5645 0082 9A62     		str	r2, [r3, #40]
 5646 0084 E36B     		ldr	r3, [r4, #60]
 5647 0086 454A     		ldr	r2, .L603+16
 5648 0088 1A63     		str	r2, [r3, #48]
 5649 008a E26B     		ldr	r2, [r4, #60]
 5650 008c 0023     		movs	r3, #0
 5651 008e D362     		str	r3, [r2, #44]
 5652 0090 E26B     		ldr	r2, [r4, #60]
 5653 0092 5363     		str	r3, [r2, #52]
 5654 0094 2168     		ldr	r1, [r4]
 5655 0096 2431     		adds	r1, r1, #36
 5656 0098 238D     		ldrh	r3, [r4, #40]
 5657 009a E06B     		ldr	r0, [r4, #60]
 5658 009c 3A00     		movs	r2, r7
 5659 009e FFF7FEFF 		bl	HAL_DMA_Start_IT
 5660 00a2 051E     		subs	r5, r0, #0
 5661 00a4 4CD0     		beq	.L592
 5662 00a6 4123     		movs	r3, #65
 5663 00a8 2822     		movs	r2, #40
 5664 00aa E254     		strb	r2, [r4, r3]
 5665 00ac 0022     		movs	r2, #0
 5666 00ae 0133     		adds	r3, r3, #1
 5667 00b0 E254     		strb	r2, [r4, r3]
 5668 00b2 636C     		ldr	r3, [r4, #68]
 5669 00b4 1021     		movs	r1, #16
 5670 00b6 0B43     		orrs	r3, r1
 5671 00b8 6364     		str	r3, [r4, #68]
ARM GAS  /tmp/ccDq0qaf.s 			page 99


 5672 00ba 4023     		movs	r3, #64
 5673 00bc E254     		strb	r2, [r4, r3]
 5674 00be 0125     		movs	r5, #1
 5675 00c0 60E0     		b	.L586
 5676              	.L601:
 5677 00c2 0121     		movs	r1, #1
 5678 00c4 2000     		movs	r0, r4
 5679 00c6 FFF7FEFF 		bl	I2C_Disable_IRQ
 5680 00ca 2268     		ldr	r2, [r4]
 5681 00cc 1368     		ldr	r3, [r2]
 5682 00ce 5B04     		lsls	r3, r3, #17
 5683 00d0 BFD5     		bpl	.L590
 5684 00d2 A36B     		ldr	r3, [r4, #56]
 5685 00d4 002B     		cmp	r3, #0
 5686 00d6 BCD0     		beq	.L590
 5687 00d8 1368     		ldr	r3, [r2]
 5688 00da 3149     		ldr	r1, .L603+20
 5689 00dc 0B40     		ands	r3, r1
 5690 00de 1360     		str	r3, [r2]
 5691 00e0 A36B     		ldr	r3, [r4, #56]
 5692 00e2 304A     		ldr	r2, .L603+24
 5693 00e4 5A63     		str	r2, [r3, #52]
 5694 00e6 A06B     		ldr	r0, [r4, #56]
 5695 00e8 FFF7FEFF 		bl	HAL_DMA_Abort_IT
 5696 00ec 0028     		cmp	r0, #0
 5697 00ee B0D0     		beq	.L590
 5698 00f0 A06B     		ldr	r0, [r4, #56]
 5699 00f2 436B     		ldr	r3, [r0, #52]
 5700 00f4 9847     		blx	r3
 5701 00f6 ACE7     		b	.L590
 5702              	.L602:
 5703 00f8 2268     		ldr	r2, [r4]
 5704 00fa 1368     		ldr	r3, [r2]
 5705 00fc 1B04     		lsls	r3, r3, #16
 5706 00fe A8D5     		bpl	.L590
 5707 0100 1368     		ldr	r3, [r2]
 5708 0102 2349     		ldr	r1, .L603+4
 5709 0104 0B40     		ands	r3, r1
 5710 0106 1360     		str	r3, [r2]
 5711 0108 E36B     		ldr	r3, [r4, #60]
 5712 010a 002B     		cmp	r3, #0
 5713 010c A1D0     		beq	.L590
 5714 010e 254A     		ldr	r2, .L603+24
 5715 0110 5A63     		str	r2, [r3, #52]
 5716 0112 E06B     		ldr	r0, [r4, #60]
 5717 0114 FFF7FEFF 		bl	HAL_DMA_Abort_IT
 5718 0118 0028     		cmp	r0, #0
 5719 011a 9AD0     		beq	.L590
 5720 011c E06B     		ldr	r0, [r4, #60]
 5721 011e 436B     		ldr	r3, [r0, #52]
 5722 0120 9847     		blx	r3
 5723 0122 96E7     		b	.L590
 5724              	.L591:
 5725 0124 4123     		movs	r3, #65
 5726 0126 2822     		movs	r2, #40
 5727 0128 E254     		strb	r2, [r4, r3]
 5728 012a 0022     		movs	r2, #0
ARM GAS  /tmp/ccDq0qaf.s 			page 100


 5729 012c 0133     		adds	r3, r3, #1
 5730 012e E254     		strb	r2, [r4, r3]
 5731 0130 636C     		ldr	r3, [r4, #68]
 5732 0132 8021     		movs	r1, #128
 5733 0134 0B43     		orrs	r3, r1
 5734 0136 6364     		str	r3, [r4, #68]
 5735 0138 4023     		movs	r3, #64
 5736 013a E254     		strb	r2, [r4, r3]
 5737 013c 0125     		movs	r5, #1
 5738 013e 21E0     		b	.L586
 5739              	.L592:
 5740 0140 638D     		ldrh	r3, [r4, #42]
 5741 0142 228D     		ldrh	r2, [r4, #40]
 5742 0144 9B1A     		subs	r3, r3, r2
 5743 0146 9BB2     		uxth	r3, r3
 5744 0148 6385     		strh	r3, [r4, #42]
 5745 014a 0023     		movs	r3, #0
 5746 014c 2385     		strh	r3, [r4, #40]
 5747 014e 2268     		ldr	r2, [r4]
 5748 0150 9169     		ldr	r1, [r2, #24]
 5749 0152 0833     		adds	r3, r3, #8
 5750 0154 0B40     		ands	r3, r1
 5751 0156 9169     		ldr	r1, [r2, #24]
 5752 0158 C903     		lsls	r1, r1, #15
 5753 015a 0DD5     		bpl	.L594
 5754              	.L595:
 5755 015c 4023     		movs	r3, #64
 5756 015e 0022     		movs	r2, #0
 5757 0160 E254     		strb	r2, [r4, r3]
 5758 0162 2268     		ldr	r2, [r4]
 5759 0164 1168     		ldr	r1, [r2]
 5760 0166 8023     		movs	r3, #128
 5761 0168 1B02     		lsls	r3, r3, #8
 5762 016a 0B43     		orrs	r3, r1
 5763 016c 1360     		str	r3, [r2]
 5764 016e 0749     		ldr	r1, .L603
 5765 0170 2000     		movs	r0, r4
 5766 0172 FFF7FEFF 		bl	I2C_Enable_IRQ
 5767 0176 05E0     		b	.L586
 5768              	.L594:
 5769 0178 002B     		cmp	r3, #0
 5770 017a EFD0     		beq	.L595
 5771 017c 0823     		movs	r3, #8
 5772 017e D361     		str	r3, [r2, #28]
 5773 0180 ECE7     		b	.L595
 5774              	.L596:
 5775 0182 0125     		movs	r5, #1
 5776              	.L586:
 5777 0184 2800     		movs	r0, r5
 5778              		@ sp needed
 5779 0186 F8BD     		pop	{r3, r4, r5, r6, r7, pc}
 5780              	.L597:
 5781 0188 0225     		movs	r5, #2
 5782 018a FBE7     		b	.L586
 5783              	.L604:
 5784              		.align	2
 5785              	.L603:
ARM GAS  /tmp/ccDq0qaf.s 			page 101


 5786 018c 02800000 		.word	32770
 5787 0190 FF7FFFFF 		.word	-32769
 5788 0194 00000000 		.word	I2C_Slave_ISR_DMA
 5789 0198 00000000 		.word	I2C_DMASlaveReceiveCplt
 5790 019c 00000000 		.word	I2C_DMAError
 5791 01a0 FFBFFFFF 		.word	-16385
 5792 01a4 00000000 		.word	I2C_DMAAbort
 5794              		.section	.text.HAL_I2C_EnableListen_IT,"ax",%progbits
 5795              		.align	1
 5796              		.global	HAL_I2C_EnableListen_IT
 5797              		.syntax unified
 5798              		.code	16
 5799              		.thumb_func
 5801              	HAL_I2C_EnableListen_IT:
 5802              		@ args = 0, pretend = 0, frame = 0
 5803              		@ frame_needed = 0, uses_anonymous_args = 0
 5804 0000 10B5     		push	{r4, lr}
 5805 0002 4123     		movs	r3, #65
 5806 0004 C35C     		ldrb	r3, [r0, r3]
 5807 0006 202B     		cmp	r3, #32
 5808 0008 01D0     		beq	.L608
 5809 000a 0220     		movs	r0, #2
 5810              	.L606:
 5811              		@ sp needed
 5812 000c 10BD     		pop	{r4, pc}
 5813              	.L608:
 5814 000e 2133     		adds	r3, r3, #33
 5815 0010 2822     		movs	r2, #40
 5816 0012 C254     		strb	r2, [r0, r3]
 5817 0014 034B     		ldr	r3, .L609
 5818 0016 4363     		str	r3, [r0, #52]
 5819 0018 8021     		movs	r1, #128
 5820 001a 0902     		lsls	r1, r1, #8
 5821 001c FFF7FEFF 		bl	I2C_Enable_IRQ
 5822 0020 0020     		movs	r0, #0
 5823 0022 F3E7     		b	.L606
 5824              	.L610:
 5825              		.align	2
 5826              	.L609:
 5827 0024 00000000 		.word	I2C_Slave_ISR_IT
 5829              		.section	.text.HAL_I2C_DisableListen_IT,"ax",%progbits
 5830              		.align	1
 5831              		.global	HAL_I2C_DisableListen_IT
 5832              		.syntax unified
 5833              		.code	16
 5834              		.thumb_func
 5836              	HAL_I2C_DisableListen_IT:
 5837              		@ args = 0, pretend = 0, frame = 0
 5838              		@ frame_needed = 0, uses_anonymous_args = 0
 5839 0000 70B5     		push	{r4, r5, r6, lr}
 5840 0002 4123     		movs	r3, #65
 5841 0004 C35C     		ldrb	r3, [r0, r3]
 5842 0006 282B     		cmp	r3, #40
 5843 0008 01D0     		beq	.L614
 5844 000a 0220     		movs	r0, #2
 5845              	.L612:
 5846              		@ sp needed
ARM GAS  /tmp/ccDq0qaf.s 			page 102


 5847 000c 70BD     		pop	{r4, r5, r6, pc}
 5848              	.L614:
 5849 000e 4124     		movs	r4, #65
 5850 0010 025D     		ldrb	r2, [r0, r4]
 5851 0012 4221     		movs	r1, #66
 5852 0014 435C     		ldrb	r3, [r0, r1]
 5853 0016 0325     		movs	r5, #3
 5854 0018 2A40     		ands	r2, r5
 5855 001a 1343     		orrs	r3, r2
 5856 001c 0363     		str	r3, [r0, #48]
 5857 001e 2023     		movs	r3, #32
 5858 0020 0355     		strb	r3, [r0, r4]
 5859 0022 0023     		movs	r3, #0
 5860 0024 4354     		strb	r3, [r0, r1]
 5861 0026 4363     		str	r3, [r0, #52]
 5862 0028 3E31     		adds	r1, r1, #62
 5863 002a 0902     		lsls	r1, r1, #8
 5864 002c FFF7FEFF 		bl	I2C_Disable_IRQ
 5865 0030 0020     		movs	r0, #0
 5866 0032 EBE7     		b	.L612
 5868              		.section	.text.HAL_I2C_Master_Abort_IT,"ax",%progbits
 5869              		.align	1
 5870              		.global	HAL_I2C_Master_Abort_IT
 5871              		.syntax unified
 5872              		.code	16
 5873              		.thumb_func
 5875              	HAL_I2C_Master_Abort_IT:
 5876              		@ args = 0, pretend = 0, frame = 0
 5877              		@ frame_needed = 0, uses_anonymous_args = 0
 5878 0000 30B5     		push	{r4, r5, lr}
 5879 0002 83B0     		sub	sp, sp, #12
 5880 0004 0400     		movs	r4, r0
 5881 0006 0D00     		movs	r5, r1
 5882 0008 4223     		movs	r3, #66
 5883 000a C35C     		ldrb	r3, [r0, r3]
 5884 000c DAB2     		uxtb	r2, r3
 5885 000e 102B     		cmp	r3, #16
 5886 0010 01D0     		beq	.L616
 5887 0012 402A     		cmp	r2, #64
 5888 0014 32D1     		bne	.L620
 5889              	.L616:
 5890 0016 4023     		movs	r3, #64
 5891 0018 E35C     		ldrb	r3, [r4, r3]
 5892 001a 012B     		cmp	r3, #1
 5893 001c 30D0     		beq	.L621
 5894 001e 4023     		movs	r3, #64
 5895 0020 0122     		movs	r2, #1
 5896 0022 E254     		strb	r2, [r4, r3]
 5897 0024 0133     		adds	r3, r3, #1
 5898 0026 E35C     		ldrb	r3, [r4, r3]
 5899 0028 212B     		cmp	r3, #33
 5900 002a 19D0     		beq	.L622
 5901 002c 4123     		movs	r3, #65
 5902 002e E35C     		ldrb	r3, [r4, r3]
 5903 0030 222B     		cmp	r3, #34
 5904 0032 1CD0     		beq	.L623
 5905              	.L619:
ARM GAS  /tmp/ccDq0qaf.s 			page 103


 5906 0034 4123     		movs	r3, #65
 5907 0036 6022     		movs	r2, #96
 5908 0038 E254     		strb	r2, [r4, r3]
 5909 003a 3F33     		adds	r3, r3, #63
 5910 003c 114A     		ldr	r2, .L624
 5911 003e 0092     		str	r2, [sp]
 5912 0040 9B04     		lsls	r3, r3, #18
 5913 0042 0122     		movs	r2, #1
 5914 0044 2900     		movs	r1, r5
 5915 0046 2000     		movs	r0, r4
 5916 0048 FFF7FEFF 		bl	I2C_TransferConfig
 5917 004c 4023     		movs	r3, #64
 5918 004e 0022     		movs	r2, #0
 5919 0050 E254     		strb	r2, [r4, r3]
 5920 0052 2021     		movs	r1, #32
 5921 0054 2000     		movs	r0, r4
 5922 0056 FFF7FEFF 		bl	I2C_Enable_IRQ
 5923 005a 0020     		movs	r0, #0
 5924              	.L617:
 5925 005c 03B0     		add	sp, sp, #12
 5926              		@ sp needed
 5927 005e 30BD     		pop	{r4, r5, pc}
 5928              	.L622:
 5929 0060 0121     		movs	r1, #1
 5930 0062 2000     		movs	r0, r4
 5931 0064 FFF7FEFF 		bl	I2C_Disable_IRQ
 5932 0068 1123     		movs	r3, #17
 5933 006a 2363     		str	r3, [r4, #48]
 5934 006c E2E7     		b	.L619
 5935              	.L623:
 5936 006e 0221     		movs	r1, #2
 5937 0070 2000     		movs	r0, r4
 5938 0072 FFF7FEFF 		bl	I2C_Disable_IRQ
 5939 0076 1223     		movs	r3, #18
 5940 0078 2363     		str	r3, [r4, #48]
 5941 007a DBE7     		b	.L619
 5942              	.L620:
 5943 007c 0120     		movs	r0, #1
 5944 007e EDE7     		b	.L617
 5945              	.L621:
 5946 0080 0220     		movs	r0, #2
 5947 0082 EBE7     		b	.L617
 5948              	.L625:
 5949              		.align	2
 5950              	.L624:
 5951 0084 00400080 		.word	-2147467264
 5953              		.section	.text.HAL_I2C_EV_IRQHandler,"ax",%progbits
 5954              		.align	1
 5955              		.global	HAL_I2C_EV_IRQHandler
 5956              		.syntax unified
 5957              		.code	16
 5958              		.thumb_func
 5960              	HAL_I2C_EV_IRQHandler:
 5961              		@ args = 0, pretend = 0, frame = 0
 5962              		@ frame_needed = 0, uses_anonymous_args = 0
 5963 0000 10B5     		push	{r4, lr}
 5964 0002 0368     		ldr	r3, [r0]
ARM GAS  /tmp/ccDq0qaf.s 			page 104


 5965 0004 9969     		ldr	r1, [r3, #24]
 5966 0006 1A68     		ldr	r2, [r3]
 5967 0008 436B     		ldr	r3, [r0, #52]
 5968 000a 002B     		cmp	r3, #0
 5969 000c 00D0     		beq	.L626
 5970 000e 9847     		blx	r3
 5971              	.L626:
 5972              		@ sp needed
 5973 0010 10BD     		pop	{r4, pc}
 5975              		.section	.text.HAL_I2C_MasterTxCpltCallback,"ax",%progbits
 5976              		.align	1
 5977              		.weak	HAL_I2C_MasterTxCpltCallback
 5978              		.syntax unified
 5979              		.code	16
 5980              		.thumb_func
 5982              	HAL_I2C_MasterTxCpltCallback:
 5983              		@ args = 0, pretend = 0, frame = 0
 5984              		@ frame_needed = 0, uses_anonymous_args = 0
 5985              		@ link register save eliminated.
 5986              		@ sp needed
 5987 0000 7047     		bx	lr
 5989              		.section	.text.HAL_I2C_MasterRxCpltCallback,"ax",%progbits
 5990              		.align	1
 5991              		.weak	HAL_I2C_MasterRxCpltCallback
 5992              		.syntax unified
 5993              		.code	16
 5994              		.thumb_func
 5996              	HAL_I2C_MasterRxCpltCallback:
 5997              		@ args = 0, pretend = 0, frame = 0
 5998              		@ frame_needed = 0, uses_anonymous_args = 0
 5999              		@ link register save eliminated.
 6000              		@ sp needed
 6001 0000 7047     		bx	lr
 6003              		.section	.text.I2C_ITMasterSeqCplt,"ax",%progbits
 6004              		.align	1
 6005              		.syntax unified
 6006              		.code	16
 6007              		.thumb_func
 6009              	I2C_ITMasterSeqCplt:
 6010              		@ args = 0, pretend = 0, frame = 0
 6011              		@ frame_needed = 0, uses_anonymous_args = 0
 6012 0000 70B5     		push	{r4, r5, r6, lr}
 6013 0002 0400     		movs	r4, r0
 6014 0004 4223     		movs	r3, #66
 6015 0006 0022     		movs	r2, #0
 6016 0008 C254     		strb	r2, [r0, r3]
 6017 000a 013B     		subs	r3, r3, #1
 6018 000c C35C     		ldrb	r3, [r0, r3]
 6019 000e 212B     		cmp	r3, #33
 6020 0010 0FD0     		beq	.L633
 6021 0012 4123     		movs	r3, #65
 6022 0014 2022     		movs	r2, #32
 6023 0016 C254     		strb	r2, [r0, r3]
 6024 0018 2F3B     		subs	r3, r3, #47
 6025 001a 0363     		str	r3, [r0, #48]
 6026 001c 0025     		movs	r5, #0
 6027 001e 4563     		str	r5, [r0, #52]
ARM GAS  /tmp/ccDq0qaf.s 			page 105


 6028 0020 0221     		movs	r1, #2
 6029 0022 FFF7FEFF 		bl	I2C_Disable_IRQ
 6030 0026 4023     		movs	r3, #64
 6031 0028 E554     		strb	r5, [r4, r3]
 6032 002a 2000     		movs	r0, r4
 6033 002c FFF7FEFF 		bl	HAL_I2C_MasterRxCpltCallback
 6034              	.L630:
 6035              		@ sp needed
 6036 0030 70BD     		pop	{r4, r5, r6, pc}
 6037              	.L633:
 6038 0032 2033     		adds	r3, r3, #32
 6039 0034 2032     		adds	r2, r2, #32
 6040 0036 C254     		strb	r2, [r0, r3]
 6041 0038 303B     		subs	r3, r3, #48
 6042 003a 0363     		str	r3, [r0, #48]
 6043 003c 0025     		movs	r5, #0
 6044 003e 4563     		str	r5, [r0, #52]
 6045 0040 0121     		movs	r1, #1
 6046 0042 FFF7FEFF 		bl	I2C_Disable_IRQ
 6047 0046 4023     		movs	r3, #64
 6048 0048 E554     		strb	r5, [r4, r3]
 6049 004a 2000     		movs	r0, r4
 6050 004c FFF7FEFF 		bl	HAL_I2C_MasterTxCpltCallback
 6051 0050 EEE7     		b	.L630
 6053              		.section	.text.HAL_I2C_SlaveTxCpltCallback,"ax",%progbits
 6054              		.align	1
 6055              		.weak	HAL_I2C_SlaveTxCpltCallback
 6056              		.syntax unified
 6057              		.code	16
 6058              		.thumb_func
 6060              	HAL_I2C_SlaveTxCpltCallback:
 6061              		@ args = 0, pretend = 0, frame = 0
 6062              		@ frame_needed = 0, uses_anonymous_args = 0
 6063              		@ link register save eliminated.
 6064              		@ sp needed
 6065 0000 7047     		bx	lr
 6067              		.section	.text.HAL_I2C_SlaveRxCpltCallback,"ax",%progbits
 6068              		.align	1
 6069              		.weak	HAL_I2C_SlaveRxCpltCallback
 6070              		.syntax unified
 6071              		.code	16
 6072              		.thumb_func
 6074              	HAL_I2C_SlaveRxCpltCallback:
 6075              		@ args = 0, pretend = 0, frame = 0
 6076              		@ frame_needed = 0, uses_anonymous_args = 0
 6077              		@ link register save eliminated.
 6078              		@ sp needed
 6079 0000 7047     		bx	lr
 6081              		.section	.text.I2C_ITSlaveSeqCplt,"ax",%progbits
 6082              		.align	1
 6083              		.syntax unified
 6084              		.code	16
 6085              		.thumb_func
 6087              	I2C_ITSlaveSeqCplt:
 6088              		@ args = 0, pretend = 0, frame = 0
 6089              		@ frame_needed = 0, uses_anonymous_args = 0
 6090 0000 10B5     		push	{r4, lr}
ARM GAS  /tmp/ccDq0qaf.s 			page 106


 6091 0002 0400     		movs	r4, r0
 6092 0004 0368     		ldr	r3, [r0]
 6093 0006 1A68     		ldr	r2, [r3]
 6094 0008 4221     		movs	r1, #66
 6095 000a 0020     		movs	r0, #0
 6096 000c 6054     		strb	r0, [r4, r1]
 6097 000e 5104     		lsls	r1, r2, #17
 6098 0010 0CD5     		bpl	.L637
 6099 0012 1A68     		ldr	r2, [r3]
 6100 0014 1949     		ldr	r1, .L644
 6101 0016 0A40     		ands	r2, r1
 6102 0018 1A60     		str	r2, [r3]
 6103              	.L638:
 6104 001a 4123     		movs	r3, #65
 6105 001c E35C     		ldrb	r3, [r4, r3]
 6106 001e 292B     		cmp	r3, #41
 6107 0020 0BD0     		beq	.L642
 6108 0022 4123     		movs	r3, #65
 6109 0024 E35C     		ldrb	r3, [r4, r3]
 6110 0026 2A2B     		cmp	r3, #42
 6111 0028 17D0     		beq	.L643
 6112              	.L636:
 6113              		@ sp needed
 6114 002a 10BD     		pop	{r4, pc}
 6115              	.L637:
 6116 002c 1204     		lsls	r2, r2, #16
 6117 002e F4D5     		bpl	.L638
 6118 0030 1A68     		ldr	r2, [r3]
 6119 0032 1349     		ldr	r1, .L644+4
 6120 0034 0A40     		ands	r2, r1
 6121 0036 1A60     		str	r2, [r3]
 6122 0038 EFE7     		b	.L638
 6123              	.L642:
 6124 003a 1833     		adds	r3, r3, #24
 6125 003c 2822     		movs	r2, #40
 6126 003e E254     		strb	r2, [r4, r3]
 6127 0040 203B     		subs	r3, r3, #32
 6128 0042 2363     		str	r3, [r4, #48]
 6129 0044 0121     		movs	r1, #1
 6130 0046 2000     		movs	r0, r4
 6131 0048 FFF7FEFF 		bl	I2C_Disable_IRQ
 6132 004c 4023     		movs	r3, #64
 6133 004e 0022     		movs	r2, #0
 6134 0050 E254     		strb	r2, [r4, r3]
 6135 0052 2000     		movs	r0, r4
 6136 0054 FFF7FEFF 		bl	HAL_I2C_SlaveTxCpltCallback
 6137 0058 E7E7     		b	.L636
 6138              	.L643:
 6139 005a 1733     		adds	r3, r3, #23
 6140 005c 2822     		movs	r2, #40
 6141 005e E254     		strb	r2, [r4, r3]
 6142 0060 1F3B     		subs	r3, r3, #31
 6143 0062 2363     		str	r3, [r4, #48]
 6144 0064 0221     		movs	r1, #2
 6145 0066 2000     		movs	r0, r4
 6146 0068 FFF7FEFF 		bl	I2C_Disable_IRQ
 6147 006c 4023     		movs	r3, #64
ARM GAS  /tmp/ccDq0qaf.s 			page 107


 6148 006e 0022     		movs	r2, #0
 6149 0070 E254     		strb	r2, [r4, r3]
 6150 0072 2000     		movs	r0, r4
 6151 0074 FFF7FEFF 		bl	HAL_I2C_SlaveRxCpltCallback
 6152 0078 D7E7     		b	.L636
 6153              	.L645:
 6154 007a C046     		.align	2
 6155              	.L644:
 6156 007c FFBFFFFF 		.word	-16385
 6157 0080 FF7FFFFF 		.word	-32769
 6159              		.section	.text.I2C_DMASlaveTransmitCplt,"ax",%progbits
 6160              		.align	1
 6161              		.syntax unified
 6162              		.code	16
 6163              		.thumb_func
 6165              	I2C_DMASlaveTransmitCplt:
 6166              		@ args = 0, pretend = 0, frame = 0
 6167              		@ frame_needed = 0, uses_anonymous_args = 0
 6168 0000 10B5     		push	{r4, lr}
 6169 0002 406A     		ldr	r0, [r0, #36]
 6170 0004 C36A     		ldr	r3, [r0, #44]
 6171 0006 8022     		movs	r2, #128
 6172 0008 5204     		lsls	r2, r2, #17
 6173 000a 9342     		cmp	r3, r2
 6174 000c 01D0     		beq	.L647
 6175 000e 002B     		cmp	r3, #0
 6176 0010 06D1     		bne	.L646
 6177              	.L647:
 6178 0012 0268     		ldr	r2, [r0]
 6179 0014 1368     		ldr	r3, [r2]
 6180 0016 0349     		ldr	r1, .L649
 6181 0018 0B40     		ands	r3, r1
 6182 001a 1360     		str	r3, [r2]
 6183 001c FFF7FEFF 		bl	I2C_ITSlaveSeqCplt
 6184              	.L646:
 6185              		@ sp needed
 6186 0020 10BD     		pop	{r4, pc}
 6187              	.L650:
 6188 0022 C046     		.align	2
 6189              	.L649:
 6190 0024 FFBFFFFF 		.word	-16385
 6192              		.section	.text.I2C_DMASlaveReceiveCplt,"ax",%progbits
 6193              		.align	1
 6194              		.syntax unified
 6195              		.code	16
 6196              		.thumb_func
 6198              	I2C_DMASlaveReceiveCplt:
 6199              		@ args = 0, pretend = 0, frame = 0
 6200              		@ frame_needed = 0, uses_anonymous_args = 0
 6201 0000 10B5     		push	{r4, lr}
 6202 0002 406A     		ldr	r0, [r0, #36]
 6203 0004 C26A     		ldr	r2, [r0, #44]
 6204 0006 C36B     		ldr	r3, [r0, #60]
 6205 0008 1B68     		ldr	r3, [r3]
 6206 000a 5B68     		ldr	r3, [r3, #4]
 6207 000c 002B     		cmp	r3, #0
 6208 000e 02D1     		bne	.L651
ARM GAS  /tmp/ccDq0qaf.s 			page 108


 6209 0010 054B     		ldr	r3, .L654
 6210 0012 9A42     		cmp	r2, r3
 6211 0014 00D1     		bne	.L653
 6212              	.L651:
 6213              		@ sp needed
 6214 0016 10BD     		pop	{r4, pc}
 6215              	.L653:
 6216 0018 0268     		ldr	r2, [r0]
 6217 001a 1368     		ldr	r3, [r2]
 6218 001c 0349     		ldr	r1, .L654+4
 6219 001e 0B40     		ands	r3, r1
 6220 0020 1360     		str	r3, [r2]
 6221 0022 FFF7FEFF 		bl	I2C_ITSlaveSeqCplt
 6222 0026 F6E7     		b	.L651
 6223              	.L655:
 6224              		.align	2
 6225              	.L654:
 6226 0028 0000FFFF 		.word	-65536
 6227 002c FF7FFFFF 		.word	-32769
 6229              		.section	.text.HAL_I2C_AddrCallback,"ax",%progbits
 6230              		.align	1
 6231              		.weak	HAL_I2C_AddrCallback
 6232              		.syntax unified
 6233              		.code	16
 6234              		.thumb_func
 6236              	HAL_I2C_AddrCallback:
 6237              		@ args = 0, pretend = 0, frame = 0
 6238              		@ frame_needed = 0, uses_anonymous_args = 0
 6239              		@ link register save eliminated.
 6240              		@ sp needed
 6241 0000 7047     		bx	lr
 6243              		.section	.text.I2C_ITAddrCplt,"ax",%progbits
 6244              		.align	1
 6245              		.syntax unified
 6246              		.code	16
 6247              		.thumb_func
 6249              	I2C_ITAddrCplt:
 6250              		@ args = 0, pretend = 0, frame = 0
 6251              		@ frame_needed = 0, uses_anonymous_args = 0
 6252 0000 F8B5     		push	{r3, r4, r5, r6, r7, lr}
 6253 0002 0400     		movs	r4, r0
 6254 0004 4123     		movs	r3, #65
 6255 0006 C35C     		ldrb	r3, [r0, r3]
 6256 0008 2822     		movs	r2, #40
 6257 000a 1340     		ands	r3, r2
 6258 000c 282B     		cmp	r3, #40
 6259 000e 06D0     		beq	.L662
 6260 0010 0368     		ldr	r3, [r0]
 6261 0012 0822     		movs	r2, #8
 6262 0014 DA61     		str	r2, [r3, #28]
 6263 0016 4023     		movs	r3, #64
 6264 0018 0022     		movs	r2, #0
 6265 001a C254     		strb	r2, [r0, r3]
 6266              	.L657:
 6267              		@ sp needed
 6268 001c F8BD     		pop	{r3, r4, r5, r6, r7, pc}
 6269              	.L662:
ARM GAS  /tmp/ccDq0qaf.s 			page 109


 6270 001e 0068     		ldr	r0, [r0]
 6271 0020 8569     		ldr	r5, [r0, #24]
 6272 0022 2D0C     		lsrs	r5, r5, #16
 6273 0024 273B     		subs	r3, r3, #39
 6274 0026 1D40     		ands	r5, r3
 6275 0028 8669     		ldr	r6, [r0, #24]
 6276 002a 360C     		lsrs	r6, r6, #16
 6277 002c FE21     		movs	r1, #254
 6278 002e 0E40     		ands	r6, r1
 6279 0030 8368     		ldr	r3, [r0, #8]
 6280 0032 9B05     		lsls	r3, r3, #22
 6281 0034 9B0D     		lsrs	r3, r3, #22
 6282 0036 C768     		ldr	r7, [r0, #12]
 6283 0038 0F40     		ands	r7, r1
 6284 003a E268     		ldr	r2, [r4, #12]
 6285 003c 022A     		cmp	r2, #2
 6286 003e 24D1     		bne	.L659
 6287 0040 DA09     		lsrs	r2, r3, #7
 6288 0042 7240     		eors	r2, r6
 6289 0044 F839     		subs	r1, r1, #248
 6290 0046 1142     		tst	r1, r2
 6291 0048 11D1     		bne	.L660
 6292 004a A26C     		ldr	r2, [r4, #72]
 6293 004c 0132     		adds	r2, r2, #1
 6294 004e A264     		str	r2, [r4, #72]
 6295 0050 A26C     		ldr	r2, [r4, #72]
 6296 0052 022A     		cmp	r2, #2
 6297 0054 E2D1     		bne	.L657
 6298 0056 0022     		movs	r2, #0
 6299 0058 A264     		str	r2, [r4, #72]
 6300 005a 0231     		adds	r1, r1, #2
 6301 005c C161     		str	r1, [r0, #28]
 6302 005e 3831     		adds	r1, r1, #56
 6303 0060 6254     		strb	r2, [r4, r1]
 6304 0062 1A00     		movs	r2, r3
 6305 0064 2900     		movs	r1, r5
 6306 0066 2000     		movs	r0, r4
 6307 0068 FFF7FEFF 		bl	HAL_I2C_AddrCallback
 6308 006c D6E7     		b	.L657
 6309              	.L660:
 6310 006e 8021     		movs	r1, #128
 6311 0070 0902     		lsls	r1, r1, #8
 6312 0072 2000     		movs	r0, r4
 6313 0074 FFF7FEFF 		bl	I2C_Disable_IRQ
 6314 0078 4023     		movs	r3, #64
 6315 007a 0022     		movs	r2, #0
 6316 007c E254     		strb	r2, [r4, r3]
 6317 007e 3A00     		movs	r2, r7
 6318 0080 2900     		movs	r1, r5
 6319 0082 2000     		movs	r0, r4
 6320 0084 FFF7FEFF 		bl	HAL_I2C_AddrCallback
 6321 0088 C8E7     		b	.L657
 6322              	.L659:
 6323 008a 8021     		movs	r1, #128
 6324 008c 0902     		lsls	r1, r1, #8
 6325 008e 2000     		movs	r0, r4
 6326 0090 FFF7FEFF 		bl	I2C_Disable_IRQ
ARM GAS  /tmp/ccDq0qaf.s 			page 110


 6327 0094 4023     		movs	r3, #64
 6328 0096 0022     		movs	r2, #0
 6329 0098 E254     		strb	r2, [r4, r3]
 6330 009a 3200     		movs	r2, r6
 6331 009c 2900     		movs	r1, r5
 6332 009e 2000     		movs	r0, r4
 6333 00a0 FFF7FEFF 		bl	HAL_I2C_AddrCallback
 6334 00a4 BAE7     		b	.L657
 6336              		.section	.text.HAL_I2C_ListenCpltCallback,"ax",%progbits
 6337              		.align	1
 6338              		.weak	HAL_I2C_ListenCpltCallback
 6339              		.syntax unified
 6340              		.code	16
 6341              		.thumb_func
 6343              	HAL_I2C_ListenCpltCallback:
 6344              		@ args = 0, pretend = 0, frame = 0
 6345              		@ frame_needed = 0, uses_anonymous_args = 0
 6346              		@ link register save eliminated.
 6347              		@ sp needed
 6348 0000 7047     		bx	lr
 6350              		.section	.text.I2C_ITListenCplt,"ax",%progbits
 6351              		.align	1
 6352              		.syntax unified
 6353              		.code	16
 6354              		.thumb_func
 6356              	I2C_ITListenCplt:
 6357              		@ args = 0, pretend = 0, frame = 0
 6358              		@ frame_needed = 0, uses_anonymous_args = 0
 6359 0000 10B5     		push	{r4, lr}
 6360 0002 0400     		movs	r4, r0
 6361 0004 164B     		ldr	r3, .L667
 6362 0006 C362     		str	r3, [r0, #44]
 6363 0008 0023     		movs	r3, #0
 6364 000a 0363     		str	r3, [r0, #48]
 6365 000c 4122     		movs	r2, #65
 6366 000e 2020     		movs	r0, #32
 6367 0010 A054     		strb	r0, [r4, r2]
 6368 0012 0132     		adds	r2, r2, #1
 6369 0014 A354     		strb	r3, [r4, r2]
 6370 0016 6363     		str	r3, [r4, #52]
 6371 0018 4907     		lsls	r1, r1, #29
 6372 001a 13D5     		bpl	.L665
 6373 001c 2368     		ldr	r3, [r4]
 6374 001e 5A6A     		ldr	r2, [r3, #36]
 6375 0020 636A     		ldr	r3, [r4, #36]
 6376 0022 1A70     		strb	r2, [r3]
 6377 0024 636A     		ldr	r3, [r4, #36]
 6378 0026 0133     		adds	r3, r3, #1
 6379 0028 6362     		str	r3, [r4, #36]
 6380 002a 238D     		ldrh	r3, [r4, #40]
 6381 002c 002B     		cmp	r3, #0
 6382 002e 09D0     		beq	.L665
 6383 0030 013B     		subs	r3, r3, #1
 6384 0032 2385     		strh	r3, [r4, #40]
 6385 0034 638D     		ldrh	r3, [r4, #42]
 6386 0036 013B     		subs	r3, r3, #1
 6387 0038 9BB2     		uxth	r3, r3
ARM GAS  /tmp/ccDq0qaf.s 			page 111


 6388 003a 6385     		strh	r3, [r4, #42]
 6389 003c 636C     		ldr	r3, [r4, #68]
 6390 003e 0422     		movs	r2, #4
 6391 0040 1343     		orrs	r3, r2
 6392 0042 6364     		str	r3, [r4, #68]
 6393              	.L665:
 6394 0044 0749     		ldr	r1, .L667+4
 6395 0046 2000     		movs	r0, r4
 6396 0048 FFF7FEFF 		bl	I2C_Disable_IRQ
 6397 004c 2368     		ldr	r3, [r4]
 6398 004e 1022     		movs	r2, #16
 6399 0050 DA61     		str	r2, [r3, #28]
 6400 0052 4023     		movs	r3, #64
 6401 0054 0022     		movs	r2, #0
 6402 0056 E254     		strb	r2, [r4, r3]
 6403 0058 2000     		movs	r0, r4
 6404 005a FFF7FEFF 		bl	HAL_I2C_ListenCpltCallback
 6405              		@ sp needed
 6406 005e 10BD     		pop	{r4, pc}
 6407              	.L668:
 6408              		.align	2
 6409              	.L667:
 6410 0060 0000FFFF 		.word	-65536
 6411 0064 03800000 		.word	32771
 6413              		.section	.text.HAL_I2C_MemTxCpltCallback,"ax",%progbits
 6414              		.align	1
 6415              		.weak	HAL_I2C_MemTxCpltCallback
 6416              		.syntax unified
 6417              		.code	16
 6418              		.thumb_func
 6420              	HAL_I2C_MemTxCpltCallback:
 6421              		@ args = 0, pretend = 0, frame = 0
 6422              		@ frame_needed = 0, uses_anonymous_args = 0
 6423              		@ link register save eliminated.
 6424              		@ sp needed
 6425 0000 7047     		bx	lr
 6427              		.section	.text.HAL_I2C_MemRxCpltCallback,"ax",%progbits
 6428              		.align	1
 6429              		.weak	HAL_I2C_MemRxCpltCallback
 6430              		.syntax unified
 6431              		.code	16
 6432              		.thumb_func
 6434              	HAL_I2C_MemRxCpltCallback:
 6435              		@ args = 0, pretend = 0, frame = 0
 6436              		@ frame_needed = 0, uses_anonymous_args = 0
 6437              		@ link register save eliminated.
 6438              		@ sp needed
 6439 0000 7047     		bx	lr
 6441              		.section	.text.HAL_I2C_ErrorCallback,"ax",%progbits
 6442              		.align	1
 6443              		.weak	HAL_I2C_ErrorCallback
 6444              		.syntax unified
 6445              		.code	16
 6446              		.thumb_func
 6448              	HAL_I2C_ErrorCallback:
 6449              		@ args = 0, pretend = 0, frame = 0
 6450              		@ frame_needed = 0, uses_anonymous_args = 0
ARM GAS  /tmp/ccDq0qaf.s 			page 112


 6451              		@ link register save eliminated.
 6452              		@ sp needed
 6453 0000 7047     		bx	lr
 6455              		.section	.text.HAL_I2C_AbortCpltCallback,"ax",%progbits
 6456              		.align	1
 6457              		.weak	HAL_I2C_AbortCpltCallback
 6458              		.syntax unified
 6459              		.code	16
 6460              		.thumb_func
 6462              	HAL_I2C_AbortCpltCallback:
 6463              		@ args = 0, pretend = 0, frame = 0
 6464              		@ frame_needed = 0, uses_anonymous_args = 0
 6465              		@ link register save eliminated.
 6466              		@ sp needed
 6467 0000 7047     		bx	lr
 6469              		.section	.text.I2C_TreatErrorCallback,"ax",%progbits
 6470              		.align	1
 6471              		.syntax unified
 6472              		.code	16
 6473              		.thumb_func
 6475              	I2C_TreatErrorCallback:
 6476              		@ args = 0, pretend = 0, frame = 0
 6477              		@ frame_needed = 0, uses_anonymous_args = 0
 6478 0000 10B5     		push	{r4, lr}
 6479 0002 4123     		movs	r3, #65
 6480 0004 C35C     		ldrb	r3, [r0, r3]
 6481 0006 602B     		cmp	r3, #96
 6482 0008 06D0     		beq	.L676
 6483 000a 0023     		movs	r3, #0
 6484 000c 0363     		str	r3, [r0, #48]
 6485 000e 4022     		movs	r2, #64
 6486 0010 8354     		strb	r3, [r0, r2]
 6487 0012 FFF7FEFF 		bl	HAL_I2C_ErrorCallback
 6488              	.L673:
 6489              		@ sp needed
 6490 0016 10BD     		pop	{r4, pc}
 6491              	.L676:
 6492 0018 1F3B     		subs	r3, r3, #31
 6493 001a 2022     		movs	r2, #32
 6494 001c C254     		strb	r2, [r0, r3]
 6495 001e 0023     		movs	r3, #0
 6496 0020 0363     		str	r3, [r0, #48]
 6497 0022 2032     		adds	r2, r2, #32
 6498 0024 8354     		strb	r3, [r0, r2]
 6499 0026 FFF7FEFF 		bl	HAL_I2C_AbortCpltCallback
 6500 002a F4E7     		b	.L673
 6502              		.section	.text.I2C_ITError,"ax",%progbits
 6503              		.align	1
 6504              		.syntax unified
 6505              		.code	16
 6506              		.thumb_func
 6508              	I2C_ITError:
 6509              		@ args = 0, pretend = 0, frame = 0
 6510              		@ frame_needed = 0, uses_anonymous_args = 0
 6511 0000 10B5     		push	{r4, lr}
 6512 0002 0400     		movs	r4, r0
 6513 0004 4123     		movs	r3, #65
ARM GAS  /tmp/ccDq0qaf.s 			page 113


 6514 0006 C35C     		ldrb	r3, [r0, r3]
 6515 0008 0022     		movs	r2, #0
 6516 000a 4220     		movs	r0, #66
 6517 000c 2254     		strb	r2, [r4, r0]
 6518 000e 4348     		ldr	r0, .L694
 6519 0010 E062     		str	r0, [r4, #44]
 6520 0012 6285     		strh	r2, [r4, #42]
 6521 0014 626C     		ldr	r2, [r4, #68]
 6522 0016 0A43     		orrs	r2, r1
 6523 0018 6264     		str	r2, [r4, #68]
 6524 001a 283B     		subs	r3, r3, #40
 6525 001c DBB2     		uxtb	r3, r3
 6526 001e 022B     		cmp	r3, #2
 6527 0020 1BD8     		bhi	.L678
 6528 0022 0321     		movs	r1, #3
 6529 0024 2000     		movs	r0, r4
 6530 0026 FFF7FEFF 		bl	I2C_Disable_IRQ
 6531 002a 4123     		movs	r3, #65
 6532 002c 2822     		movs	r2, #40
 6533 002e E254     		strb	r2, [r4, r3]
 6534 0030 3B4B     		ldr	r3, .L694+4
 6535 0032 6363     		str	r3, [r4, #52]
 6536              	.L679:
 6537 0034 236B     		ldr	r3, [r4, #48]
 6538 0036 A26B     		ldr	r2, [r4, #56]
 6539 0038 002A     		cmp	r2, #0
 6540 003a 03D0     		beq	.L682
 6541 003c 112B     		cmp	r3, #17
 6542 003e 2DD0     		beq	.L683
 6543 0040 212B     		cmp	r3, #33
 6544 0042 2BD0     		beq	.L683
 6545              	.L682:
 6546 0044 E26B     		ldr	r2, [r4, #60]
 6547 0046 002A     		cmp	r2, #0
 6548 0048 03D0     		beq	.L687
 6549 004a 122B     		cmp	r3, #18
 6550 004c 46D0     		beq	.L688
 6551 004e 222B     		cmp	r3, #34
 6552 0050 44D0     		beq	.L688
 6553              	.L687:
 6554 0052 2000     		movs	r0, r4
 6555 0054 FFF7FEFF 		bl	I2C_TreatErrorCallback
 6556              	.L677:
 6557              		@ sp needed
 6558 0058 10BD     		pop	{r4, pc}
 6559              	.L678:
 6560 005a 3249     		ldr	r1, .L694+8
 6561 005c 2000     		movs	r0, r4
 6562 005e FFF7FEFF 		bl	I2C_Disable_IRQ
 6563 0062 2000     		movs	r0, r4
 6564 0064 FFF7FEFF 		bl	I2C_Flush_TXDR
 6565 0068 4123     		movs	r3, #65
 6566 006a E35C     		ldrb	r3, [r4, r3]
 6567 006c 602B     		cmp	r3, #96
 6568 006e 12D0     		beq	.L680
 6569 0070 2023     		movs	r3, #32
 6570 0072 4122     		movs	r2, #65
ARM GAS  /tmp/ccDq0qaf.s 			page 114


 6571 0074 A354     		strb	r3, [r4, r2]
 6572 0076 2268     		ldr	r2, [r4]
 6573 0078 9169     		ldr	r1, [r2, #24]
 6574 007a 0B42     		tst	r3, r1
 6575 007c 0BD0     		beq	.L680
 6576 007e 9369     		ldr	r3, [r2, #24]
 6577 0080 DB06     		lsls	r3, r3, #27
 6578 0082 05D5     		bpl	.L681
 6579 0084 1023     		movs	r3, #16
 6580 0086 D361     		str	r3, [r2, #28]
 6581 0088 636C     		ldr	r3, [r4, #68]
 6582 008a 0422     		movs	r2, #4
 6583 008c 1343     		orrs	r3, r2
 6584 008e 6364     		str	r3, [r4, #68]
 6585              	.L681:
 6586 0090 2368     		ldr	r3, [r4]
 6587 0092 2022     		movs	r2, #32
 6588 0094 DA61     		str	r2, [r3, #28]
 6589              	.L680:
 6590 0096 0023     		movs	r3, #0
 6591 0098 6363     		str	r3, [r4, #52]
 6592 009a CBE7     		b	.L679
 6593              	.L683:
 6594 009c 2268     		ldr	r2, [r4]
 6595 009e 1368     		ldr	r3, [r2]
 6596 00a0 5B04     		lsls	r3, r3, #17
 6597 00a2 03D5     		bpl	.L684
 6598 00a4 1368     		ldr	r3, [r2]
 6599 00a6 2049     		ldr	r1, .L694+12
 6600 00a8 0B40     		ands	r3, r1
 6601 00aa 1360     		str	r3, [r2]
 6602              	.L684:
 6603 00ac A06B     		ldr	r0, [r4, #56]
 6604 00ae FFF7FEFF 		bl	HAL_DMA_GetState
 6605 00b2 0128     		cmp	r0, #1
 6606 00b4 0ED0     		beq	.L685
 6607 00b6 A36B     		ldr	r3, [r4, #56]
 6608 00b8 1C4A     		ldr	r2, .L694+16
 6609 00ba 5A63     		str	r2, [r3, #52]
 6610 00bc 4023     		movs	r3, #64
 6611 00be 0022     		movs	r2, #0
 6612 00c0 E254     		strb	r2, [r4, r3]
 6613 00c2 A06B     		ldr	r0, [r4, #56]
 6614 00c4 FFF7FEFF 		bl	HAL_DMA_Abort_IT
 6615 00c8 0028     		cmp	r0, #0
 6616 00ca C5D0     		beq	.L677
 6617 00cc A06B     		ldr	r0, [r4, #56]
 6618 00ce 436B     		ldr	r3, [r0, #52]
 6619 00d0 9847     		blx	r3
 6620 00d2 C1E7     		b	.L677
 6621              	.L685:
 6622 00d4 2000     		movs	r0, r4
 6623 00d6 FFF7FEFF 		bl	I2C_TreatErrorCallback
 6624 00da BDE7     		b	.L677
 6625              	.L688:
 6626 00dc 2368     		ldr	r3, [r4]
 6627 00de 1A68     		ldr	r2, [r3]
ARM GAS  /tmp/ccDq0qaf.s 			page 115


 6628 00e0 1204     		lsls	r2, r2, #16
 6629 00e2 03D5     		bpl	.L689
 6630 00e4 1A68     		ldr	r2, [r3]
 6631 00e6 1249     		ldr	r1, .L694+20
 6632 00e8 0A40     		ands	r2, r1
 6633 00ea 1A60     		str	r2, [r3]
 6634              	.L689:
 6635 00ec E06B     		ldr	r0, [r4, #60]
 6636 00ee FFF7FEFF 		bl	HAL_DMA_GetState
 6637 00f2 0128     		cmp	r0, #1
 6638 00f4 0ED0     		beq	.L690
 6639 00f6 E36B     		ldr	r3, [r4, #60]
 6640 00f8 0C4A     		ldr	r2, .L694+16
 6641 00fa 5A63     		str	r2, [r3, #52]
 6642 00fc 4023     		movs	r3, #64
 6643 00fe 0022     		movs	r2, #0
 6644 0100 E254     		strb	r2, [r4, r3]
 6645 0102 E06B     		ldr	r0, [r4, #60]
 6646 0104 FFF7FEFF 		bl	HAL_DMA_Abort_IT
 6647 0108 0028     		cmp	r0, #0
 6648 010a A5D0     		beq	.L677
 6649 010c E06B     		ldr	r0, [r4, #60]
 6650 010e 436B     		ldr	r3, [r0, #52]
 6651 0110 9847     		blx	r3
 6652 0112 A1E7     		b	.L677
 6653              	.L690:
 6654 0114 2000     		movs	r0, r4
 6655 0116 FFF7FEFF 		bl	I2C_TreatErrorCallback
 6656 011a 9DE7     		b	.L677
 6657              	.L695:
 6658              		.align	2
 6659              	.L694:
 6660 011c 0000FFFF 		.word	-65536
 6661 0120 00000000 		.word	I2C_Slave_ISR_IT
 6662 0124 03800000 		.word	32771
 6663 0128 FFBFFFFF 		.word	-16385
 6664 012c 00000000 		.word	I2C_DMAAbort
 6665 0130 FF7FFFFF 		.word	-32769
 6667              		.section	.text.I2C_ITSlaveCplt,"ax",%progbits
 6668              		.align	1
 6669              		.syntax unified
 6670              		.code	16
 6671              		.thumb_func
 6673              	I2C_ITSlaveCplt:
 6674              		@ args = 0, pretend = 0, frame = 0
 6675              		@ frame_needed = 0, uses_anonymous_args = 0
 6676 0000 F8B5     		push	{r3, r4, r5, r6, r7, lr}
 6677 0002 0400     		movs	r4, r0
 6678 0004 0D00     		movs	r5, r1
 6679 0006 0268     		ldr	r2, [r0]
 6680 0008 1668     		ldr	r6, [r2]
 6681 000a C76A     		ldr	r7, [r0, #44]
 6682 000c 4123     		movs	r3, #65
 6683 000e C35C     		ldrb	r3, [r0, r3]
 6684 0010 2021     		movs	r1, #32
 6685 0012 D161     		str	r1, [r2, #28]
 6686 0014 213B     		subs	r3, r3, #33
ARM GAS  /tmp/ccDq0qaf.s 			page 116


 6687 0016 DAB2     		uxtb	r2, r3
 6688 0018 092A     		cmp	r2, #9
 6689 001a 08D8     		bhi	.L697
 6690 001c 9300     		lsls	r3, r2, #2
 6691 001e 6B4A     		ldr	r2, .L724
 6692 0020 D358     		ldr	r3, [r2, r3]
 6693 0022 9F46     		mov	pc, r3
 6694              		.section	.rodata.I2C_ITSlaveCplt,"a",%progbits
 6695              		.align	2
 6696              	.L699:
 6697 0000 24000000 		.word	.L700
 6698 0004 F4000000 		.word	.L698
 6699 0008 2E000000 		.word	.L697
 6700 000c 2E000000 		.word	.L697
 6701 0010 2E000000 		.word	.L697
 6702 0014 2E000000 		.word	.L697
 6703 0018 2E000000 		.word	.L697
 6704 001c 00010000 		.word	.L701
 6705 0020 24000000 		.word	.L700
 6706 0024 F4000000 		.word	.L698
 6707              		.section	.text.I2C_ITSlaveCplt
 6708              	.L700:
 6709 0024 6A49     		ldr	r1, .L724+4
 6710 0026 FFF7FEFF 		bl	I2C_Disable_IRQ
 6711 002a 2123     		movs	r3, #33
 6712 002c 2363     		str	r3, [r4, #48]
 6713              	.L697:
 6714 002e 2268     		ldr	r2, [r4]
 6715 0030 5168     		ldr	r1, [r2, #4]
 6716 0032 8023     		movs	r3, #128
 6717 0034 1B02     		lsls	r3, r3, #8
 6718 0036 0B43     		orrs	r3, r1
 6719 0038 5360     		str	r3, [r2, #4]
 6720 003a 2268     		ldr	r2, [r4]
 6721 003c 5368     		ldr	r3, [r2, #4]
 6722 003e 6549     		ldr	r1, .L724+8
 6723 0040 0B40     		ands	r3, r1
 6724 0042 5360     		str	r3, [r2, #4]
 6725 0044 2000     		movs	r0, r4
 6726 0046 FFF7FEFF 		bl	I2C_Flush_TXDR
 6727 004a 7304     		lsls	r3, r6, #17
 6728 004c 5ED5     		bpl	.L702
 6729 004e 2268     		ldr	r2, [r4]
 6730 0050 1368     		ldr	r3, [r2]
 6731 0052 6149     		ldr	r1, .L724+12
 6732 0054 0B40     		ands	r3, r1
 6733 0056 1360     		str	r3, [r2]
 6734 0058 A36B     		ldr	r3, [r4, #56]
 6735 005a 002B     		cmp	r3, #0
 6736 005c 03D0     		beq	.L703
 6737 005e 1B68     		ldr	r3, [r3]
 6738 0060 5B68     		ldr	r3, [r3, #4]
 6739 0062 9BB2     		uxth	r3, r3
 6740 0064 6385     		strh	r3, [r4, #42]
 6741              	.L703:
 6742 0066 6B07     		lsls	r3, r5, #29
 6743 0068 11D5     		bpl	.L704
ARM GAS  /tmp/ccDq0qaf.s 			page 117


 6744 006a 0423     		movs	r3, #4
 6745 006c 9D43     		bics	r5, r3
 6746 006e 2368     		ldr	r3, [r4]
 6747 0070 5A6A     		ldr	r2, [r3, #36]
 6748 0072 636A     		ldr	r3, [r4, #36]
 6749 0074 1A70     		strb	r2, [r3]
 6750 0076 636A     		ldr	r3, [r4, #36]
 6751 0078 0133     		adds	r3, r3, #1
 6752 007a 6362     		str	r3, [r4, #36]
 6753 007c 238D     		ldrh	r3, [r4, #40]
 6754 007e 002B     		cmp	r3, #0
 6755 0080 05D0     		beq	.L704
 6756 0082 013B     		subs	r3, r3, #1
 6757 0084 2385     		strh	r3, [r4, #40]
 6758 0086 638D     		ldrh	r3, [r4, #42]
 6759 0088 013B     		subs	r3, r3, #1
 6760 008a 9BB2     		uxth	r3, r3
 6761 008c 6385     		strh	r3, [r4, #42]
 6762              	.L704:
 6763 008e 638D     		ldrh	r3, [r4, #42]
 6764 0090 002B     		cmp	r3, #0
 6765 0092 03D0     		beq	.L705
 6766 0094 636C     		ldr	r3, [r4, #68]
 6767 0096 0422     		movs	r2, #4
 6768 0098 1343     		orrs	r3, r2
 6769 009a 6364     		str	r3, [r4, #68]
 6770              	.L705:
 6771 009c EB06     		lsls	r3, r5, #27
 6772 009e 0FD5     		bpl	.L706
 6773 00a0 F606     		lsls	r6, r6, #27
 6774 00a2 0DD5     		bpl	.L706
 6775 00a4 638D     		ldrh	r3, [r4, #42]
 6776 00a6 002B     		cmp	r3, #0
 6777 00a8 55D1     		bne	.L707
 6778 00aa 4133     		adds	r3, r3, #65
 6779 00ac E35C     		ldrb	r3, [r4, r3]
 6780 00ae 282B     		cmp	r3, #40
 6781 00b0 3BD0     		beq	.L719
 6782              	.L708:
 6783 00b2 4123     		movs	r3, #65
 6784 00b4 E35C     		ldrb	r3, [r4, r3]
 6785 00b6 292B     		cmp	r3, #41
 6786 00b8 40D0     		beq	.L720
 6787              	.L709:
 6788 00ba 2368     		ldr	r3, [r4]
 6789 00bc 1022     		movs	r2, #16
 6790 00be DA61     		str	r2, [r3, #28]
 6791              	.L706:
 6792 00c0 0023     		movs	r3, #0
 6793 00c2 4222     		movs	r2, #66
 6794 00c4 A354     		strb	r3, [r4, r2]
 6795 00c6 6363     		str	r3, [r4, #52]
 6796 00c8 636C     		ldr	r3, [r4, #68]
 6797 00ca 002B     		cmp	r3, #0
 6798 00cc 55D1     		bne	.L721
 6799 00ce E26A     		ldr	r2, [r4, #44]
 6800 00d0 424B     		ldr	r3, .L724+16
ARM GAS  /tmp/ccDq0qaf.s 			page 118


 6801 00d2 9A42     		cmp	r2, r3
 6802 00d4 5ED1     		bne	.L722
 6803 00d6 4123     		movs	r3, #65
 6804 00d8 E35C     		ldrb	r3, [r4, r3]
 6805 00da 222B     		cmp	r3, #34
 6806 00dc 6AD0     		beq	.L723
 6807 00de 4123     		movs	r3, #65
 6808 00e0 2022     		movs	r2, #32
 6809 00e2 E254     		strb	r2, [r4, r3]
 6810 00e4 0023     		movs	r3, #0
 6811 00e6 2363     		str	r3, [r4, #48]
 6812 00e8 2032     		adds	r2, r2, #32
 6813 00ea A354     		strb	r3, [r4, r2]
 6814 00ec 2000     		movs	r0, r4
 6815 00ee FFF7FEFF 		bl	HAL_I2C_SlaveTxCpltCallback
 6816 00f2 5EE0     		b	.L696
 6817              	.L698:
 6818 00f4 3A49     		ldr	r1, .L724+20
 6819 00f6 FFF7FEFF 		bl	I2C_Disable_IRQ
 6820 00fa 2223     		movs	r3, #34
 6821 00fc 2363     		str	r3, [r4, #48]
 6822 00fe 96E7     		b	.L697
 6823              	.L701:
 6824 0100 3849     		ldr	r1, .L724+24
 6825 0102 FFF7FEFF 		bl	I2C_Disable_IRQ
 6826 0106 0023     		movs	r3, #0
 6827 0108 2363     		str	r3, [r4, #48]
 6828 010a 90E7     		b	.L697
 6829              	.L702:
 6830 010c 3304     		lsls	r3, r6, #16
 6831 010e AAD5     		bpl	.L703
 6832 0110 2268     		ldr	r2, [r4]
 6833 0112 1368     		ldr	r3, [r2]
 6834 0114 3449     		ldr	r1, .L724+28
 6835 0116 0B40     		ands	r3, r1
 6836 0118 1360     		str	r3, [r2]
 6837 011a E36B     		ldr	r3, [r4, #60]
 6838 011c 002B     		cmp	r3, #0
 6839 011e A2D0     		beq	.L703
 6840 0120 1B68     		ldr	r3, [r3]
 6841 0122 5B68     		ldr	r3, [r3, #4]
 6842 0124 9BB2     		uxth	r3, r3
 6843 0126 6385     		strh	r3, [r4, #42]
 6844 0128 9DE7     		b	.L703
 6845              	.L719:
 6846 012a 8023     		movs	r3, #128
 6847 012c 9B04     		lsls	r3, r3, #18
 6848 012e 9F42     		cmp	r7, r3
 6849 0130 BFD1     		bne	.L708
 6850 0132 2900     		movs	r1, r5
 6851 0134 2000     		movs	r0, r4
 6852 0136 FFF7FEFF 		bl	I2C_ITListenCplt
 6853 013a C1E7     		b	.L706
